
 Start  Stop   Length Name                   Class
 00000H 00000H 00000H STACK                  PROG
 00000H 0015FH 00160H CODE                   PROG
 00160H 00164H 00005H DATA                   DATA
 00170H 005CFH 00460H DATZ                   DATA
 005D0H 005D0H 00000H CODZ                   NCODE
 005D0H 01F16H 01947H NCODE                  NCODE
 01F20H 01F5FH 00040H NLSEG                  NDATA
 01F60H 0258FH 00630H NDATA                  NDATA
 02590H 0263FH 000B0H DTAIL                  ZDATA
 02640H 034DFH 00EA0H ACODE                  ZDATA
 034E0H 03ACBH 005ECH ADATA                  ZDATA
 03ACCH 03B15H 0004AH SEG_LEN                ZDATA
 03B16H 03B5FH 0004AH SEG_TAB                ZDATA
 03B60H 03BA9H 0004AH SEG_ACT                ZDATA
 03BAAH 03C5AH 000B1H SEG_TXT                ZDATA
 03C5BH 05B9CH 01F42H UCODE                  UCODE
 05BA0H 06E93H 012F4H UDATA                  UDATA
 06E94H 06EB3H 00020H ZZTAIL                 ZZDATA

 Origin   Group
 0000:0   PGROUP

  Address         Publics by Name

 0000:0008  Abs  @CFG_CLOSEHI
 0000:0010  Abs  @CFG_CLOSELOW
 0000:0004  Abs  @CFG_DRVSPC
 0000:1000  Abs  @CFG_GSIZE
 0000:0040  Abs  @CFG_PROTMAN
 0000:2040  Abs  @CFG_PTOPF
 0000:2000  Abs  @CFG_TOPF
 0000:0022  Abs  @DCBYTE
 0000:3833  Abs  @GSIZE_PAT1
 0000:4D36  Abs  @GSIZE_PAT2
 0000:0033  Abs  @INT_SIZE
 0000:4A7C       ACT_DDD
 0000:4C72       ACT_DDD_DISPSIZ
 0000:4C9D       ACT_DDD_GET_HI_SIZ
 0000:0C3F       ACT_HELP
 0000:32FF       ACT_MAP
 0000:4DC3       ACT_MAPCMD
 0000:4E58       ACT_MAPDOS
 0000:4F0F       ACT_MAPSUB
 0000:4E40       ACT_MAPWIPE
 0000:5BAF       ALTPATHSEP
 0000:6DCC       APV_PTR
 0000:1F89       AZS_386LOAD
 0000:36E0       AZS_ARGS
 0000:1F92       AZS_CRLF
 0000:22B8       AZS_ERRMAC
 0000:3923       AZS_ERRMEM
 0000:3952       AZS_EXEC
 0000:3952       AZS_FILE
 0000:22DE       AZS_LOADLO
 0000:3824       AZS_LOWFAIL
 0000:5CC1       AZS_NOFIT1
 0000:5CCA       AZS_NOFIT2
 0000:2310       AZS_NOLOAD
 0000:38EF       AZS_NOROOM
 0000:2551       AZS_NOTPRES
 0000:2424       AZS_PRESS
 0000:23DB       AZS_SIZELO
 0000:5D9A       AZS_SUMHEAD1
 0000:5DEC       AZS_SUMHEAD2
 0000:5E3E       AZS_SUMHEAD3
 0000:5E90       AZS_SUMHEAD4
 0000:5EE2       AZS_SUMHEAD5
 0000:5F34       AZS_SUMHEAD6
 0000:5F86       AZS_SUMHEAD7
 0000:5FF4       AZS_SUMLIN
 0000:6048       AZS_SUMTAIL1
 0000:39FE       AZS_UGHCHG
 0000:3A20       AZS_UGHCHG1
 0000:3A2E       AZS_UGHCHG2
 0000:397E       AZS_UGHEMS
 0000:210C       AZS_UGHMAC
 0000:39BE       AZS_UGHROOM
 0000:2465       AZS_WINERR
 0000:385C       AZS_XDOS
 0000:37D4       AZS_XENV
 0000:38D4       AZS_XHI
 0000:2335       AZS_XHILOAD
 0000:3897       AZS_XLOW
 0000:2445       AZS_XMAXLOW
 0000:20D8       AZS_XRES
 0000:2510       AZS_XVER
 0000:2682       BASE2BIN
 0000:2006       BASNAME
 0000:25A1       BAS_SIGN
 0000:25A7       BAS_VER
 0000:6E44       BESTREG
 0000:6E92       BESTSIZE
 0000:0030  Abs  BETA_H
 0000:0030  Abs  BETA_T
 0000:0034  Abs  BETA_U
 0000:4D92       BIN2HEX
 0000:4183       BIN2HEX_SUB
 0000:0008  Abs  BINVERS_H
 0000:0003  Abs  BINVERS_TU
 0000:177C       BUILD_PSP
 0000:1587       BYT2PAR
 0000:58F4       CALCREG
 0000:2FC0       CALC_ENV
 0000:0C5C       CALC_ENV_NPAR
 0000:5B55       CALC_REGDIF
 0000:5BC0       CFGFILE
 0000:0592       CFGFLAGS
 0000:5BCC       CFGLINE
 0000:5BCC       CFGPATH
 0000:2652       CHECK_CPUID
 0000:4694       CHECK_DATE
 0000:1175       CHECK_EMSPTE
 0000:4A1E       CHECK_FLEX
 0000:2CAD       CHECK_INFO
 0000:3350       CHECK_LINE
 0000:3FC8       CHECK_MEM
 0000:465C       CHECK_NAME
 0000:55D9       CHECK_ORPHAN
 0000:0CAE       CHECK_PATCH
 0000:42F1       CHECK_SETVER
 0000:56BF       CHKMEM_ANY
 0000:5710       CHKMEM_REG
 0000:1C8D       CLEANUP
 0000:11D9       CLEAR_EMSPTE
 0000:4136       CLEAR_MEM
 0000:551C       CLEAR_NAME
 0000:53EC       CLEAR_OWNR
 0000:53FB       CLEAR_TEXT
 0000:25DF       CM2_FLAG
 0000:3B60       CMDARG_ACT
 0000:3ACC       CMDARG_LEN
 0000:3B16       CMDARG_TAB
 0000:272F       CMDCHK_DISPLAY
 0000:2738       CMDCHK_ENVNAME
 0000:2740       CMDCHK_ENVREG
 0000:2790       CMDCHK_ENVSAVE
 0000:2835       CMDCHK_FLEXFRAME
 0000:2747       CMDCHK_GETSIZE
 0000:274C       CMDCHK_GROUP
 0000:284B       CMDCHK_HELP
 0000:27F9       CMDCHK_INORDBG
 0000:27E2       CMDCHK_INORDER
 0000:2753       CMDCHK_INT
 0000:2758       CMDCHK_MAPDEV
 0000:2774       CMDCHK_MAPMEM
 0000:27A9       CMDCHK_NOPAUSE
 0000:27A1       CMDCHK_NORETRY
 0000:27AF       CMDCHK_PRGREG
 0000:2864       CMDCHK_PROG
 0000:27BA       CMDCHK_PSP
 0000:27C5       CMDCHK_QUIET
 0000:2821       CMDCHK_REORDBG
 0000:280D       CMDCHK_REORDER
 0000:283B       CMDCHK_SIZE
 0000:27CB       CMDCHK_SUMMARY
 0000:2856       CMDCHK_TERSE
 0000:2843       CMDCHK_VDS
 0000:2722       CMDCHK_VER
 0000:285E       CMDCHK_VERBOSE
 0000:66C6       CMDCOM_LEN
 0000:66C2       CMDCOM_VEC
 0000:25DD       CMD_FLAG
 0000:63A0       CNT_INTS
 0000:5C9C       COMPSIZE
 0000:409C       COMP_MEM
 0000:1FEA       CON10
 0000:5532       CONV_NUM
 0000:40EC       COPY_MEM
 0000:66BE       CURDEV_VEC
 0000:34F5       CURDRV
 0000:66BC       CURENV
 0000:25F7       CURINT67_VEC
 0000:66B4       CURMAC
 0000:66BB       CURMDRV
 0000:66B8       CURNPAR
 0000:66B6       CUROWNR
 0000:0174       CURPSP
 0000:6DD6       CURSEG
 0000:20C2       CURSTK_OFF
 0000:66BA       CURTYPE
 0000:4171       DB2HEX
 0000:5CA7       DBG_FLAG
 0000:5603       DD2DEC
 0000:566E       DD2DEC_DIG
 0000:4727       DEC2BIN
 0000:1FF0       DEV_HNDL
 0000:0B37       DISP_ASCIIZ
 0000:4A67       DISP_ASCIIZMUL
 0000:0C0F       DISP_COPY
 0000:4D3C       DISP_DDDINTS
 0000:0BD3       DISP_ERRMSG
 0000:5411       DISP_INTS
 0000:5436       DISP_INTS_LINE
 0000:4F3D       DISP_MAC
 0000:53E3       DISP_MAC_EXIT
 0000:5365       DISP_MAC_MSG
 0000:54D6       DISP_TEXT
 0000:6E74       DLGREG
 0000:6E72       DLGSIZE
 0000:0589       DMAC
 0000:1FEC       DOSVER
 0000:20C4       DRV_FCB1
 0000:20C5       DRV_FCB2
 0000:417A       DW2HEX
 0000:557F       DW2HEX_DS
 0000:1FF4       EES
 0000:0596       EMMDEV
 0000:2603       EMMSIZE
 0000:5C1C       EMSSAVE
 0000:1FF2       EMS_HNDL
 0000:0965       EMU_GETMEM
 0000:1F88       END_RET
 0000:20B0       END_VEC
 0000:1D37       ENVFREE
 0000:1D6C       ENVNAME
 0000:34E0       ENVPATH_VEC
 0000:1F6A       ENV_HEAD
 0000:1F70       ENV_NPAR
 0000:1F6E       ENV_SIZE
 0000:1F6C       ENV_TAIL
 0000:1F60       EXEC_BLK
 0000:1F64       EXEC_ENVMAC
 0000:0B1B       EXEC_FREE
 0000:1F66       EXEC_INTMAC
 0000:1F60       EXEC_LOD
 0000:1FE4       EXEC_LODLO
 0000:2098       EXEC_PRGMAC
 0000:209C       EXEC_PRGNPAR
 0000:0590       EXEC_PSP
 0000:1F62       EXEC_REL
 0000:1F68       EXEC_TOP
 0000:34EE       EXEFILE_LEN
 0000:34EC       EXEFILE_OFF
 0000:1FE6       EXE_NPAR
 0000:206C       F0MOD
 0000:2079       F0MOD_JC
 0000:2071       F0MOD_OFF1
 0000:2075       F0MOD_OFF2
 0000:0B69       FCN_DISPLAY
 0000:2B48       FCN_ENVREG
 0000:41A9       FCN_FLEXFRAME
 0000:41D2       FCN_GETSIZE
 0000:4206       FCN_GROUP
 0000:4231       FCN_INT
 0000:423A       FCN_NOPAUSE
 0000:4243       FCN_PRGREG
 0000:2B98       FCN_PROG
 0000:2B75       FCN_PSP
 0000:4274       FCN_QUIET
 0000:427D       FCN_SIZE
 0000:42E9       FCN_VDS
 0000:207C       FILE_HEAD
 0000:1516       FILL_MEM
 0000:4CBF       FINDINTS
 0000:310D       FIND_BASE
 0000:28B1       FIND_FILE
 0000:0620       FIND_MEM
 0000:1344       FIND_MIS
 0000:1597       FIND_OWNER
 0000:12E4       FIND_PAT
 0000:2A96       FIND_PATH
 0000:125C       FIND_REGION
 0000:6DD2       FITRES
 0000:05D0       FIX_FILEHEAD
 0000:3F06       FMT_CHG
 0000:48A4       FMT_SUMFIT
 0000:41CA       FORCE_GETSIZE
 0000:2621       FRAMESEG
 0000:0AF1       FREE_MACS
 0000:450C       GETLINE
 0000:15D4       GETMEM
 0000:12AD       GETMEM_REG
 0000:15EC       GETMEM_SRCH
 0000:166D       GETMEM_SUB
 0000:4377       GETPARAS
 0000:1377       GETSIZE
 0000:05C6       GETSIZE_IDELTA
 0000:05C4       GETSIZE_RDELTA
 0000:3026       GETSIZE_UMB
 0000:1F7E       GSIZE_NPAR
 0000:2630       GTAIL
 0000:0127  Abs  HELP_LEN
 0000:2190       HELP_TEXT
 0000:5587       HEX2BIN
 0000:6DA1       HEXTAB
 0000:60AE       HIGHSEG
 0000:05C2       HSIZE_DELTA
 0000:3550       IDENTIFY
 0000:015E  Abs  IDENTIFY_LEN
 0000:36AE       IDENT_CHK
 0000:1FC2       ID_LEN
 0000:66B0       IGN_PSP
 0000:66CC       IND_DRVRS
 0000:25A1       INFO
 0000:0066  Abs  INFOSIZE
 0000:25A0       INFO_CTL
 0000:0E92       INFO_READ
 0000:0EBF       INFO_WRITE
 0000:26CE       INIT_PARMS
 0000:4830       INORDER
 0000:4842       INORDER_DBG
 0000:3C5B       INST67
 0000:18EF       INST_CMDLINE
 0000:18B3       INST_DTA
 0000:3CB1       INST_EMS
 0000:1C4D       INST_ENV
 0000:191C       INST_FCBS
 0000:187E       INST_INTS
 0000:1959       INST_NAME
 0000:1971       INST_NAMESUB
 0000:18DC       INST_PSP
 0000:0992       INT22_CLEANUP
 0000:1AC4       INT22_RET
 0000:0E5D       INT23
 0000:0E5E       INT24
 0000:05A3       INT67
 0000:66D4       INT_CNT
 0000:1F53       INT_END
 0000:66D6       INT_MAX
 0000:0103       INT_NPAR
 0000:66D2       INT_OFF
 0000:5BA2       INVALID_FID
 0000:6E52       ISIZES
 0000:33CD       IZITEMS
 0000:55BB       IZITLSEG
 0000:20C6       JMACOLD
 0000:3210       JOIN_MAC
 0000:1061       KEYWAIT
 0000:1FC4       L4EXEC_BLK
 0000:60AC       LASTHI
 0000:60A8       LASTOFF
 0000:60AA       LASTSEG
 0000:6D9D       LAST_AVAIL_N
 0000:6D9B       LAST_AVAIL_S
 0000:1FE8       LC2_FLAG
 0000:1F95       LCL_DTA
 0000:34FB       LCL_FID
 0000:0170       LCL_FLAG
 0000:048A       LCL_PATH
 0000:0488       LCL_PATHARG
 0000:20A8       LENPARA
 0000:047A       LEXEC_BLK
 0000:3A50       LINECNT
 0000:0FAE       LINK_LSEG
 0000:0EE7       LINK_TLSEG
 0000:1991       LOADHI
 0000:2DC5       LOADLOW_XMAX
 0000:2EB5       LOADLOW_XMAX_HIGHEND
 0000:25E3       LOADSEG
 0000:4790       LOADSIZE
 0000:4766       LOADSUB
 0000:34E8       LODPATH_LEN
 0000:34E4       LODPATH_VEC
 0000:471C       LOWERCASE
 0000:1F20       LSEG
 0000:66D7       LSEGFLAG
 0000:0032  Abs  LSEGOFF_IFLAG
 0000:0478       LSEGSEG
 0000:6DD4       LVL
 0000:20AD       MACALG
 0000:20AC       MACLOC
 0000:174C       MAC_FREE
 0000:66CA       MAC_HI
 0000:66C8       MAC_LO
 0000:0DFA       MAC_MERGE
 0000:66B2       MAPENV
 0000:3A94       MAPTAB
 0000:20A6       MAXPARA
 0000:6E46       MAXREG
 0000:6D9F       MERGING
 0000:25F3       MGRINT21_VEC
 0000:6E62       MINIMA
 0000:05C0       MIN_HOLE
 0000:5682       MIN_REGDIFF
 0000:16A8       MODMEM
 0000:25D9       MSC_FLAG
 0000:6700       MSG_AVL
 0000:67E8       MSG_BATCH
 0000:66E8       MSG_BEGDRVRS
 0000:670B       MSG_BLKDD
 0000:6788       MSG_BUFFERS
 0000:6711       MSG_CMDCOM
 0000:671C       MSG_COMSPEC
 0000:248D       MSG_COPY
 0000:66D8       MSG_CR
 0000:0001  Abs  MSG_CRLEN
 0000:2010       MSG_CRLF
 0000:3A6F       MSG_CRSPCR
 0000:60B0       MSG_DDDHDR
 0000:6318       MSG_DDDTAIL
 0000:66D9       MSG_DOS
 0000:66DC       MSG_DRVRS
 0000:66F4       MSG_ENDDRVRS
 0000:34F0       MSG_EXE
 0000:677C       MSG_FCBS
 0000:6770       MSG_FILES
 0000:62C6       MSG_FILL
 0000:5D59       MSG_FORSIZE
 0000:5D6D       MSG_FORSIZE1
 0000:5CD3       MSG_GETSIZE
 0000:5CEC       MSG_GETSIZE1
 0000:6837       MSG_HDR
 0000:67F4       MSG_HPDAREG
 0000:6297       MSG_ICLR
 0000:62E9       MSG_IDSP
 0000:67AC       MSG_IFS_G
 0000:67B8       MSG_IFS_H
 0000:67C4       MSG_IFS_R
 0000:67D0       MSG_IFS_Y
 0000:6B11       MSG_INTS
 0000:63A2       MSG_INTS1
 0000:6794       MSG_LASTDRV
 0000:6AC0       MSG_MAC
 0000:6D49       MSG_MAPTAIL
 0000:6B62       MSG_MIDDLE
 0000:6377       MSG_NAME
 0000:6392       MSG_NDEV
 0000:639A       MSG_NDEV1
 0000:5D73       MSG_NOSIZE
 0000:37F0       MSG_NOT386
 0000:0034  Abs  MSG_NOT386_LEN
 0000:354B       MSG_PATH
 0000:3A52       MSG_PAUSE
 0000:34F6       MSG_QQQ
 0000:6724       MSG_RAMROM
 0000:5D10       MSG_REMPREG0
 0000:5CF2       MSG_REMSIZE
 0000:5D22       MSG_REPSIZE
 0000:5D3A       MSG_REPSIZE1
 0000:5D40       MSG_REQSIZE
 0000:5D53       MSG_REQSIZE1
 0000:6387       MSG_SIZE
 0000:680C       MSG_STACKREG
 0000:67A0       MSG_STACKS
 0000:6734       MSG_SUBSEG
 0000:67DC       MSG_SUBSEG_DOS3
 0000:66A4       MSG_UNKSUB
 0000:636A       MSG_VEC
 0000:6800       MSG_XBDAREG
 0000:36B0       MSG_XINST
 0000:0025  Abs  NCMDARGS
 0000:6E3E       NDEVS
 0000:6E42       NELEM
 0000:1072       NEWLINE
 0000:3A90       NEXTAVL
 0000:6E3C       NINST
 0000:3AC4       NMAPS
 0000:10A0       NOLOAD_PRESS
 0000:34F4       NOPATH
 0000:6E3A       NPROGS
 0000:6DD8       NREGS
 0000:6DDA       NREGSLVL
 0000:6E50       NSUBSEGS
 0000:609C       NULNAME
 0000:5BB0       NUMBERS_HI
 0000:6E22       OLDCURTYP
 0000:25C9       OLDDOS
 0000:1F84       OLDDTA_VEC
 0000:20C0       OLDENDMAC
 0000:1FDC       OLDINT23_VEC
 0000:1FE0       OLDINT24_VEC
 0000:059F       OLDINT67_PATCH
 0000:05BA       OLDINT67_VEC
 0000:2623       ONEPTE
 0000:2C0B       OPEN_FILE
 0000:6DC8       OPTINT8_VEC
 0000:0172       OPT_FLAG
 0000:2590       ORG_PSP
 0000:25CF       P1ST_MAC
 0000:3AC8       PAACNT
 0000:3AC6       PAAOFF
 0000:1578       PAR2BYT
 0000:1F82       PARG_LEN
 0000:1F80       PARG_OFF
 0000:4567       PARSE_FLAGS
 0000:0594       PATCHFLAGS
 0000:2B2E       PATHSEP
 0000:5D8C       PAZS_SUMHEAD
 0000:5FD8       PAZS_SUMLIN
 0000:6046       PAZS_SUMTAIL
 0000:6E7E       PBAPVBIT
 0000:6E80       PBAPVMASK
 0000:6E78       PBAPVORD
 0000:6E48       PBESTREG
 0000:6E88       PBEVR
 0000:1FC0       PBID_MSG
 0000:6E76       PBPRGORD
 0000:6E86       PBPVR
 0000:6E82       PBRAPV
 0000:6E84       PBRFIT
 0000:6E90       PBRPV
 0000:6E7C       PBTOPFIT
 0000:6E8C       PBTPO
 0000:1F76       PFID_NAM
 0000:1F78       PFID_NXT
 0000:1F74       PFID_OFF
 0000:1F7A       PFID_ROOM
 0000:60A4       PFILE_HNDL
 0000:6EB0       PIDENT
 0000:6E4A       PLASTREG
 0000:0476       PLCLSTK
 0000:1E9D       PLUG_MAC
 0000:6E4C       PMAXREG
 0000:25C5       PORT67
 0000:25DB       POVR_MAC
 0000:6E8E       PQREXP
 0000:5BA0       PREVMAC
 0000:09A6       PREV_INT22
 0000:200F       PRGREG
 0000:20A2       PRGSIZE
 0000:1F72       PRG_NPAR
 0000:2013       PROT_NAME
 0000:0006       PSP_BYTES_INSEG
 0000:0016       PSP_CTRL_PSP
 0000:0080       PSP_DTA
 0000:002C       PSP_ENVIR_PTR
 0000:005C       PSP_FCB1
 0000:006C       PSP_FCB2
 0000:0034       PSP_FILE_TAB_PTR
 0000:0032       PSP_FILE_TAB_SIZ
 0000:002E       PSP_LCL_STACK
 0000:0080       PSP_PARM_COUNT
 0000:0081       PSP_PARM_STRING
 0000:0002       PSP_STOR_MAX
 0000:000A       PSP_TERMINATE
 0000:6E4E       PSUBSEG_TAB
 0000:6E34       PSUMFIT_TAB
 0000:66CE       PTR_DRVRS
 0000:6E8A       PWREG
 0000:25AB       QMAX_OWNR
 0000:6DCE       RAPVCNT
 0000:4389       READCFG
 0000:6E0C       REGDIF
 0000:6E1C       REGDIF_CNT
 0000:6E1E       REGDIF_IND
 0000:6DFC       REGEMS
 0000:6DEC       REGSPAN
 0000:6DDC       REGTAB
 0000:4022       RELO_MEM
 0000:4854       REORDER
 0000:4866       REORDER_DBG
 0000:6E40       REORD_FLAG
 0000:4885       REOSUM
 0000:5CA6       REOSUM_FLAG
 0000:1157       REROUTE_I67
 0000:20AA       RESPARA
 0000:10C2       REST67
 0000:0E75       REST_2324
 0000:3DD6       REST_EMS
 0000:5B4C       REST_SUMFIT
 0000:3F91       SAVE_2324
 0000:59B4       SAVE_SUMFIT
 0000:0C72       SEARCH_MODEL
 0000:1106       SET_EES
 0000:3403       SET_MAPTAB
 0000:3F4E       SKIP_FID
 0000:0DEF       SKIP_WHITE
 0000:1DFF       SPLIT_MAC
 0000:0590       START_DATZ
 0000:20BE       STD_ERR
 0000:20B4       STD_FILES
 0000:209E       STKSIZE
 0000:4353       STRNICMP
 0000:33A4       STROUT
 0000:4A49       SUMFIT_CLR
 0000:6E38       SUMFIT_NUM
 0000:6E36       SUMFIT_OFF
 0000:4878       SUMMARY
 0000:6E7A       TEMPOFF
 0000:0176       TEMPSTK
 0000:0476       TEMPSTKZ
 0000:6818       TEXT_SUBSEG_DOS3
 0000:209A       TOPFILL
 0000:0CEA       TOPFILL_CHECK
 0000:5CA0       TOPSIZE
 0000:3ACA       TOTEMS
 0000:6E20       TOTREG
 0000:5CA2       TOTREGB
 0000:6DD0       TPOCNT
 0000:58EE       TRIALFIT
 0000:5752       TRIALSUB
 0000:2D33       TSRCOM
 0000:09AA       TSRCOM_SUB
 0000:2640       TSRLOAD
 0000:5CAD       TXT_ERR
 0000:5CBC       TXT_NO
 0000:5CA8       TXT_NOEMS
 0000:5CB2       TXT_REQ
 0000:5CB7       TXT_YES
 0000:201C       UMBSEGS
 0000:0F41       UNLINK_TLSEG
 0000:1EDE       UNPLUG_MAC
 0000:1157       UNROUTE_I67
 0000:3010       UPPERCASE_STR
 0000:6E24       UREGDIF
 0000:34EA       UTL_FLAG
 0000:0323  Abs  VER
 0000:0008  Abs  VERH
 0000:0003  Abs  VERL
 0000:0020  Abs  VERSLTR1
 0000:00CD  Abs  VERSLTR2
 0000:0038  Abs  VERS_H
 0000:0803  Abs  VERS_HTU
 0000:0030  Abs  VERS_T
 0000:0033  Abs  VERS_U
 0000:3F43       WAITFF
 0000:0141       WINOUT
 0000:0105       WINOUT_INIT
 0000:0164       WINRUN
 0000:0160       WINVXD_VEC
 0000:1FEE       XDOSVER
 0000:6DC4       XMSDRV_VEC
 0000:6EB4       ZTAIL

  Address         Publics by Value

 0000:0001  Abs  MSG_CRLEN
 0000:0002       PSP_STOR_MAX
 0000:0003  Abs  VERL
 0000:0003  Abs  BINVERS_TU
 0000:0004  Abs  @CFG_DRVSPC
 0000:0006       PSP_BYTES_INSEG
 0000:0008  Abs  BINVERS_H
 0000:0008  Abs  VERH
 0000:0008  Abs  @CFG_CLOSEHI
 0000:000A       PSP_TERMINATE
 0000:0010  Abs  @CFG_CLOSELOW
 0000:0016       PSP_CTRL_PSP
 0000:0020  Abs  VERSLTR1
 0000:0022  Abs  @DCBYTE
 0000:0025  Abs  NCMDARGS
 0000:002C       PSP_ENVIR_PTR
 0000:002E       PSP_LCL_STACK
 0000:0030  Abs  BETA_H
 0000:0030  Abs  BETA_T
 0000:0030  Abs  VERS_T
 0000:0032       PSP_FILE_TAB_SIZ
 0000:0032  Abs  LSEGOFF_IFLAG
 0000:0033  Abs  @INT_SIZE
 0000:0033  Abs  VERS_U
 0000:0034  Abs  MSG_NOT386_LEN
 0000:0034  Abs  BETA_U
 0000:0034       PSP_FILE_TAB_PTR
 0000:0038  Abs  VERS_H
 0000:0040  Abs  @CFG_PROTMAN
 0000:005C       PSP_FCB1
 0000:0066  Abs  INFOSIZE
 0000:006C       PSP_FCB2
 0000:0080       PSP_PARM_COUNT
 0000:0080       PSP_DTA
 0000:0081       PSP_PARM_STRING
 0000:00CD  Abs  VERSLTR2
 0000:0103       INT_NPAR
 0000:0105       WINOUT_INIT
 0000:0127  Abs  HELP_LEN
 0000:0141       WINOUT
 0000:015E  Abs  IDENTIFY_LEN
 0000:0160       WINVXD_VEC
 0000:0164       WINRUN
 0000:0170       LCL_FLAG
 0000:0172       OPT_FLAG
 0000:0174       CURPSP
 0000:0176       TEMPSTK
 0000:0323  Abs  VER
 0000:0476       PLCLSTK
 0000:0476       TEMPSTKZ
 0000:0478       LSEGSEG
 0000:047A       LEXEC_BLK
 0000:0488       LCL_PATHARG
 0000:048A       LCL_PATH
 0000:0589       DMAC
 0000:0590       EXEC_PSP
 0000:0590       START_DATZ
 0000:0592       CFGFLAGS
 0000:0594       PATCHFLAGS
 0000:0596       EMMDEV
 0000:059F       OLDINT67_PATCH
 0000:05A3       INT67
 0000:05BA       OLDINT67_VEC
 0000:05C0       MIN_HOLE
 0000:05C2       HSIZE_DELTA
 0000:05C4       GETSIZE_RDELTA
 0000:05C6       GETSIZE_IDELTA
 0000:05D0       FIX_FILEHEAD
 0000:0620       FIND_MEM
 0000:0803  Abs  VERS_HTU
 0000:0965       EMU_GETMEM
 0000:0992       INT22_CLEANUP
 0000:09A6       PREV_INT22
 0000:09AA       TSRCOM_SUB
 0000:0AF1       FREE_MACS
 0000:0B1B       EXEC_FREE
 0000:0B37       DISP_ASCIIZ
 0000:0B69       FCN_DISPLAY
 0000:0BD3       DISP_ERRMSG
 0000:0C0F       DISP_COPY
 0000:0C3F       ACT_HELP
 0000:0C5C       CALC_ENV_NPAR
 0000:0C72       SEARCH_MODEL
 0000:0CAE       CHECK_PATCH
 0000:0CEA       TOPFILL_CHECK
 0000:0DEF       SKIP_WHITE
 0000:0DFA       MAC_MERGE
 0000:0E5D       INT23
 0000:0E5E       INT24
 0000:0E75       REST_2324
 0000:0E92       INFO_READ
 0000:0EBF       INFO_WRITE
 0000:0EE7       LINK_TLSEG
 0000:0F41       UNLINK_TLSEG
 0000:0FAE       LINK_LSEG
 0000:1000  Abs  @CFG_GSIZE
 0000:1061       KEYWAIT
 0000:1072       NEWLINE
 0000:10A0       NOLOAD_PRESS
 0000:10C2       REST67
 0000:1106       SET_EES
 0000:1157       REROUTE_I67
 0000:1157       UNROUTE_I67
 0000:1175       CHECK_EMSPTE
 0000:11D9       CLEAR_EMSPTE
 0000:125C       FIND_REGION
 0000:12AD       GETMEM_REG
 0000:12E4       FIND_PAT
 0000:1344       FIND_MIS
 0000:1377       GETSIZE
 0000:1516       FILL_MEM
 0000:1578       PAR2BYT
 0000:1587       BYT2PAR
 0000:1597       FIND_OWNER
 0000:15D4       GETMEM
 0000:15EC       GETMEM_SRCH
 0000:166D       GETMEM_SUB
 0000:16A8       MODMEM
 0000:174C       MAC_FREE
 0000:177C       BUILD_PSP
 0000:187E       INST_INTS
 0000:18B3       INST_DTA
 0000:18DC       INST_PSP
 0000:18EF       INST_CMDLINE
 0000:191C       INST_FCBS
 0000:1959       INST_NAME
 0000:1971       INST_NAMESUB
 0000:1991       LOADHI
 0000:1AC4       INT22_RET
 0000:1C4D       INST_ENV
 0000:1C8D       CLEANUP
 0000:1D37       ENVFREE
 0000:1D6C       ENVNAME
 0000:1DFF       SPLIT_MAC
 0000:1E9D       PLUG_MAC
 0000:1EDE       UNPLUG_MAC
 0000:1F20       LSEG
 0000:1F53       INT_END
 0000:1F60       EXEC_LOD
 0000:1F60       EXEC_BLK
 0000:1F62       EXEC_REL
 0000:1F64       EXEC_ENVMAC
 0000:1F66       EXEC_INTMAC
 0000:1F68       EXEC_TOP
 0000:1F6A       ENV_HEAD
 0000:1F6C       ENV_TAIL
 0000:1F6E       ENV_SIZE
 0000:1F70       ENV_NPAR
 0000:1F72       PRG_NPAR
 0000:1F74       PFID_OFF
 0000:1F76       PFID_NAM
 0000:1F78       PFID_NXT
 0000:1F7A       PFID_ROOM
 0000:1F7E       GSIZE_NPAR
 0000:1F80       PARG_OFF
 0000:1F82       PARG_LEN
 0000:1F84       OLDDTA_VEC
 0000:1F88       END_RET
 0000:1F89       AZS_386LOAD
 0000:1F92       AZS_CRLF
 0000:1F95       LCL_DTA
 0000:1FC0       PBID_MSG
 0000:1FC2       ID_LEN
 0000:1FC4       L4EXEC_BLK
 0000:1FDC       OLDINT23_VEC
 0000:1FE0       OLDINT24_VEC
 0000:1FE4       EXEC_LODLO
 0000:1FE6       EXE_NPAR
 0000:1FE8       LC2_FLAG
 0000:1FEA       CON10
 0000:1FEC       DOSVER
 0000:1FEE       XDOSVER
 0000:1FF0       DEV_HNDL
 0000:1FF2       EMS_HNDL
 0000:1FF4       EES
 0000:2000  Abs  @CFG_TOPF
 0000:2006       BASNAME
 0000:200F       PRGREG
 0000:2010       MSG_CRLF
 0000:2013       PROT_NAME
 0000:201C       UMBSEGS
 0000:2040  Abs  @CFG_PTOPF
 0000:206C       F0MOD
 0000:2071       F0MOD_OFF1
 0000:2075       F0MOD_OFF2
 0000:2079       F0MOD_JC
 0000:207C       FILE_HEAD
 0000:2098       EXEC_PRGMAC
 0000:209A       TOPFILL
 0000:209C       EXEC_PRGNPAR
 0000:209E       STKSIZE
 0000:20A2       PRGSIZE
 0000:20A6       MAXPARA
 0000:20A8       LENPARA
 0000:20AA       RESPARA
 0000:20AC       MACLOC
 0000:20AD       MACALG
 0000:20B0       END_VEC
 0000:20B4       STD_FILES
 0000:20BE       STD_ERR
 0000:20C0       OLDENDMAC
 0000:20C2       CURSTK_OFF
 0000:20C4       DRV_FCB1
 0000:20C5       DRV_FCB2
 0000:20C6       JMACOLD
 0000:20D8       AZS_XRES
 0000:210C       AZS_UGHMAC
 0000:2190       HELP_TEXT
 0000:22B8       AZS_ERRMAC
 0000:22DE       AZS_LOADLO
 0000:2310       AZS_NOLOAD
 0000:2335       AZS_XHILOAD
 0000:23DB       AZS_SIZELO
 0000:2424       AZS_PRESS
 0000:2445       AZS_XMAXLOW
 0000:2465       AZS_WINERR
 0000:248D       MSG_COPY
 0000:2510       AZS_XVER
 0000:2551       AZS_NOTPRES
 0000:2590       ORG_PSP
 0000:25A0       INFO_CTL
 0000:25A1       INFO
 0000:25A1       BAS_SIGN
 0000:25A7       BAS_VER
 0000:25AB       QMAX_OWNR
 0000:25C5       PORT67
 0000:25C9       OLDDOS
 0000:25CF       P1ST_MAC
 0000:25D9       MSC_FLAG
 0000:25DB       POVR_MAC
 0000:25DD       CMD_FLAG
 0000:25DF       CM2_FLAG
 0000:25E3       LOADSEG
 0000:25F3       MGRINT21_VEC
 0000:25F7       CURINT67_VEC
 0000:2603       EMMSIZE
 0000:2621       FRAMESEG
 0000:2623       ONEPTE
 0000:2630       GTAIL
 0000:2640       TSRLOAD
 0000:2652       CHECK_CPUID
 0000:2682       BASE2BIN
 0000:26CE       INIT_PARMS
 0000:2722       CMDCHK_VER
 0000:272F       CMDCHK_DISPLAY
 0000:2738       CMDCHK_ENVNAME
 0000:2740       CMDCHK_ENVREG
 0000:2747       CMDCHK_GETSIZE
 0000:274C       CMDCHK_GROUP
 0000:2753       CMDCHK_INT
 0000:2758       CMDCHK_MAPDEV
 0000:2774       CMDCHK_MAPMEM
 0000:2790       CMDCHK_ENVSAVE
 0000:27A1       CMDCHK_NORETRY
 0000:27A9       CMDCHK_NOPAUSE
 0000:27AF       CMDCHK_PRGREG
 0000:27BA       CMDCHK_PSP
 0000:27C5       CMDCHK_QUIET
 0000:27CB       CMDCHK_SUMMARY
 0000:27E2       CMDCHK_INORDER
 0000:27F9       CMDCHK_INORDBG
 0000:280D       CMDCHK_REORDER
 0000:2821       CMDCHK_REORDBG
 0000:2835       CMDCHK_FLEXFRAME
 0000:283B       CMDCHK_SIZE
 0000:2843       CMDCHK_VDS
 0000:284B       CMDCHK_HELP
 0000:2856       CMDCHK_TERSE
 0000:285E       CMDCHK_VERBOSE
 0000:2864       CMDCHK_PROG
 0000:28B1       FIND_FILE
 0000:2A96       FIND_PATH
 0000:2B2E       PATHSEP
 0000:2B48       FCN_ENVREG
 0000:2B75       FCN_PSP
 0000:2B98       FCN_PROG
 0000:2C0B       OPEN_FILE
 0000:2CAD       CHECK_INFO
 0000:2D33       TSRCOM
 0000:2DC5       LOADLOW_XMAX
 0000:2EB5       LOADLOW_XMAX_HIGHEND
 0000:2FC0       CALC_ENV
 0000:3010       UPPERCASE_STR
 0000:3026       GETSIZE_UMB
 0000:310D       FIND_BASE
 0000:3210       JOIN_MAC
 0000:32FF       ACT_MAP
 0000:3350       CHECK_LINE
 0000:33A4       STROUT
 0000:33CD       IZITEMS
 0000:3403       SET_MAPTAB
 0000:34E0       ENVPATH_VEC
 0000:34E4       LODPATH_VEC
 0000:34E8       LODPATH_LEN
 0000:34EA       UTL_FLAG
 0000:34EC       EXEFILE_OFF
 0000:34EE       EXEFILE_LEN
 0000:34F0       MSG_EXE
 0000:34F4       NOPATH
 0000:34F5       CURDRV
 0000:34F6       MSG_QQQ
 0000:34FB       LCL_FID
 0000:354B       MSG_PATH
 0000:3550       IDENTIFY
 0000:36AE       IDENT_CHK
 0000:36B0       MSG_XINST
 0000:36E0       AZS_ARGS
 0000:37D4       AZS_XENV
 0000:37F0       MSG_NOT386
 0000:3824       AZS_LOWFAIL
 0000:3833  Abs  @GSIZE_PAT1
 0000:385C       AZS_XDOS
 0000:3897       AZS_XLOW
 0000:38D4       AZS_XHI
 0000:38EF       AZS_NOROOM
 0000:3923       AZS_ERRMEM
 0000:3952       AZS_EXEC
 0000:3952       AZS_FILE
 0000:397E       AZS_UGHEMS
 0000:39BE       AZS_UGHROOM
 0000:39FE       AZS_UGHCHG
 0000:3A20       AZS_UGHCHG1
 0000:3A2E       AZS_UGHCHG2
 0000:3A50       LINECNT
 0000:3A52       MSG_PAUSE
 0000:3A6F       MSG_CRSPCR
 0000:3A90       NEXTAVL
 0000:3A94       MAPTAB
 0000:3AC4       NMAPS
 0000:3AC6       PAAOFF
 0000:3AC8       PAACNT
 0000:3ACA       TOTEMS
 0000:3ACC       CMDARG_LEN
 0000:3B16       CMDARG_TAB
 0000:3B60       CMDARG_ACT
 0000:3C5B       INST67
 0000:3CB1       INST_EMS
 0000:3DD6       REST_EMS
 0000:3F06       FMT_CHG
 0000:3F43       WAITFF
 0000:3F4E       SKIP_FID
 0000:3F91       SAVE_2324
 0000:3FC8       CHECK_MEM
 0000:4022       RELO_MEM
 0000:409C       COMP_MEM
 0000:40EC       COPY_MEM
 0000:4136       CLEAR_MEM
 0000:4171       DB2HEX
 0000:417A       DW2HEX
 0000:4183       BIN2HEX_SUB
 0000:41A9       FCN_FLEXFRAME
 0000:41CA       FORCE_GETSIZE
 0000:41D2       FCN_GETSIZE
 0000:4206       FCN_GROUP
 0000:4231       FCN_INT
 0000:423A       FCN_NOPAUSE
 0000:4243       FCN_PRGREG
 0000:4274       FCN_QUIET
 0000:427D       FCN_SIZE
 0000:42E9       FCN_VDS
 0000:42F1       CHECK_SETVER
 0000:4353       STRNICMP
 0000:4377       GETPARAS
 0000:4389       READCFG
 0000:450C       GETLINE
 0000:4567       PARSE_FLAGS
 0000:465C       CHECK_NAME
 0000:4694       CHECK_DATE
 0000:471C       LOWERCASE
 0000:4727       DEC2BIN
 0000:4766       LOADSUB
 0000:4790       LOADSIZE
 0000:4830       INORDER
 0000:4842       INORDER_DBG
 0000:4854       REORDER
 0000:4866       REORDER_DBG
 0000:4878       SUMMARY
 0000:4885       REOSUM
 0000:48A4       FMT_SUMFIT
 0000:4A1E       CHECK_FLEX
 0000:4A49       SUMFIT_CLR
 0000:4A67       DISP_ASCIIZMUL
 0000:4A7C       ACT_DDD
 0000:4C72       ACT_DDD_DISPSIZ
 0000:4C9D       ACT_DDD_GET_HI_SIZ
 0000:4CBF       FINDINTS
 0000:4D36  Abs  @GSIZE_PAT2
 0000:4D3C       DISP_DDDINTS
 0000:4D92       BIN2HEX
 0000:4DC3       ACT_MAPCMD
 0000:4E40       ACT_MAPWIPE
 0000:4E58       ACT_MAPDOS
 0000:4F0F       ACT_MAPSUB
 0000:4F3D       DISP_MAC
 0000:5365       DISP_MAC_MSG
 0000:53E3       DISP_MAC_EXIT
 0000:53EC       CLEAR_OWNR
 0000:53FB       CLEAR_TEXT
 0000:5411       DISP_INTS
 0000:5436       DISP_INTS_LINE
 0000:54D6       DISP_TEXT
 0000:551C       CLEAR_NAME
 0000:5532       CONV_NUM
 0000:557F       DW2HEX_DS
 0000:5587       HEX2BIN
 0000:55BB       IZITLSEG
 0000:55D9       CHECK_ORPHAN
 0000:5603       DD2DEC
 0000:566E       DD2DEC_DIG
 0000:5682       MIN_REGDIFF
 0000:56BF       CHKMEM_ANY
 0000:5710       CHKMEM_REG
 0000:5752       TRIALSUB
 0000:58EE       TRIALFIT
 0000:58F4       CALCREG
 0000:59B4       SAVE_SUMFIT
 0000:5B4C       REST_SUMFIT
 0000:5B55       CALC_REGDIF
 0000:5BA0       PREVMAC
 0000:5BA2       INVALID_FID
 0000:5BAF       ALTPATHSEP
 0000:5BB0       NUMBERS_HI
 0000:5BC0       CFGFILE
 0000:5BCC       CFGPATH
 0000:5BCC       CFGLINE
 0000:5C1C       EMSSAVE
 0000:5C9C       COMPSIZE
 0000:5CA0       TOPSIZE
 0000:5CA2       TOTREGB
 0000:5CA6       REOSUM_FLAG
 0000:5CA7       DBG_FLAG
 0000:5CA8       TXT_NOEMS
 0000:5CAD       TXT_ERR
 0000:5CB2       TXT_REQ
 0000:5CB7       TXT_YES
 0000:5CBC       TXT_NO
 0000:5CC1       AZS_NOFIT1
 0000:5CCA       AZS_NOFIT2
 0000:5CD3       MSG_GETSIZE
 0000:5CEC       MSG_GETSIZE1
 0000:5CF2       MSG_REMSIZE
 0000:5D10       MSG_REMPREG0
 0000:5D22       MSG_REPSIZE
 0000:5D3A       MSG_REPSIZE1
 0000:5D40       MSG_REQSIZE
 0000:5D53       MSG_REQSIZE1
 0000:5D59       MSG_FORSIZE
 0000:5D6D       MSG_FORSIZE1
 0000:5D73       MSG_NOSIZE
 0000:5D8C       PAZS_SUMHEAD
 0000:5D9A       AZS_SUMHEAD1
 0000:5DEC       AZS_SUMHEAD2
 0000:5E3E       AZS_SUMHEAD3
 0000:5E90       AZS_SUMHEAD4
 0000:5EE2       AZS_SUMHEAD5
 0000:5F34       AZS_SUMHEAD6
 0000:5F86       AZS_SUMHEAD7
 0000:5FD8       PAZS_SUMLIN
 0000:5FF4       AZS_SUMLIN
 0000:6046       PAZS_SUMTAIL
 0000:6048       AZS_SUMTAIL1
 0000:609C       NULNAME
 0000:60A4       PFILE_HNDL
 0000:60A8       LASTOFF
 0000:60AA       LASTSEG
 0000:60AC       LASTHI
 0000:60AE       HIGHSEG
 0000:60B0       MSG_DDDHDR
 0000:6297       MSG_ICLR
 0000:62C6       MSG_FILL
 0000:62E9       MSG_IDSP
 0000:6318       MSG_DDDTAIL
 0000:636A       MSG_VEC
 0000:6377       MSG_NAME
 0000:6387       MSG_SIZE
 0000:6392       MSG_NDEV
 0000:639A       MSG_NDEV1
 0000:63A0       CNT_INTS
 0000:63A2       MSG_INTS1
 0000:66A4       MSG_UNKSUB
 0000:66B0       IGN_PSP
 0000:66B2       MAPENV
 0000:66B4       CURMAC
 0000:66B6       CUROWNR
 0000:66B8       CURNPAR
 0000:66BA       CURTYPE
 0000:66BB       CURMDRV
 0000:66BC       CURENV
 0000:66BE       CURDEV_VEC
 0000:66C2       CMDCOM_VEC
 0000:66C6       CMDCOM_LEN
 0000:66C8       MAC_LO
 0000:66CA       MAC_HI
 0000:66CC       IND_DRVRS
 0000:66CE       PTR_DRVRS
 0000:66D2       INT_OFF
 0000:66D4       INT_CNT
 0000:66D6       INT_MAX
 0000:66D7       LSEGFLAG
 0000:66D8       MSG_CR
 0000:66D9       MSG_DOS
 0000:66DC       MSG_DRVRS
 0000:66E8       MSG_BEGDRVRS
 0000:66F4       MSG_ENDDRVRS
 0000:6700       MSG_AVL
 0000:670B       MSG_BLKDD
 0000:6711       MSG_CMDCOM
 0000:671C       MSG_COMSPEC
 0000:6724       MSG_RAMROM
 0000:6734       MSG_SUBSEG
 0000:6770       MSG_FILES
 0000:677C       MSG_FCBS
 0000:6788       MSG_BUFFERS
 0000:6794       MSG_LASTDRV
 0000:67A0       MSG_STACKS
 0000:67AC       MSG_IFS_G
 0000:67B8       MSG_IFS_H
 0000:67C4       MSG_IFS_R
 0000:67D0       MSG_IFS_Y
 0000:67DC       MSG_SUBSEG_DOS3
 0000:67E8       MSG_BATCH
 0000:67F4       MSG_HPDAREG
 0000:6800       MSG_XBDAREG
 0000:680C       MSG_STACKREG
 0000:6818       TEXT_SUBSEG_DOS3
 0000:6837       MSG_HDR
 0000:6AC0       MSG_MAC
 0000:6B11       MSG_INTS
 0000:6B62       MSG_MIDDLE
 0000:6D49       MSG_MAPTAIL
 0000:6D9B       LAST_AVAIL_S
 0000:6D9D       LAST_AVAIL_N
 0000:6D9F       MERGING
 0000:6DA1       HEXTAB
 0000:6DC4       XMSDRV_VEC
 0000:6DC8       OPTINT8_VEC
 0000:6DCC       APV_PTR
 0000:6DCE       RAPVCNT
 0000:6DD0       TPOCNT
 0000:6DD2       FITRES
 0000:6DD4       LVL
 0000:6DD6       CURSEG
 0000:6DD8       NREGS
 0000:6DDA       NREGSLVL
 0000:6DDC       REGTAB
 0000:6DEC       REGSPAN
 0000:6DFC       REGEMS
 0000:6E0C       REGDIF
 0000:6E1C       REGDIF_CNT
 0000:6E1E       REGDIF_IND
 0000:6E20       TOTREG
 0000:6E22       OLDCURTYP
 0000:6E24       UREGDIF
 0000:6E34       PSUMFIT_TAB
 0000:6E36       SUMFIT_OFF
 0000:6E38       SUMFIT_NUM
 0000:6E3A       NPROGS
 0000:6E3C       NINST
 0000:6E3E       NDEVS
 0000:6E40       REORD_FLAG
 0000:6E42       NELEM
 0000:6E44       BESTREG
 0000:6E46       MAXREG
 0000:6E48       PBESTREG
 0000:6E4A       PLASTREG
 0000:6E4C       PMAXREG
 0000:6E4E       PSUBSEG_TAB
 0000:6E50       NSUBSEGS
 0000:6E52       ISIZES
 0000:6E62       MINIMA
 0000:6E72       DLGSIZE
 0000:6E74       DLGREG
 0000:6E76       PBPRGORD
 0000:6E78       PBAPVORD
 0000:6E7A       TEMPOFF
 0000:6E7C       PBTOPFIT
 0000:6E7E       PBAPVBIT
 0000:6E80       PBAPVMASK
 0000:6E82       PBRAPV
 0000:6E84       PBRFIT
 0000:6E86       PBPVR
 0000:6E88       PBEVR
 0000:6E8A       PWREG
 0000:6E8C       PBTPO
 0000:6E8E       PQREXP
 0000:6E90       PBRPV
 0000:6E92       BESTSIZE
 0000:6EB0       PIDENT
 0000:6EB4       ZTAIL

Line numbers for RET\TSRLOAD.OBJ(.\TSRLOAD.asm) segment CODE

   149 0000:0100

Line numbers for RET\TSRLOAD.OBJ(.\TSRLOAD.asm) segment ACODE

   169 0264:0000   174 0264:0004   175 0264:0007   177 0264:000c
   178 0264:000e   198 0264:0012   200 0264:0016   201 0264:0017
   203 0264:0018   204 0264:001a   208 0264:001c   210 0264:001d
   212 0264:0020   213 0264:0021   215 0264:0022   216 0264:0023
   218 0264:0024   220 0264:0025   221 0264:0028   222 0264:0029
   224 0264:002b   226 0264:002e   227 0264:0031   228 0264:0034
   230 0264:003c   232 0264:003d   234 0264:0041

Program entry point at 0000:0100

Line numbers for RET\TSRCOM.OBJ(.\TSRCOM.asm) segment ACODE

   545 0264:0042   547 0264:0046   548 0264:0049   550 0264:004a
   552 0264:004c   553 0264:004d   556 0264:004e   557 0264:0050
   558 0264:0052   560 0264:0054   561 0264:0058   562 0264:0059
   563 0264:005b   564 0264:005c   566 0264:005e   567 0264:0062
   569 0264:0064   570 0264:0066   574 0264:0068   575 0264:0069
   577 0264:006b   578 0264:006d   580 0264:006f   581 0264:0072
   583 0264:0074   584 0264:0077   586 0264:0079   587 0264:007b
   588 0264:007d   590 0264:007f   592 0264:0080   596 0264:0082
   598 0264:0083   601 0264:0085   602 0264:0086   604 0264:0088
   606 0264:0089   609 0264:008d   617 0264:008e   619 0264:0094
   627 0264:0095   629 0264:0099   631 0264:009c   632 0264:009f
   636 0264:00a4   637 0264:00a6   639 0264:00a9   641 0264:00ad
   642 0264:00af   644 0264:00b3   645 0264:00b4   647 0264:00b6
   649 0264:00b7   650 0264:00bb   653 0264:00bd   655 0264:00be
   656 0264:00c0   658 0264:00c2   659 0264:00c4   661 0264:00c6
   662 0264:00c8   664 0264:00ca   665 0264:00cc   667 0264:00ce
   668 0264:00d0   671 0264:00d2   673 0264:00d5   678 0264:00d7
   681 0264:00da   683 0264:00de   688 0264:00e2   690 0264:00e7
   691 0264:00ea   693 0264:00ec   698 0264:00ef   699 0264:00f2
   700 0264:00f3   702 0264:00f6   707 0264:00f8   709 0264:00fe
   714 0264:0100   715 0264:0103   717 0264:0105   722 0264:0107
   724 0264:010a   729 0264:010c   730 0264:010f   732 0264:0111
   737 0264:0113   739 0264:0116   744 0264:0118   746 0264:011e
   747 0264:0124   749 0264:0129   750 0264:012c   752 0264:012e
   754 0264:0131   759 0264:0134   761 0264:013a   762 0264:0140
   764 0264:0145   765 0264:0148   767 0264:014a   769 0264:014d
   779 0264:0150   780 0264:0156   783 0264:0158   785 0264:015e
   790 0264:0161   792 0264:0166   798 0264:0169   800 0264:016c
   812 0264:016f   813 0264:0172   815 0264:0177   820 0264:017a
   821 0264:017d   823 0264:0182   828 0264:0185   830 0264:0188
   835 0264:018b   837 0264:0191   838 0264:0197   840 0264:019c
   842 0264:019f   847 0264:01a2   849 0264:01a8   850 0264:01ae
   852 0264:01b3   854 0264:01b6   859 0264:01b9   861 0264:01bf
   862 0264:01c5   864 0264:01c7   866 0264:01ca   871 0264:01cd
   873 0264:01d3   874 0264:01d9   876 0264:01db   878 0264:01de
   883 0264:01e1   885 0264:01e7   886 0264:01ed   888 0264:01ef
   890 0264:01f2   896 0264:01f5   898 0264:01f8   904 0264:01fb
   905 0264:01fe   907 0264:0200   912 0264:0203   913 0264:0206
   915 0264:0208   920 0264:020b   921 0264:0210   922 0264:0213
   926 0264:0216   928 0264:021b   932 0264:021e   934 0264:0221
   938 0264:0224   939 0264:0227   947 0264:0229   948 0264:022f
   950 0264:0231   951 0264:0237   953 0264:0239   954 0264:023f
   955 0264:0241   958 0264:0243   959 0264:0247   962 0264:024a
   964 0264:024e   965 0264:024f   966 0264:0252   968 0264:0255
   970 0264:0256   973 0264:0258   974 0264:025e   976 0264:0260
   978 0264:0266   980 0264:0269   982 0264:026a   984 0264:0270
  1004 0264:0271  1008 0264:0277  1010 0264:0278  1013 0264:027c
  1014 0264:0280  1016 0264:0284  1019 0264:0285  1023 0264:028d
  1024 0264:0291  1026 0264:0295  1027 0264:0299  1029 0264:029b
  1030 0264:029f  1032 0264:02a1  1035 0264:02a3  1036 0264:02a4
  1038 0264:02a5  1039 0264:02a7  1041 0264:02a9  1042 0264:02aa
  1044 0264:02ad  1045 0264:02af  1047 0264:02b0  1048 0264:02b3
  1050 0264:02b5  1052 0264:02b8  1053 0264:02ba  1055 0264:02bc
  1056 0264:02be  1058 0264:02bf  1059 0264:02c3  1061 0264:02c6
  1062 0264:02c8  1063 0264:02cc  1064 0264:02ce  1068 0264:02d3
  1069 0264:02d5  1070 0264:02d8  1072 0264:02da  1076 0264:02db
  1078 0264:02de  1079 0264:02e2  1080 0264:02e4  1081 0264:02e6
  1084 0264:02ea  1088 0264:02ed  1090 0264:02f0  1095 0264:02f2
  1098 0264:02f6  1100 0264:02f9  1101 0264:02fc  1103 0264:0301
  1104 0264:0305  1106 0264:0307  1107 0264:030a  1109 0264:030c
  1110 0264:0310  1111 0264:0314  1113 0264:0315  1115 0264:0316
  1116 0264:0318  1118 0264:031a  1119 0264:031c  1121 0264:031e
  1123 0264:031f  1126 0264:0321  1128 0264:0322  1130 0264:0327
  1131 0264:0328  1138 0264:0329  1140 0264:032c  1141 0264:0330
  1142 0264:0334  1144 0264:0336  1145 0264:0338  1146 0264:033a
  1150 0264:033e  1151 0264:0344  1153 0264:0346  1154 0264:034a
  1155 0264:034d  1160 0264:034f  1161 0264:0352  1162 0264:035a
  1166 0264:035c  1167 0264:0362  1172 0264:0364  1173 0264:0368
  1174 0264:036a  1175 0264:036d  1176 0264:036f  1177 0264:0371
  1178 0264:0372  1180 0264:0375  1181 0264:037a  1183 0264:037c
  1184 0264:0382  1186 0264:0384  1187 0264:0389  1189 0264:038b
  1190 0264:0391  1192 0264:0393  1193 0264:0399  1194 0264:039d
  1196 0264:03a1  1197 0264:03a5  1199 0264:03a7  1200 0264:03ad
  1202 0264:03b2  1203 0264:03b6  1204 0264:03ba  1205 0264:03bd
  1207 0264:03bf  1209 0264:03c3  1212 0264:03c5  1213 0264:03c9
  1214 0264:03cb  1215 0264:03ce  1217 0264:03d0  1220 0264:03d2
  1221 0264:03d4  1222 0264:03d8  1224 0264:03da  1225 0264:03de
  1227 0264:03e2  1228 0264:03e6  1232 0264:03ea  1233 0264:03ee
  1237 0264:03f1  1238 0264:03f2  1240 0264:03f5  1241 0264:03f9
  1242 0264:03fd  1243 0264:0401  1244 0264:0402  1250 0264:0405
  1251 0264:0409  1252 0264:040a  1253 0264:040c  1254 0264:040f
  1255 0264:0411  1256 0264:0412  1257 0264:0414  1259 0264:0416
  1261 0264:0417  1263 0264:0419  1265 0264:041b  1267 0264:041d
  1268 0264:041f  1269 0264:0421  1270 0264:0423  1272 0264:0425
  1274 0264:0427  1275 0264:0429  1276 0264:042b  1280 0264:042d
  1281 0264:042f  1283 0264:0431  1286 0264:0433  1287 0264:0435
  1288 0264:0437  1289 0264:043b  1291 0264:043d  1293 0264:043e
  1296 0264:0440  1297 0264:0441  1300 0264:0442  1302 0264:0443
  1304 0264:0444  1306 0264:0445  1308 0264:0449  1310 0264:044d
  1312 0264:044e  1314 0264:044f  1316 0264:0455  1329 0264:0456
  1334 0264:045b  1335 0264:045f  1337 0264:0461  1339 0264:0463
  1341 0264:0465  1342 0264:0469  1344 0264:046d  1345 0264:0471
  1347 0264:0473  1349 0264:0474  1350 0264:0478  1352 0264:047a
  1353 0264:047e  1354 0264:0481  1355 0264:0483  1357 0264:0485
  1358 0264:0487  1359 0264:048a  1361 0264:048c  1366 0264:048e
  1367 0264:0492  1368 0264:0493  1370 0264:0496  1373 0264:0498
  1374 0264:049c  1378 0264:049f  1380 0264:04a1  1382 0264:04a3
  1383 0264:04a4  1385 0264:04a6  1386 0264:04a9  1390 0264:04ad
  1391 0264:04af  1392 0264:04b1  1393 0264:04b2  1394 0264:04b4
  1398 0264:04b5  1399 0264:04b9  1400 0264:04bb  1401 0264:04bc
  1402 0264:04be  1403 0264:04bf  1405 0264:04c1  1407 0264:04c4
  1408 0264:04c8  1410 0264:04cc  1413 0264:04ce  1414 0264:04d2
  1416 0264:04d8  1417 0264:04dc  1419 0264:04e2  1421 0264:04e8
  1424 0264:04ed  1445 0264:04ee  1447 0264:04ef  1448 0264:04f4
  1450 0264:04f6  1452 0264:04fa  1453 0264:04fe  1455 0264:0500
  1456 0264:0505  1458 0264:0506  1460 0264:0507  1483 0264:0508
  1485 0264:050a  1487 0264:050d  1489 0264:050e  1490 0264:0510
  1492 0264:0512  1494 0264:0515  1495 0264:0518  1499 0264:051a
  1500 0264:051c  1502 0264:051e  1503 0264:0521  1505 0264:0523
  1506 0264:0527  1508 0264:052e  1510 0264:052f  1513 0264:0531
  1515 0264:0532  1517 0264:0534  1543 0264:0535  1545 0264:053c
  1547 0264:053f  1549 0264:0540  1550 0264:0542  1552 0264:0544
  1554 0264:0547  1555 0264:054a  1556 0264:054d  1558 0264:054f
  1560 0264:0553  1562 0264:0554  1565 0264:0556  1567 0264:0557
  1594 0264:0558  1596 0264:055f  1598 0264:0562  1600 0264:0563
  1601 0264:0565  1603 0264:0567  1605 0264:056a  1607 0264:056f
  1614 0264:0572  1615 0264:0577  1616 0264:057b  1618 0264:0580
  1619 0264:0582  1620 0264:0587  1621 0264:058b  1623 0264:0590
  1625 0264:0592  1626 0264:0597  1630 0264:0599  1632 0264:059d
  1634 0264:059e  1635 0264:05a3  1636 0264:05a5  1637 0264:05a7
  1641 0264:05a8  1642 0264:05ac  1644 0264:05af  1646 0264:05b0
  1651 0264:05b5  1653 0264:05b6  1654 0264:05b8  1656 0264:05ba
  1657 0264:05bc  1658 0264:05bd  1659 0264:05c2  1661 0264:05c6
  1663 0264:05c7  1666 0264:05c9  1668 0264:05ca  1686 0264:05cb
  1688 0264:05cf  1689 0264:05d2  1691 0264:05d7  1692 0264:05dd
  1694 0264:05df  1695 0264:05e1  1696 0264:05e9  1698 0264:05eb
  1702 0264:05ed  1703 0264:05f0  1704 0264:05f8  1708 0264:05fa
  1709 0264:05fc  1710 0264:05fe  1711 0264:0600  1713 0264:0604
  1715 0264:0606  1719 0264:0609  1720 0264:060f  1722 0264:0611
  1723 0264:0614  1725 0264:0618  1726 0264:061c  1727 0264:061e
  1729 0264:0620  1730 0264:0624  1732 0264:0626  1733 0264:0629
  1741 0264:062d  1742 0264:0633  1744 0264:0635  1745 0264:0638
  1746 0264:063c  1748 0264:063e  1749 0264:0643  1751 0264:0645
  1754 0264:064a  1756 0264:064e  1758 0264:064f  1761 0264:0651
  1762 0264:0655  1763 0264:0656  1765 0264:0659  1768 0264:065b
  1770 0264:065f  1771 0264:0663  1772 0264:0664  1774 0264:0667
  1776 0264:0668  1778 0264:066c  1798 0264:066d  1800 0264:066f
  1801 0264:0670  1809 0264:0671  1811 0264:06e4  1813 0264:06e6
  1815 0264:06e7  1816 0264:06e8  1817 0264:06ec  1819 0264:06ef
  1821 0264:06f0  1824 0264:06f2  1841 0264:06f3  1842 0264:06f6
  1846 0264:06f9  1848 0264:06fa  1851 0264:06fe  1852 0264:0702
  1854 0264:0705  1859 0264:0706  1860 0264:0709  1861 0264:070b
  1862 0264:070f  1864 0264:0711  1866 0264:0715  1867 0264:0719
  1869 0264:071b  1871 0264:0721  1872 0264:0724  1874 0264:0726
  1875 0264:0729  1877 0264:072b  1878 0264:072e  1880 0264:0730
  1881 0264:0736  1883 0264:0738  1888 0264:0739  1889 0264:073f
  1891 0264:0744  1892 0264:074a  1894 0264:074c  1895 0264:0751
  1898 0264:0753  1899 0264:0756  1902 0264:0759  1904 0264:075c
  1905 0264:075f  1907 0264:0761  1909 0264:0764  1910 0264:0765
  1911 0264:0768  1914 0264:076a  1915 0264:076d  1917 0264:076f
  1918 0264:0772  1920 0264:0774  1928 0264:0777  1929 0264:077b
  1930 0264:077c  1932 0264:077f  1934 0264:0782  1971 0264:0785
  1974 0264:078c  1975 0264:078f  1982 0264:0794  1983 0264:0796
  1984 0264:079a  1986 0264:079c  1987 0264:079d  1990 0264:079f
  1991 0264:07a4  1992 0264:07a5  1994 0264:07a6  1996 0264:07aa
  1997 0264:07ac  1998 0264:07ad  2001 0264:07af  2002 0264:07b3
  2003 0264:07b7  2004 0264:07b9  2006 0264:07bb  2007 0264:07bf
  2008 0264:07c1  2009 0264:07c3  2010 0264:07c5  2012 0264:07ca
  2013 0264:07cc  2014 0264:07ce  2016 0264:07cf  2017 0264:07d3
  2018 0264:07da  2019 0264:07dc  2021 0264:07e1  2022 0264:07e3
  2023 0264:07e8  2024 0264:07e9  2027 0264:07eb  2029 0264:07ec
  2030 0264:07ee  2034 0264:07f0  2035 0264:07f4  2036 0264:07f6
  2037 0264:07fc  2038 0264:07fd  2039 0264:0802  2041 0264:0807
  2044 0264:0809  2045 0264:080c  2046 0264:080e  2047 0264:0810
  2048 0264:0812  2049 0264:0814  2050 0264:0818  2053 0264:081a
  2055 0264:081c  2056 0264:081d  2059 0264:081f  2061 0264:0825
  2064 0264:0827  2065 0264:0828  2068 0264:082a  2073 0264:082b
  2074 0264:082f  2075 0264:0834  2077 0264:0839  2080 0264:083b
  2082 0264:083f  2083 0264:0843  2084 0264:0847  2085 0264:084b
  2087 0264:084f  2088 0264:0851  2089 0264:0853  2090 0264:0855
  2091 0264:0857  2092 0264:0859  2093 0264:085b  2094 0264:085d
  2096 0264:085f  2099 0264:0861  2100 0264:0863  2101 0264:0867
  2103 0264:0869  2105 0264:086c  2108 0264:086e  2109 0264:086f
  2110 0264:0873  2112 0264:0874  2116 0264:0875  2117 0264:087b
  2119 0264:087d  2120 0264:0881  2121 0264:0882  2123 0264:0885
  2124 0264:0889  2125 0264:088a  2128 0264:088d  2129 0264:088f
  2133 0264:0893  2135 0264:0896  2138 0264:0899  2139 0264:089b
  2140 0264:089d  2141 0264:08a0  2145 0264:08a4  2146 0264:08a6
  2147 0264:08a7  2149 0264:08a9  2150 0264:08ac  2152 0264:08b0
  2153 0264:08b1  2156 0264:08b2  2157 0264:08b5  2158 0264:08b7
  2159 0264:08bb  2160 0264:08be  2161 0264:08c0  2164 0264:08c2
  2165 0264:08c6  2170 0264:08c8  2172 0264:08c9  2173 0264:08cc
  2174 0264:08d0  2176 0264:08d4  2177 0264:08d5  2180 0264:08d7
  2181 0264:08db  2183 0264:08dc  2186 0264:08dd  2187 0264:08e1
  2190 0264:08e2  2193 0264:08e5  2198 0264:08e8  2199 0264:08e9
  2202 0264:08ea  2203 0264:08ee  2204 0264:08f0  2205 0264:08f8
  2210 0264:08fa  2211 0264:08fe  2212 0264:0902  2215 0264:0904
  2216 0264:0907  2217 0264:090b  2219 0264:090f  2220 0264:0913
  2221 0264:0918  2225 0264:091d  2226 0264:091f  2227 0264:0920
  2230 0264:0922  2232 0264:0929  2233 0264:092c  2234 0264:092e
  2236 0264:0930  2237 0264:0931  2240 0264:0933  2243 0264:093a
  2244 0264:093e  2247 0264:0941  2248 0264:0943  2249 0264:0945
  2250 0264:0947  2252 0264:0949  2255 0264:094d  2259 0264:0951
  2260 0264:0956  2262 0264:095b  2263 0264:095c  2266 0264:095e
  2267 0264:0960  2269 0264:0961  2270 0264:0963  2272 0264:0965
  2275 0264:096a  2276 0264:096e  2279 0264:0970  2281 0264:0974
  2282 0264:0975  2284 0264:0978  2287 0264:097f  2306 0264:0980
  2311 0264:0984  2312 0264:0988  2314 0264:098a  2316 0264:098c
  2318 0264:098e  2319 0264:0990  2320 0264:0993  2322 0264:0994
  2323 0264:0996  2325 0264:0998  2326 0264:0999  2328 0264:099b
  2329 0264:099e  2331 0264:09a2  2337 0264:09a6  2338 0264:09ac
  2344 0264:09ae  2352 0264:09b2  2354 0264:09b8  2359 0264:09ba
  2361 0264:09bf  2363 0264:09c0  2366 0264:09c2  2367 0264:09c6
  2368 0264:09c7  2370 0264:09ca  2372 0264:09cb  2375 0264:09cf
  2388 0264:09d0  2390 0264:09d2  2392 0264:09d3  2393 0264:09d5
  2395 0264:09d7  2396 0264:09d9  2398 0264:09db  2400 0264:09df
  2401 0264:09e1  2403 0264:09e3  2405 0264:09e5  2440 0264:09e6
  2441 0264:09e7  2443 0264:09e9  2445 0264:09ef  2446 0264:09f2
  2447 0264:09f5  2449 0264:09fa  2450 0264:0a00  2452 0264:0a05
  2454 0264:0a09  2455 0264:0a0b  2457 0264:0a0d  2458 0264:0a0f
  2460 0264:0a12  2463 0264:0a17  2465 0264:0a1a  2466 0264:0a1c
  2467 0264:0a20  2469 0264:0a22  2472 0264:0a25  2473 0264:0a26
  2476 0264:0a28  2477 0264:0a29  2479 0264:0a2d  2482 0264:0a2f
  2483 0264:0a31  2484 0264:0a33  2485 0264:0a36  2486 0264:0a39
  2488 0264:0a3b  2491 0264:0a3d  2496 0264:0a3f  2500 0264:0a40
  2501 0264:0a46  2503 0264:0a48  2506 0264:0a4c  2510 0264:0a50
  2511 0264:0a52  2512 0264:0a53  2515 0264:0a55  2517 0264:0a5c
  2518 0264:0a60  2520 0264:0a63  2521 0264:0a66  2522 0264:0a68
  2524 0264:0a6a  2525 0264:0a6b  2528 0264:0a6d  2530 0264:0a72
  2533 0264:0a73  2534 0264:0a75  2535 0264:0a79  2539 0264:0a7b
  2540 0264:0a7f  2541 0264:0a81  2543 0264:0a83  2545 0264:0a86
  2548 0264:0a88  2549 0264:0a8c  2551 0264:0a8e  2552 0264:0a94
  2554 0264:0a96  2555 0264:0a9c  2558 0264:0a9e  2560 0264:0a9f
  2561 0264:0aa5  2563 0264:0aa7  2564 0264:0aac  2566 0264:0aae
  2567 0264:0ab3  2570 0264:0ab6  2572 0264:0abb  2573 0264:0ac1
  2576 0264:0ac3  2577 0264:0ac4  2580 0264:0ac5  2582 0264:0acb
  2584 0264:0acc

Line numbers for RET\TSRCOM.OBJ(.\TSRCOM.asm) segment NCODE

  2619 005d:0000  2621 005d:0001  2622 005d:0004  2623 005d:0006
  2625 005d:0009  2626 005d:000f  2628 005d:0011  2629 005d:0015
  2631 005d:0019  2633 005d:001d  2634 005d:0023  2636 005d:0025
  2637 005d:0028  2638 005d:002b  2639 005d:002e  2641 005d:0034
  2644 005d:0036  2645 005d:003a  2646 005d:003e  2647 005d:0042
  2648 005d:0046  2649 005d:004a  2651 005d:004e  2653 005d:004f
  2678 005d:0050  2680 005d:0055  2681 005d:005a  2683 005d:005f
  2684 005d:0065  2686 005d:0067  2687 005d:0069  2689 005d:006d
  2693 005d:0070  2694 005d:0076  2696 005d:0078  2697 005d:007b
  2698 005d:007d  2701 005d:007f  2702 005d:0082  2703 005d:0086
  2704 005d:0089  2709 005d:008c  2711 005d:0092  2712 005d:0098
  2714 005d:009a  2715 005d:00a0  2717 005d:00a2  2719 005d:00a5
  2720 005d:00a8  2721 005d:00aa  2722 005d:00ac  2723 005d:00af
  2724 005d:00b0  2729 005d:00b3  2730 005d:00b8  2732 005d:00bd
  2733 005d:00c3  2737 005d:00c8  2738 005d:00ce  2740 005d:00d0
  2741 005d:00d6  2743 005d:00db  2745 005d:00de  2746 005d:00e2
  2752 005d:00e7  2753 005d:00eb  2754 005d:00ec  2758 005d:00f0
  2759 005d:00f4  2761 005d:00f6  2763 005d:00fa  2764 005d:00ff
  2766 005d:0101  2767 005d:0102  2772 005d:0106  2773 005d:010c
  2778 005d:010e  2779 005d:0110  2780 005d:0114  2782 005d:0117
  2784 005d:0119  2790 005d:011b  2792 005d:011e  2794 005d:0120
  2799 005d:0124  2800 005d:0127  2805 005d:0129  2806 005d:012e
  2808 005d:0130  2809 005d:0135  2810 005d:0139  2811 005d:013a
  2812 005d:013d  2816 005d:013f  2817 005d:0141  2818 005d:0142
  2819 005d:0147  2824 005d:014a  2825 005d:014e  2826 005d:0151
  2830 005d:0153  2831 005d:0155  2832 005d:0156  2833 005d:015b
  2835 005d:015e  2836 005d:0161  2838 005d:0164  2841 005d:0167
  2846 005d:016a  2847 005d:016e  2848 005d:016f  2852 005d:0173
  2853 005d:0177  2855 005d:0179  2860 005d:017d  2861 005d:0183
  2865 005d:0185  2866 005d:0187  2867 005d:018b  2869 005d:018e
  2871 005d:0190  2876 005d:0192  2878 005d:0195  2880 005d:0197
  2885 005d:019b  2886 005d:019e  2891 005d:01a0  2892 005d:01a4
  2893 005d:01a7  2897 005d:01a9  2898 005d:01ab  2899 005d:01ac
  2900 005d:01b1  2902 005d:01b4  2904 005d:01b8  2905 005d:01bb
  2909 005d:01bd  2910 005d:01c3  2914 005d:01c5  2915 005d:01c7
  2916 005d:01cb  2918 005d:01ce  2920 005d:01d3  2925 005d:01d5
  2927 005d:01d8  2929 005d:01dd  2931 005d:01e1  2932 005d:01e4
  2939 005d:01e6  2941 005d:01eb  2942 005d:01ef  2944 005d:01f1
  2945 005d:01f2  2947 005d:01f4  2948 005d:01f7  2950 005d:01fc
  2951 005d:01fe  2952 005d:01ff  2953 005d:0204  2955 005d:0207
  2958 005d:020a  2959 005d:0210  2961 005d:0212  2962 005d:0216
  2963 005d:0217  2965 005d:021a  2967 005d:021d  2971 005d:021f
  2972 005d:0225  2974 005d:0227  2975 005d:022b  2976 005d:022c
  2981 005d:022f  2984 005d:0232  2986 005d:0235  2987 005d:0239
  2988 005d:023c  2990 005d:0241  2993 005d:0244  2994 005d:0247
  2995 005d:024b  2996 005d:024e  2998 005d:0252  2999 005d:0255
  3003 005d:0258  3004 005d:0259  3010 005d:025a  3011 005d:025e
  3012 005d:0260  3013 005d:0262  3021 005d:0266  3022 005d:0268
  3023 005d:026c  3025 005d:026e  3026 005d:0272  3028 005d:0274
  3031 005d:0276  3032 005d:027c  3034 005d:027e  3036 005d:0280
  3037 005d:0286  3039 005d:0288  3040 005d:028a  3042 005d:028f
  3043 005d:0291  3046 005d:0293  3047 005d:0298  3048 005d:0299
  3055 005d:029b  3056 005d:029f  3059 005d:02a3  3060 005d:02a5
  3062 005d:02a7  3065 005d:02a9  3069 005d:02ad  3074 005d:02b0
  3075 005d:02b4  3076 005d:02b7  3080 005d:02bc  3081 005d:02be
  3082 005d:02bf  3083 005d:02c4  3086 005d:02c6  3090 005d:02ca
  3091 005d:02ce  3092 005d:02d1  3096 005d:02d6  3097 005d:02d8
  3098 005d:02d9  3099 005d:02de  3105 005d:02e1  3106 005d:02e6
  3108 005d:02e8  3109 005d:02ea  3110 005d:02ee  3111 005d:02f0
  3112 005d:02f2  3113 005d:02f4  3117 005d:02f7  3120 005d:02f9
  3121 005d:02fc  3122 005d:02ff  3123 005d:0301  3124 005d:0303
  3125 005d:0307  3127 005d:030d  3129 005d:0311  3131 005d:0318
  3133 005d:031c  3135 005d:0323  3136 005d:0326  3138 005d:0328
  3140 005d:032f  3141 005d:0334  3143 005d:0338  3144 005d:033e
  3146 005d:0340  3147 005d:0344  3148 005d:0348  3150 005d:0349
  3152 005d:0353  3153 005d:0354  3155 005d:0357  3156 005d:035c
  3157 005d:035e  3158 005d:0360  3160 005d:0363  3161 005d:0366
  3162 005d:0367  3164 005d:036a  3166 005d:036b  3174 005d:036d
  3176 005d:0370  3177 005d:0373  3179 005d:0375  3180 005d:0378
  3182 005d:037d  3184 005d:0381  3189 005d:0383  3191 005d:0387
  3192 005d:0388  3195 005d:038b  3198 005d:038e  3200 005d:038f
  3203 005d:0394  3230 005d:0395  3232 005d:0397  3233 005d:0398
  3236 005d:0399  3237 005d:039e  3239 005d:03a3  3240 005d:03a9
  3242 005d:03ab  3243 005d:03ad  3245 005d:03b1  3247 005d:03b4
  3249 005d:03b7  3250 005d:03ba  3252 005d:03bc  3255 005d:03bf
  3257 005d:03c1  3277 005d:03c2  3278 005d:03c3  3280 005d:03c4
  3282 005d:03c6  3283 005d:03c8  3284 005d:03c9  3287 005d:03cb
  3289 005d:03d2  3292 005d:03d4  3312 005d:03da  3313 005d:03de
  3316 005d:03e1  3317 005d:03e6  3321 005d:03e8  3325 005d:03eb
  3330 005d:03ee  3331 005d:03f4  3333 005d:03f6  3336 005d:03fa
  3337 005d:03fd  3339 005d:03ff  3342 005d:0402  3343 005d:0405
  3347 005d:0407  3348 005d:040a  3360 005d:040f  3364 005d:0412
  3365 005d:0418  3367 005d:041a  3371 005d:041d  3372 005d:0423
  3374 005d:0428  3375 005d:042c  3379 005d:042f  3380 005d:0432
  3386 005d:0434  3387 005d:043a  3389 005d:043c  3391 005d:043f
  3392 005d:0445  3394 005d:0447  3395 005d:044d  3398 005d:044f
  3399 005d:0453  3401 005d:0456  3404 005d:0459  3405 005d:045c
  3406 005d:045d  3408 005d:0460  3414 005d:0463  3415 005d:0469
  3417 005d:046b  3418 005d:046f  3419 005d:0473  3421 005d:0477
  3423 005d:0479  3426 005d:047d  3427 005d:0484  3428 005d:048b
  3432 005d:0492  3435 005d:0496  3436 005d:0497  3438 005d:049b
  3439 005d:04a1  3446 005d:04a6  3447 005d:04aa  3449 005d:04ac
  3451 005d:04ae  3496 005d:04b2  3500 005d:04b6  3501 005d:04ba
  3502 005d:04bc  3504 005d:04be  3507 005d:04c2  3509 005d:04c3
  3511 005d:04c5  3512 005d:04c7  3513 005d:04cb  3522 005d:04cd
  3523 005d:04d0  3524 005d:04d4  3526 005d:04d7  3527 005d:04d9
  3528 005d:04dd  3530 005d:04e0  3531 005d:04e3  3532 005d:04e7
  3535 005d:04e9  3536 005d:04ef  3538 005d:04f1  3542 005d:04f4
  3544 005d:04f9  3545 005d:04fe  3547 005d:0501  3548 005d:0503
  3549 005d:0507  3554 005d:0509  3555 005d:050a  3558 005d:050c
  3559 005d:0513  3560 005d:0517  3563 005d:051a  3564 005d:051d
  3580 005d:0521  3582 005d:0522  3583 005d:0526  3584 005d:0529
  3586 005d:052f  3587 005d:0533  3588 005d:0536  3590 005d:053c
  3591 005d:0540  3592 005d:0543  3594 005d:0549  3596 005d:054a
  3613 005d:054b  3615 005d:054d  3617 005d:054f  3622 005d:0551
  3624 005d:0555  3625 005d:0557  3627 005d:0559  3628 005d:055b
  3630 005d:055d  3641 005d:0564  3644 005d:0566  3666 005d:0567
  3667 005d:0568  3669 005d:056a  3671 005d:0571  3672 005d:0572
  3675 005d:0573  3676 005d:0574  3681 005d:0575  3682 005d:0576
  3683 005d:0579  3684 005d:057b  3685 005d:057e  3686 005d:0580
  3687 005d:0581  3688 005d:0582  3690 005d:0584  3691 005d:0587
  3692 005d:058a  3694 005d:058e  3697 005d:0595  3699 005d:0596
  3720 005d:0599  3721 005d:059a  3723 005d:059c  3725 005d:05a0
  3726 005d:05a1  3729 005d:05a2  3730 005d:05a8  3732 005d:05aa
  3734 005d:05b0  3736 005d:05b3  3737 005d:05b5  3739 005d:05b9
  3740 005d:05bb  3742 005d:05bd  3744 005d:05c1  3745 005d:05c3
  3747 005d:05c5  3748 005d:05c7  3750 005d:05c9  3752 005d:05ca
  3755 005d:05cc  3756 005d:05ce  3758 005d:05d0  3759 005d:05d2
  3761 005d:05d6  3762 005d:05d9  3763 005d:05dd  3764 005d:05de
  3766 005d:05e1  3767 005d:05e4  3768 005d:05e8  3769 005d:05e9
  3771 005d:05ec  3773 005d:05f0  3774 005d:05f3  3775 005d:05f7
  3776 005d:05f8  3778 005d:05fb  3781 005d:05ff  3783 005d:0600
  3804 005d:0603  3805 005d:0604  3807 005d:0606  3808 005d:060d
  3812 005d:060f  3814 005d:0612  3815 005d:0613  3818 005d:0614
  3819 005d:0618  3820 005d:061c  3822 005d:0622  3826 005d:0625
  3827 005d:0628  3828 005d:062d  3830 005d:0630  3831 005d:0635
  3832 005d:0638  3834 005d:063b  3836 005d:063c  3851 005d:063f
  3853 005d:0643  3854 005d:0648  3856 005d:064a  3857 005d:064e
  3859 005d:0651  3861 005d:0656  3862 005d:065a  3863 005d:065c
  3865 005d:065e  3866 005d:0660  3867 005d:0664  3869 005d:0667
  3873 005d:066a  3875 005d:066e  3889 005d:066f  3891 005d:0673
  3892 005d:0676  3893 005d:0679  3895 005d:0681  3897 005d:0684
  3900 005d:0687  3902 005d:068b  3915 005d:068c  3917 005d:068e
  3918 005d:0691  3919 005d:0694  3920 005d:0696  3921 005d:0698
  3922 005d:069b  3923 005d:069c  3925 005d:069f  3927 005d:06a1

Line numbers for RET\LOADCOM.OBJ(.\LOADCOM.asm) segment DATZ

   114 0017:0433   116 0017:0435   117 0017:0436   118 0017:0437
   125 0017:0438   126 0017:043b   128 0017:043d   129 0017:0440
   131 0017:0442

Line numbers for RET\LOADCOM.OBJ(.\LOADCOM.asm) segment NCODE

   359 005d:06a2   361 005d:06a7   362 005d:06a8   364 005d:06aa
   367 005d:06ac   368 005d:06af   370 005d:06b1   371 005d:06b3
   372 005d:06b5   373 005d:06b7   374 005d:06b9   376 005d:06bb
   378 005d:06be   379 005d:06bf   382 005d:06c1   384 005d:06c2
   385 005d:06c3   386 005d:06c5   388 005d:06c7   390 005d:06ca
   391 005d:06cd   393 005d:06cf   396 005d:06d1   398 005d:06d4
   401 005d:06d6   404 005d:06d8   406 005d:06dd   421 005d:06de
   423 005d:06e3   426 005d:06e7   427 005d:06ed   430 005d:06ef
   431 005d:06f1   432 005d:06f5   433 005d:06f8   434 005d:06fb
   435 005d:06fe   442 005d:0700   443 005d:0702   444 005d:0707
   445 005d:070c   447 005d:070e   450 005d:0714   453 005d:0719
   475 005d:071a   477 005d:0721   478 005d:0727   480 005d:072c
   481 005d:072e   482 005d:0736   487 005d:0738   488 005d:073a
   491 005d:073c   494 005d:0741   495 005d:0743   496 005d:0745
   497 005d:0747   498 005d:0749   499 005d:074b   501 005d:0750
   502 005d:0753   503 005d:0756   504 005d:075a   505 005d:075c
   508 005d:075e   509 005d:0760   512 005d:0762   513 005d:0769
   515 005d:076e   516 005d:0775   520 005d:077a   521 005d:077d
   522 005d:0781   524 005d:0785   527 005d:0787   529 005d:078b
   530 005d:078d   531 005d:078e   534 005d:0790   535 005d:0795
   536 005d:0798   539 005d:079a   541 005d:079c   542 005d:079e
   543 005d:07a2   544 005d:07a3   545 005d:07a7   546 005d:07a8
   548 005d:07aa   549 005d:07ae   552 005d:07b0   553 005d:07b2
   554 005d:07b4   563 005d:07b6   564 005d:07bc   566 005d:07be
   567 005d:07c0   568 005d:07c1   571 005d:07c3   572 005d:07c5
   574 005d:07c7   575 005d:07cd   577 005d:07cf   578 005d:07d4
   579 005d:07d5   582 005d:07d7   583 005d:07dc   584 005d:07dd
   585 005d:07df   587 005d:07e1   588 005d:07e7   590 005d:07e9
   591 005d:07f0   594 005d:07f2   595 005d:07f8   597 005d:07fa
   599 005d:0803   601 005d:080b   603 005d:080e   605 005d:0817
   608 005d:081e   616 005d:081f   618 005d:0820   619 005d:0822
   621 005d:0824   622 005d:0826   624 005d:0828   626 005d:0829
   656 005d:082a   657 005d:082b   659 005d:082d   661 005d:0833
   664 005d:0836   666 005d:0838   668 005d:083b   669 005d:0841
   671 005d:0843   672 005d:0845   674 005d:0847   675 005d:084b
   677 005d:084d   678 005d:0851   679 005d:0852   680 005d:0855
   681 005d:0859   683 005d:085b   685 005d:085d   686 005d:0863
   688 005d:0865   689 005d:086b   693 005d:086d   695 005d:086f
   696 005d:0870   699 005d:0871   700 005d:0873   702 005d:0876
   703 005d:0878   704 005d:0879   706 005d:087e   709 005d:0880
   712 005d:0882   714 005d:0883   717 005d:0889   719 005d:088a

Line numbers for RET\LOADCOM.OBJ(.\LOADCOM.asm) segment UCODE

   750 03c5:000b   752 03c5:0011   753 03c5:0017   755 03c5:0019
   756 03c5:001d   760 03c5:001f   761 03c5:0020   764 03c5:0021
   767 03c5:0025   768 03c5:002a   770 03c5:002f   772 03c5:0030
   775 03c5:0031   776 03c5:0034   777 03c5:0038   778 03c5:0039
   782 03c5:003b   783 03c5:0040   786 03c5:0045   787 03c5:0048
   788 03c5:004b   789 03c5:0050   791 03c5:0053   793 03c5:0054
   795 03c5:005a   798 03c5:0060   819 03c5:0061   821 03c5:0068
   822 03c5:006e   824 03c5:0073   825 03c5:0079   827 03c5:007e
   828 03c5:0084   830 03c5:0089   831 03c5:008c   833 03c5:0091
   834 03c5:0095   835 03c5:0097   836 03c5:0099   840 03c5:009e
   842 03c5:00a2   843 03c5:00a5   845 03c5:00aa   849 03c5:00ae
   850 03c5:00af   853 03c5:00b0   854 03c5:00b4   855 03c5:00b6
   857 03c5:00ba   858 03c5:00bd   862 03c5:00bf   863 03c5:00c3
   864 03c5:00c7   865 03c5:00c9   870 03c5:00cc   871 03c5:00cf
   873 03c5:00d1   874 03c5:00d4   876 03c5:00d8   877 03c5:00db
   879 03c5:00e0   881 03c5:00e1   883 03c5:00e4   888 03c5:00e6
   889 03c5:00e9   891 03c5:00ed   894 03c5:00ef   899 03c5:00f4
   900 03c5:00fa   902 03c5:00fc   905 03c5:00fd   906 03c5:0102
   914 03c5:0104   915 03c5:010a   917 03c5:010c   918 03c5:0112
   922 03c5:0114   923 03c5:0118   925 03c5:011a   926 03c5:011e
   928 03c5:0120   930 03c5:0123   932 03c5:0125   933 03c5:012b
   935 03c5:012d   938 03c5:012f   945 03c5:0131   946 03c5:0135
   951 03c5:013a   952 03c5:0140   954 03c5:0142   956 03c5:0144
   959 03c5:0146   961 03c5:014a   962 03c5:014c   963 03c5:0151
   965 03c5:0152   968 03c5:0154   969 03c5:0156   970 03c5:0158
   971 03c5:015b   973 03c5:015d   976 03c5:015f   979 03c5:0161
   980 03c5:0166   982 03c5:016b   984 03c5:016f   985 03c5:0172
   987 03c5:0174   988 03c5:0178   990 03c5:017e   993 03c5:0185
  1008 03c5:0186  1010 03c5:018d  1011 03c5:0192  1015 03c5:0197
  1016 03c5:019b  1017 03c5:019e  1024 03c5:01a3  1025 03c5:01a6
  1028 03c5:01a8  1030 03c5:01ac  1033 03c5:01ae  1038 03c5:01b3
  1039 03c5:01b9  1041 03c5:01bb  1046 03c5:01bc  1047 03c5:01c0
  1049 03c5:01c2  1050 03c5:01c6  1052 03c5:01c8  1054 03c5:01cb
  1056 03c5:01cd  1057 03c5:01d3  1059 03c5:01d5  1069 03c5:01d8
  1072 03c5:01da  1073 03c5:01e0  1077 03c5:01e5  1079 03c5:01e9
  1080 03c5:01ef  1082 03c5:01f1  1084 03c5:01f2  1085 03c5:01f7
  1091 03c5:01f9  1092 03c5:01ff  1094 03c5:0201  1096 03c5:0202
  1097 03c5:0207  1099 03c5:0209  1102 03c5:020d  1104 03c5:0213
  1113 03c5:0216  1115 03c5:0218  1116 03c5:021c  1118 03c5:021e
  1119 03c5:0221  1120 03c5:0225  1122 03c5:0228  1124 03c5:022c
  1125 03c5:0230  1130 03c5:0234  1131 03c5:0236  1133 03c5:0238
  1135 03c5:023e  1136 03c5:0242  1141 03c5:0247  1142 03c5:024d
  1144 03c5:024f  1146 03c5:0250  1149 03c5:0254  1151 03c5:0258
  1152 03c5:025a  1153 03c5:025f  1155 03c5:0260  1158 03c5:0262
  1159 03c5:0264  1160 03c5:0266  1161 03c5:0269  1163 03c5:026b
  1166 03c5:026c  1179 03c5:026f  1180 03c5:0274  1182 03c5:0275
  1184 03c5:0279  1186 03c5:027a  1187 03c5:027b  1190 03c5:027c
  1191 03c5:0280  1192 03c5:0281  1194 03c5:0284  1196 03c5:0287
  1198 03c5:028a  1202 03c5:028c  1203 03c5:0290  1204 03c5:0291
  1206 03c5:0294  1211 03c5:0296  1212 03c5:029a  1213 03c5:029c
  1220 03c5:02a0  1221 03c5:02a4  1235 03c5:02a8  1237 03c5:02ae
  1240 03c5:02b5  1258 03c5:02b6  1260 03c5:02ba  1262 03c5:02bb
  1263 03c5:02be  1265 03c5:02c2  1266 03c5:02c6  1267 03c5:02c9
  1268 03c5:02ca  1271 03c5:02cd  1272 03c5:02cf  1274 03c5:02d0
  1276 03c5:02d1  1278 03c5:02d4  1279 03c5:02d7  1280 03c5:02d8
  1283 03c5:02db  1284 03c5:02dd  1286 03c5:02de  1287 03c5:02e2
  1288 03c5:02e3  1290 03c5:02e6  1291 03c5:02ea  1292 03c5:02eb
  1294 03c5:02ee  1296 03c5:02f2  1309 03c5:02f3  1311 03c5:02f4
  1314 03c5:02f7  1315 03c5:02fa  1317 03c5:02fc  1319 03c5:02fd
  1344 03c5:02fe  1346 03c5:0300  1348 03c5:0306  1350 03c5:0308
  1352 03c5:0309  1353 03c5:030b  1355 03c5:030d  1356 03c5:030f
  1358 03c5:0311  1359 03c5:0313  1361 03c5:0315  1362 03c5:0317
  1364 03c5:0319  1365 03c5:031e  1367 03c5:0320  1369 03c5:0326
  1371 03c5:0328  1374 03c5:032a  1376 03c5:0330  1379 03c5:0332
  1380 03c5:0336  1381 03c5:0339  1382 03c5:033b  1384 03c5:033d
  1386 03c5:033e  1388 03c5:0340  1401 03c5:0341  1403 03c5:0345
  1404 03c5:0346  1407 03c5:0347  1408 03c5:0349  1410 03c5:034d
  1411 03c5:0351  1413 03c5:0355  1415 03c5:035d  1416 03c5:035f
  1418 03c5:0363  1419 03c5:0367  1421 03c5:036b  1423 03c5:0373
  1426 03c5:0377  1451 03c5:0378  1453 03c5:037c  1454 03c5:0380
  1459 03c5:0384  1460 03c5:0388  1461 03c5:038a  1463 03c5:038c
  1464 03c5:038e  1465 03c5:0390  1466 03c5:0394  1467 03c5:0398
  1469 03c5:039c  1470 03c5:03a0  1471 03c5:03a2  1472 03c5:03aa
  1473 03c5:03ae  1474 03c5:03b2  1476 03c5:03b4  1477 03c5:03ba
  1479 03c5:03bc  1480 03c5:03bf  1490 03c5:03c1  1494 03c5:03c4
  1495 03c5:03c7  1497 03c5:03c9  1499 03c5:03cc  1501 03c5:03cd
  1503 03c5:03d1  1521 03c5:03d2  1525 03c5:03da  1526 03c5:03dc
  1527 03c5:03e4  1529 03c5:03e6  1533 03c5:03e8  1534 03c5:03ec
  1535 03c5:03ee  1536 03c5:03f0  1537 03c5:03f4  1539 03c5:03f6
  1541 03c5:03fa  1542 03c5:03fc  1547 03c5:03fe  1549 03c5:0401
  1550 03c5:0407  1552 03c5:0409  1553 03c5:040a  1554 03c5:040c
  1555 03c5:040e  1556 03c5:0416  1557 03c5:0417  1561 03c5:0419
  1562 03c5:041b  1563 03c5:041f  1567 03c5:0423  1568 03c5:0427
  1569 03c5:042b  1570 03c5:042f  1573 03c5:0431  1575 03c5:0434
  1577 03c5:0437  1579 03c5:0439  1580 03c5:043b  1583 03c5:043d
  1584 03c5:043e  1585 03c5:0442  1587 03c5:0443  1590 03c5:044b
  1608 03c5:044c  1610 03c5:0454  1611 03c5:0458  1615 03c5:045c
  1616 03c5:045f  1618 03c5:0462  1621 03c5:0466  1623 03c5:0468
  1626 03c5:046c  1628 03c5:046e  1630 03c5:0471  1631 03c5:0473
  1633 03c5:0475  1634 03c5:0477  1637 03c5:0479  1638 03c5:047b
  1640 03c5:047d  1641 03c5:047f  1642 03c5:0482  1645 03c5:0484
  1646 03c5:0486  1647 03c5:0489  1650 03c5:048b  1651 03c5:048d
  1653 03c5:048f  1655 03c5:0490  1658 03c5:0492  1660 03c5:0493
  1663 03c5:049b  1676 03c5:049c  1678 03c5:04a4  1679 03c5:04a8
  1681 03c5:04ac  1684 03c5:04b0  1686 03c5:04b2  1689 03c5:04b6
  1691 03c5:04b8  1693 03c5:04bb  1694 03c5:04bd  1696 03c5:04bf
  1698 03c5:04c2  1699 03c5:04c4  1701 03c5:04c6  1703 03c5:04c8
  1704 03c5:04ca  1705 03c5:04cd  1708 03c5:04cf  1709 03c5:04d1
  1710 03c5:04d4  1713 03c5:04d6  1714 03c5:04d8  1716 03c5:04da
  1718 03c5:04db  1721 03c5:04dd  1724 03c5:04e5  1740 03c5:04e6
  1742 03c5:04ec  1743 03c5:04f0  1745 03c5:04f4  1748 03c5:04f8
  1750 03c5:04fa  1752 03c5:04fd  1753 03c5:04ff  1755 03c5:0501
  1757 03c5:0504  1758 03c5:0506  1760 03c5:0508  1761 03c5:050a
  1763 03c5:050c  1764 03c5:050e  1765 03c5:0511  1768 03c5:0513
  1769 03c5:0515  1771 03c5:0517  1773 03c5:0518  1776 03c5:051a
  1779 03c5:0520  1787 03c5:0521  1788 03c5:0522  1789 03c5:0525
  1790 03c5:0528  1792 03c5:0529  1800 03c5:052a  1801 03c5:052b
  1802 03c5:052e  1803 03c5:0531  1805 03c5:0532  1813 03c5:0533
  1815 03c5:0536  1816 03c5:0537  1818 03c5:0538  1819 03c5:053a
  1820 03c5:053e  1821 03c5:0540  1822 03c5:0541  1824 03c5:0542
  1825 03c5:0544  1826 03c5:0546  1827 03c5:0548  1829 03c5:0549
  1830 03c5:054b  1831 03c5:054d  1832 03c5:054f  1834 03c5:0551
  1836 03c5:0553  1838 03c5:0554  1840 03c5:0555  1842 03c5:0558
  1868 03c5:0559  1869 03c5:0560  1871 03c5:0562  1875 03c5:0568
  1876 03c5:056f  1878 03c5:0571  1880 03c5:0578  1882 03c5:0579
  1891 03c5:057a  1893 03c5:0580  1915 03c5:0582  1917 03c5:0585
  1918 03c5:058c  1920 03c5:0592  1921 03c5:0599  1923 03c5:05a0
  1925 03c5:05a6  1926 03c5:05ad  1928 03c5:05b4  1930 03c5:05b5
  1953 03c5:05b6  1955 03c5:05b8  1957 03c5:05bb  1959 03c5:05bc
  1960 03c5:05be  1962 03c5:05c0  1964 03c5:05c3  1965 03c5:05c6
  1969 03c5:05c8  1970 03c5:05ca  1972 03c5:05cc  1973 03c5:05cf
  1975 03c5:05d1  1976 03c5:05d4  1978 03c5:05d6  1981 03c5:05da
  1983 03c5:05db  1986 03c5:05dd  1988 03c5:05de  1990 03c5:05e0
  2013 03c5:05e1  2015 03c5:05e8  2017 03c5:05e9  2041 03c5:05ea
  2043 03c5:05f1  2045 03c5:05f2  2097 03c5:05f3  2099 03c5:05f5
  2101 03c5:05f8  2103 03c5:05f9  2104 03c5:05fb  2106 03c5:05fd
  2108 03c5:0600  2109 03c5:0603  2113 03c5:0605  2114 03c5:0607
  2116 03c5:0609  2117 03c5:060c  2119 03c5:060e  2120 03c5:0612
  2121 03c5:0616  2123 03c5:061d  2125 03c5:061e  2128 03c5:0620
  2130 03c5:0621  2132 03c5:0623  2155 03c5:0624  2157 03c5:062b
  2159 03c5:062c  2182 03c5:062d  2184 03c5:062f  2186 03c5:0632
  2188 03c5:0633  2189 03c5:0635  2191 03c5:0637  2193 03c5:063a
  2194 03c5:063d  2196 03c5:063f  2197 03c5:0646  2199 03c5:0648
  2203 03c5:064e  2204 03c5:0651  2205 03c5:0654  2207 03c5:0657
  2208 03c5:065b  2210 03c5:0660  2211 03c5:0664  2215 03c5:0669
  2217 03c5:066c  2219 03c5:066d  2220 03c5:066f  2222 03c5:0671
  2224 03c5:0674  2225 03c5:0677  2229 03c5:0679  2230 03c5:067c
  2231 03c5:067f  2233 03c5:0682  2236 03c5:0685  2237 03c5:0689
  2239 03c5:068f  2242 03c5:0691  2244 03c5:0692  2246 03c5:0693
  2249 03c5:0695  2251 03c5:0696  2253 03c5:0698  2276 03c5:0699
  2278 03c5:069f  2280 03c5:06a0  2302 03c5:06a1  2303 03c5:06a2
  2305 03c5:06a4  2307 03c5:06ab  2308 03c5:06b0  2311 03c5:06b2
  2312 03c5:06b3  2317 03c5:06b4  2318 03c5:06b7  2322 03c5:06b9
  2323 03c5:06bb  2324 03c5:06be  2325 03c5:06c0  2326 03c5:06c1
  2330 03c5:06c3  2331 03c5:06c5  2332 03c5:06c6  2333 03c5:06c8
  2334 03c5:06c9  2336 03c5:06cb  2339 03c5:06ce  2341 03c5:06d0
  2344 03c5:06d4  2346 03c5:06d8  2347 03c5:06da  2348 03c5:06dd
  2349 03c5:06df  2351 03c5:06e0  2352 03c5:06e2  2354 03c5:06e4
  2355 03c5:06e7  2357 03c5:06e9  2359 03c5:06eb  2366 03c5:06ee
  2369 03c5:06f0  2370 03c5:06f2  2371 03c5:06f5  2373 03c5:06f8
  2376 03c5:06ff  2378 03c5:0700  2402 03c5:0703  2404 03c5:0707
  2405 03c5:0708  2406 03c5:070a  2407 03c5:070c  2411 03c5:070e
  2412 03c5:0711  2414 03c5:0715  2415 03c5:0718  2416 03c5:071a
  2418 03c5:071d  2419 03c5:071f  2421 03c5:0721  2423 03c5:0722
  2425 03c5:0726  2445 03c5:0727  2447 03c5:0728  2449 03c5:072b
  2453 03c5:072e  2454 03c5:0731  2455 03c5:0734  2458 03c5:0737
  2460 03c5:0738  2486 03c5:0739  2487 03c5:073a  2489 03c5:073c
  2491 03c5:0743  2492 03c5:0744  2497 03c5:0745  2499 03c5:0746
  2500 03c5:074a  2501 03c5:074d  2502 03c5:0750  2504 03c5:0752
  2507 03c5:0753  2508 03c5:0757  2509 03c5:075a  2513 03c5:075c
  2514 03c5:075e  2515 03c5:0766  2517 03c5:076b  2521 03c5:076d
  2522 03c5:076f  2524 03c5:0773  2525 03c5:0777  2529 03c5:077c
  2530 03c5:077f  2534 03c5:0781  2535 03c5:0783  2536 03c5:0786
  2537 03c5:0788  2541 03c5:0789  2542 03c5:078b  2543 03c5:078c
  2544 03c5:078e  2545 03c5:078f  2547 03c5:0791  2549 03c5:0794
  2552 03c5:0796  2555 03c5:079c  2556 03c5:079f  2558 03c5:07a4
  2559 03c5:07a8  2561 03c5:07ab  2562 03c5:07ae  2564 03c5:07b0
  2565 03c5:07b3  2569 03c5:07b5  2570 03c5:07b7  2572 03c5:07b9
  2573 03c5:07bd  2574 03c5:07c1  2575 03c5:07c4  2576 03c5:07c8
  2580 03c5:07cc  2581 03c5:07cf  2585 03c5:07d1  2586 03c5:07d4
  2588 03c5:07d6  2589 03c5:07da  2593 03c5:07de  2594 03c5:07e1
  2596 03c5:07e3  2597 03c5:07e9  2599 03c5:07eb  2600 03c5:07f1
  2602 03c5:07f3  2604 03c5:07f9  2605 03c5:07fc  2607 03c5:07fe
  2609 03c5:0804  2610 03c5:0807  2616 03c5:0809  2618 03c5:080e
  2620 03c5:0814  2621 03c5:0817  2623 03c5:0819  2625 03c5:081a
  2627 03c5:081d  2631 03c5:0820  2632 03c5:0823  2633 03c5:0826
  2635 03c5:0829  2636 03c5:082c  2638 03c5:0830  2641 03c5:0831
  2642 03c5:0834  2644 03c5:0836  2646 03c5:0837  2648 03c5:083a
  2650 03c5:083d  2651 03c5:083f  2653 03c5:0841  2654 03c5:0843
  2656 03c5:0845  2657 03c5:0848  2659 03c5:084a  2660 03c5:084c
  2661 03c5:084e  2664 03c5:0857  2667 03c5:0858  2668 03c5:085b
  2670 03c5:085d  2672 03c5:085e  2674 03c5:0864  2676 03c5:0867
  2678 03c5:086a  2681 03c5:086d  2682 03c5:086f  2684 03c5:0871
  2686 03c5:0874  2689 03c5:0875  2690 03c5:0878  2692 03c5:087a
  2694 03c5:0880  2695 03c5:0883  2697 03c5:0885  2699 03c5:0886
  2701 03c5:0889  2703 03c5:088c  2706 03c5:088d  2707 03c5:0890
  2709 03c5:0892  2713 03c5:0897  2714 03c5:089a  2716 03c5:089c
  2719 03c5:089d  2720 03c5:08a0  2723 03c5:08a3  2724 03c5:08a6
  2726 03c5:08a9  2729 03c5:08aa  2732 03c5:08ad  2738 03c5:08b1
  2741 03c5:08b8  2743 03c5:08b9  2766 03c5:08bc  2768 03c5:08c0
  2769 03c5:08c3  2770 03c5:08cb  2772 03c5:08cd  2773 03c5:08cf
  2775 03c5:08d1  2776 03c5:08d6  2780 03c5:08d8  2782 03c5:08dc
  2784 03c5:08dd  2785 03c5:08df  2787 03c5:08e1  2788 03c5:08e3
  2790 03c5:08e5  2791 03c5:08e7  2793 03c5:08e9  2795 03c5:08eb
  2800 03c5:08ef  2801 03c5:08f1  2802 03c5:08f2  2804 03c5:08f3
  2805 03c5:08f5  2807 03c5:08f7  2808 03c5:08f9  2810 03c5:08fb
  2811 03c5:08fd  2816 03c5:08ff  2817 03c5:0901  2819 03c5:0903
  2820 03c5:0905  2821 03c5:0908  2822 03c5:090a  2824 03c5:090e
  2826 03c5:090f  2829 03c5:0911  2831 03c5:0912  2833 03c5:0916
  2854 03c5:0917  2856 03c5:0918  2860 03c5:0919  2861 03c5:091b
  2863 03c5:091d  2864 03c5:091f  2867 03c5:0921  2870 03c5:0924
  2872 03c5:0927  2873 03c5:0929  2875 03c5:092b  2877 03c5:0931
  2880 03c5:0933  2881 03c5:0935  2883 03c5:0937  2885 03c5:093d
  2888 03c5:093f  2889 03c5:0941  2891 03c5:0943  2893 03c5:0949
  2896 03c5:094b  2897 03c5:094d  2899 03c5:094f  2901 03c5:0955
  2904 03c5:0957  2905 03c5:0959  2907 03c5:095b  2909 03c5:0961
  2912 03c5:0963  2913 03c5:0965  2915 03c5:0967  2917 03c5:096d
  2920 03c5:096f  2921 03c5:0971  2923 03c5:0973  2924 03c5:0979
  2926 03c5:097b  2928 03c5:0981  2931 03c5:0983  2932 03c5:0985
  2934 03c5:0987  2935 03c5:0988  2936 03c5:098a  2938 03c5:098c
  2940 03c5:098e  2941 03c5:0994  2943 03c5:0996  2946 03c5:0998
  2947 03c5:0999  2950 03c5:099b  2952 03c5:09a0  2955 03c5:09a3
  2956 03c5:09a5  2958 03c5:09a7  2960 03c5:09ad  2963 03c5:09b0
  2964 03c5:09b2  2966 03c5:09b4  2968 03c5:09b9  2971 03c5:09bc
  2972 03c5:09be  2974 03c5:09c0  2975 03c5:09c1  2976 03c5:09c3
  2978 03c5:09c5  2979 03c5:09c7  2981 03c5:09c9  2982 03c5:09cb
  2984 03c5:09cd  2985 03c5:09cf  2987 03c5:09d1  2988 03c5:09d3
  2990 03c5:09d5  2993 03c5:09d7  2994 03c5:09dc  2997 03c5:09de
  2998 03c5:09e3  3001 03c5:09e5  3003 03c5:09ea  3006 03c5:09ed
  3007 03c5:09ef  3009 03c5:09f1  3010 03c5:09f2  3012 03c5:09f4
  3014 03c5:09f5  3015 03c5:09f7  3016 03c5:09fa  3018 03c5:09fc
  3020 03c5:09fd  3021 03c5:0a01  3026 03c5:0a04  3029 03c5:0a07
  3031 03c5:0a0a  3033 03c5:0a0b  3057 03c5:0a0c  3060 03c5:0a0e
  3061 03c5:0a0f  3065 03c5:0a11  3066 03c5:0a14  3068 03c5:0a18
  3069 03c5:0a1b  3070 03c5:0a1d  3072 03c5:0a20  3073 03c5:0a22
  3077 03c5:0a24  3078 03c5:0a29  3080 03c5:0a2b  3082 03c5:0a2e
  3083 03c5:0a30  3085 03c5:0a32  3086 03c5:0a34  3088 03c5:0a36
  3089 03c5:0a38  3091 03c5:0a3a  3093 03c5:0a3d  3095 03c5:0a3e
  3098 03c5:0a40  3100 03c5:0a41  3102 03c5:0a43  3126 03c5:0a44
  3130 03c5:0a49  3134 03c5:0a4b  3136 03c5:0a4e  3137 03c5:0a50
  3139 03c5:0a52  3140 03c5:0a55  3142 03c5:0a57  3143 03c5:0a5a
  3145 03c5:0a5c  3147 03c5:0a5f  3148 03c5:0a62  3149 03c5:0a64
  3150 03c5:0a66  3154 03c5:0a68  3156 03c5:0a69  3157 03c5:0a6b
  3159 03c5:0a6d  3160 03c5:0a6f  3165 03c5:0a71  3167 03c5:0a74
  3168 03c5:0a76  3170 03c5:0a78  3171 03c5:0a7b  3173 03c5:0a7d
  3174 03c5:0a7f  3175 03c5:0a81  3179 03c5:0a83  3181 03c5:0a84
  3182 03c5:0a86  3184 03c5:0a88  3185 03c5:0a8a  3190 03c5:0a8c
  3192 03c5:0a8f  3193 03c5:0a91  3195 03c5:0a93  3196 03c5:0a96
  3198 03c5:0a98  3199 03c5:0a9a  3200 03c5:0a9c  3205 03c5:0a9e
  3206 03c5:0aa2  3211 03c5:0aa4  3212 03c5:0aa7  3213 03c5:0aa9
  3214 03c5:0aad  3216 03c5:0aaf  3218 03c5:0ab1  3219 03c5:0ab3
  3221 03c5:0ab7  3223 03c5:0abb  3224 03c5:0abd  3226 03c5:0abf
  3228 03c5:0ac2  3230 03c5:0ac3  3233 03c5:0ac5  3235 03c5:0ac6
  3237 03c5:0acb  3258 03c5:0acc  3259 03c5:0ace  3261 03c5:0ad0
  3262 03c5:0ad2  3264 03c5:0ad4  3266 03c5:0ad6  3290 03c5:0ad7
  3294 03c5:0ad9  3295 03c5:0adb  3297 03c5:0add  3299 03c5:0ade
  3300 03c5:0ae0  3302 03c5:0ae2  3303 03c5:0ae4  3305 03c5:0ae6
  3306 03c5:0ae8  3310 03c5:0ae9  3311 03c5:0aeb  3312 03c5:0af0
  3314 03c5:0af2  3316 03c5:0af4  3317 03c5:0af6  3318 03c5:0afb
  3319 03c5:0afd  3320 03c5:0aff  3324 03c5:0b00  3325 03c5:0b02
  3326 03c5:0b05  3328 03c5:0b07  3331 03c5:0b09  3333 03c5:0b0a
  3335 03c5:0b0b  3338 03c5:0b0d  3340 03c5:0b0e  3341 03c5:0b10
  3343 03c5:0b12  3345 03c5:0b13  3347 03c5:0b15

Line numbers for RET\LOADCOM.OBJ(.\LOADCOM.asm) segment NCODE

  3371 005d:088d  3379 005d:088e  3381 005d:088f  3382 005d:0892
  3384 005d:089b  3385 005d:089c  3386 005d:08a0  3388 005d:08a1
  3390 005d:08a2  3403 005d:08a5  3405 005d:08a8  3406 005d:08aa
  3408 005d:08af  3410 005d:08b3  3411 005d:08b5  3413 005d:08ba
  3415 005d:08be  3417 005d:08c1  3425 005d:08c2  3427 005d:08c6
  3428 005d:08c8  3429 005d:08d0  3431 005d:08d2  3433 005d:08d4
  3434 005d:08d6  3435 005d:08d9  3436 005d:08de  3438 005d:08e6
  3440 005d:08ea  3442 005d:08ee  3456 005d:08ef  3458 005d:08f3
  3459 005d:08f5  3460 005d:08fd  3462 005d:08ff  3464 005d:0901
  3465 005d:0903  3466 005d:0906  3468 005d:090e  3470 005d:0912
  3472 005d:0916  3492 005d:0917  3494 005d:091e  3495 005d:0924
  3496 005d:0928  3497 005d:092a  3498 005d:092c  3499 005d:092e
  3500 005d:0930  3501 005d:0934  3503 005d:0938  3504 005d:0939
  3508 005d:093a  3511 005d:093c  3513 005d:0940  3514 005d:0945
  3516 005d:0947  3517 005d:0948  3518 005d:094c  3519 005d:094f
  3520 005d:0951  3521 005d:0953  3523 005d:0955  3525 005d:0959
  3526 005d:095c  3528 005d:095e  3529 005d:0962  3531 005d:0964
  3534 005d:0966  3536 005d:0969  3539 005d:0970  3558 005d:0971
  3560 005d:0978  3561 005d:0979  3564 005d:097a  3565 005d:097e
  3567 005d:0980  3570 005d:0982  3571 005d:0984  3572 005d:0988
  3573 005d:098d  3575 005d:098f  3581 005d:0991  3582 005d:0996
  3584 005d:0998  3585 005d:0999  3586 005d:099d  3587 005d:09a0
  3588 005d:09a2  3590 005d:09a4  3593 005d:09ab  3594 005d:09ae
  3596 005d:09b0  3599 005d:09b2  3600 005d:09b4  3602 005d:09b6
  3605 005d:09b8  3606 005d:09bb  3607 005d:09bf  3608 005d:09c2
  3610 005d:09c4  3613 005d:09c6  3615 005d:09c9  3616 005d:09cb
  3619 005d:09cf  3621 005d:09d6  3624 005d:09dd  3637 005d:09de
  3641 005d:09e4  3642 005d:09ea  3644 005d:09ec  3646 005d:09f1
  3647 005d:09f7  3649 005d:09f9  3651 005d:09fe  3652 005d:0a04
  3654 005d:0a06  3655 005d:0a09  3656 005d:0a0a  3657 005d:0a0d
  3658 005d:0a13  3660 005d:0a19  3663 005d:0a1b  3664 005d:0a21
  3665 005d:0a24  3666 005d:0a25  3668 005d:0a28  3669 005d:0a2b
  3672 005d:0a2e  3673 005d:0a34  3675 005d:0a3a  3676 005d:0a40
  3678 005d:0a42  3682 005d:0a48  3683 005d:0a4c  3685 005d:0a4e
  3686 005d:0a50  3687 005d:0a54  3688 005d:0a57  3692 005d:0a59
  3694 005d:0a5c  3695 005d:0a5f  3700 005d:0a61  3703 005d:0a63
  3705 005d:0a67  3706 005d:0a6a  3708 005d:0a6c  3709 005d:0a71
  3711 005d:0a73  3714 005d:0a75  3716 005d:0a79  3719 005d:0a7b
  3721 005d:0a7e  3723 005d:0a82  3724 005d:0a87  3726 005d:0a8a
  3729 005d:0a90  3807 005d:0a91  3808 005d:0a95  3810 005d:0a97
  3812 005d:0a9b  3815 005d:0a9d  3817 005d:0aa1  3830 005d:0aa2
  3832 005d:0aa6  3833 005d:0aaa  3836 005d:0aae  3837 005d:0ab1
  3839 005d:0ab3  3840 005d:0ab5  3841 005d:0abf  3842 005d:0ac1
  3844 005d:0acb  3846 005d:0acf  3863 005d:0ad0  3865 005d:0ad1
  3866 005d:0ad7  3868 005d:0ad9  3869 005d:0ada  3871 005d:0add
  3872 005d:0ae3  3874 005d:0ae5  3875 005d:0ae9  3876 005d:0aea
  3880 005d:0aed  3883 005d:0af0  3885 005d:0af1  3900 005d:0af2
  3902 005d:0af6  3903 005d:0afc  3905 005d:0afe  3906 005d:0b01
  3908 005d:0b03  3909 005d:0b09  3911 005d:0b0b  3912 005d:0b11
  3914 005d:0b13  3917 005d:0b18  3920 005d:0b1c  3921 005d:0b20
  3923 005d:0b23  3924 005d:0b24  3926 005d:0b25  3927 005d:0b26
  3929 005d:0b28  3931 005d:0b29  3933 005d:0b2e  3935 005d:0b31
  3938 005d:0b35  3952 005d:0b36  3954 005d:0b39  3955 005d:0b3a
  3958 005d:0b3b  3959 005d:0b41  3961 005d:0b43  3962 005d:0b49
  3964 005d:0b4b  3966 005d:0b51  3967 005d:0b57  3969 005d:0b5b
  3970 005d:0b5e  3972 005d:0b61  3973 005d:0b64  3975 005d:0b67
  3976 005d:0b6a  3978 005d:0b6d  3979 005d:0b70  3980 005d:0b73
  3981 005d:0b76  3986 005d:0b79  3987 005d:0b7b  3992 005d:0b83
  3995 005d:0b86

Line numbers for RET\LOADCO2.OBJ(.\LOADCO2.asm) segment NCODE

   192 005d:0b87   194 005d:0b8a   195 005d:0b90   198 005d:0b92
   199 005d:0b97   201 005d:0b99   202 005d:0b9c   203 005d:0b9e
   205 005d:0ba1   207 005d:0ba4   228 005d:0ba5   230 005d:0bab
   231 005d:0bac   234 005d:0bad   235 005d:0bb2   237 005d:0bb4
   238 005d:0bb9   241 005d:0bbc   242 005d:0bc2   244 005d:0bc4
   247 005d:0bc7   248 005d:0bcc   251 005d:0bce   252 005d:0bd2
   253 005d:0bd4   255 005d:0bd6   256 005d:0bd9   257 005d:0bdb
   260 005d:0bde   263 005d:0bdf   264 005d:0be2   265 005d:0be5
   266 005d:0be9   267 005d:0bec   269 005d:0bee   271 005d:0bef
   273 005d:0bf1   274 005d:0bfa   275 005d:0bfb   277 005d:0bfd
   279 005d:0c00   283 005d:0c02   286 005d:0c08   308 005d:0c09
   310 005d:0c12   311 005d:0c13   314 005d:0c14   315 005d:0c1a
   317 005d:0c1c   320 005d:0c1f   321 005d:0c24   324 005d:0c26
   325 005d:0c2a   326 005d:0c2c   328 005d:0c2e   330 005d:0c32
   331 005d:0c35   332 005d:0c39   335 005d:0c3c   338 005d:0c3d
   339 005d:0c40   340 005d:0c43   341 005d:0c47   342 005d:0c4a
   344 005d:0c4c   346 005d:0c4d   349 005d:0c4f   350 005d:0c54
   352 005d:0c58   353 005d:0c5c   354 005d:0c5e   355 005d:0c61
   357 005d:0c65   358 005d:0c67   360 005d:0c69   362 005d:0c6c
   365 005d:0c6e   367 005d:0c73   368 005d:0c78   370 005d:0c7a
   371 005d:0c7f   374 005d:0c82   377 005d:0c8b

Line numbers for RET\LOADCO2.OBJ(.\LOADCO2.asm) segment ACODE

   432 0264:0acd   434 0264:0ad1   435 0264:0ad7   437 0264:0ad9
   442 0264:0adc   446 0264:0ae0   447 0264:0ae3   448 0264:0ae5
   449 0264:0ae8   450 0264:0aeb   460 0264:0aef   461 0264:0af2
   462 0264:0af4   463 0264:0af6   464 0264:0af8   465 0264:0afa
   467 0264:0afc   471 0264:0b00   472 0264:0b02   474 0264:0b06
   475 0264:0b09   477 0264:0b0b   482 0264:0b10   483 0264:0b12
   484 0264:0b1a   486 0264:0b1f   487 0264:0b22   491 0264:0b24
   492 0264:0b26   493 0264:0b2a   495 0264:0b2c   496 0264:0b30
   498 0264:0b32   500 0264:0b35   502 0264:0b39   503 0264:0b3f
   505 0264:0b41   506 0264:0b47   508 0264:0b49   509 0264:0b4f
   511 0264:0b51   512 0264:0b56   513 0264:0b58   515 0264:0b5a
   516 0264:0b5f   517 0264:0b61   519 0264:0b63   520 0264:0b68
   522 0264:0b6a   523 0264:0b70   525 0264:0b72   527 0264:0b78
   528 0264:0b7e   530 0264:0b80   532 0264:0b82   533 0264:0b86
   536 0264:0b88   537 0264:0b8b   539 0264:0b8d   540 0264:0b90
   547 0264:0b92   548 0264:0b95   551 0264:0b97   552 0264:0b9a
   555 0264:0b9c   556 0264:0b9f   559 0264:0ba1   561 0264:0ba5
   562 0264:0bab   564 0264:0bad   565 0264:0bb2   568 0264:0bb4
   570 0264:0bb7   571 0264:0bba   572 0264:0bbd   574 0264:0bbe
   576 0264:0bbf   577 0264:0bc5   579 0264:0bc7   581 0264:0bca
   583 0264:0bcb   585 0264:0bcf

Line numbers for RET\GETSIZE.OBJ(.\GETSIZE.asm) segment NCODE

   212 005d:0c8c   214 005d:0c8e   217 005d:0c93   218 005d:0c99
   220 005d:0c9b   221 005d:0ca1   223 005d:0ca3   224 005d:0ca9
   226 005d:0cab   227 005d:0cae   229 005d:0cb0   230 005d:0cb6
   232 005d:0cb8   233 005d:0cba   234 005d:0cbb   236 005d:0cc0
   237 005d:0cc6   239 005d:0cc8   241 005d:0cca   243 005d:0ccc
   245 005d:0ccf   248 005d:0cd1   250 005d:0cd4   252 005d:0cd5
   255 005d:0cd7   257 005d:0cd9   259 005d:0cda   262 005d:0cdc
   290 005d:0cdd   292 005d:0cde   293 005d:0ce1   295 005d:0ce3
   298 005d:0ce5   299 005d:0cea   301 005d:0cec   302 005d:0cf2
   304 005d:0cf4   305 005d:0cf5   306 005d:0cfa   309 005d:0cfc
   310 005d:0d02   312 005d:0d04   313 005d:0d0a   315 005d:0d0c
   318 005d:0d0e   320 005d:0d11   322 005d:0d12   325 005d:0d13
   352 005d:0d14   354 005d:0d16   356 005d:0d18   358 005d:0d21
   360 005d:0d23   361 005d:0d25   362 005d:0d27   363 005d:0d29
   365 005d:0d2b   366 005d:0d2d   370 005d:0d2f   371 005d:0d31
   372 005d:0d33   377 005d:0d35   378 005d:0d36   380 005d:0d38
   381 005d:0d3b   383 005d:0d3c   386 005d:0d3e   388 005d:0d41
   389 005d:0d46   391 005d:0d48   392 005d:0d4e   398 005d:0d50
   399 005d:0d53   401 005d:0d57   405 005d:0d59   406 005d:0d5b
   407 005d:0d5c   409 005d:0d5e   411 005d:0d62   412 005d:0d66
   416 005d:0d68   417 005d:0d6c   418 005d:0d71   420 005d:0d72
   423 005d:0d73   450 005d:0d74   453 005d:0d76   454 005d:0d79
   457 005d:0d7b   459 005d:0d7d   460 005d:0d7e   464 005d:0d80
   465 005d:0d85   467 005d:0d87   468 005d:0d8d   471 005d:0d8f
   472 005d:0d92   475 005d:0d94   478 005d:0d97   480 005d:0d99
   481 005d:0d9a   483 005d:0d9c   484 005d:0d9f   486 005d:0da1
   489 005d:0da3   491 005d:0da4   493 005d:0da6   510 005d:0da7
   515 005d:0dae   517 005d:0db2   518 005d:0db8   520 005d:0dba
   521 005d:0dbd   522 005d:0dc1   523 005d:0dc3   525 005d:0dc4
   526 005d:0dca   532 005d:0dcc   533 005d:0dcf   536 005d:0dd3
   538 005d:0dd7   542 005d:0ddd   543 005d:0ddf   548 005d:0de1
   549 005d:0de5   555 005d:0de6   556 005d:0dec   559 005d:0dee
   561 005d:0df4   564 005d:0df8   565 005d:0dfc   566 005d:0e00
   568 005d:0e01   569 005d:0e03   571 005d:0e05   572 005d:0e07
   574 005d:0e09   575 005d:0e0b   576 005d:0e0c   577 005d:0e0e
   578 005d:0e10   579 005d:0e14   580 005d:0e18   584 005d:0e1c
   586 005d:0e1f   591 005d:0e24   592 005d:0e26   593 005d:0e2a
   601 005d:0e2b   602 005d:0e31   605 005d:0e33   606 005d:0e37
   608 005d:0e39   609 005d:0e3c   611 005d:0e3e   612 005d:0e3f
   614 005d:0e42   615 005d:0e46   616 005d:0e49   617 005d:0e4b
   618 005d:0e4e   619 005d:0e51   620 005d:0e54   621 005d:0e57
   626 005d:0e5b   627 005d:0e61   632 005d:0e63   633 005d:0e69
   635 005d:0e6b   636 005d:0e6f   638 005d:0e71   639 005d:0e75
   642 005d:0e77   643 005d:0e7d   648 005d:0e7f   664 005d:0e82
   666 005d:0e85   667 005d:0e89   669 005d:0e8b   670 005d:0e8d
   671 005d:0e8f   673 005d:0e91   674 005d:0e93   675 005d:0e97
   676 005d:0e9b   677 005d:0e9f   678 005d:0ea1   679 005d:0ea4
   683 005d:0ea6   684 005d:0ea8   685 005d:0eaa   686 005d:0ead
   687 005d:0eb0   689 005d:0eb2   691 005d:0eb7   692 005d:0eb9
   693 005d:0ebb   694 005d:0ec1   695 005d:0ec3   696 005d:0ec7
   700 005d:0ec9   702 005d:0ecc   705 005d:0ece   706 005d:0ed0
   707 005d:0ed3   708 005d:0ed7   711 005d:0edb   712 005d:0ede
   713 005d:0ee2   717 005d:0ee4   718 005d:0ee8   722 005d:0eeb
   723 005d:0eec   727 005d:0eed   728 005d:0ef3   733 005d:0ef5
   734 005d:0ef8   735 005d:0efb   737 005d:0efe   738 005d:0f01
   740 005d:0f05   741 005d:0f08   745 005d:0f0c   746 005d:0f10
   747 005d:0f12   749 005d:0f14   750 005d:0f18   752 005d:0f1a
   753 005d:0f1d   755 005d:0f21   758 005d:0f27   759 005d:0f2d
   764 005d:0f2f   765 005d:0f32   767 005d:0f36   768 005d:0f3a
   769 005d:0f3b   772 005d:0f3e   775 005d:0f45   794 005d:0f46
   797 005d:0f4b   798 005d:0f52   800 005d:0f54   801 005d:0f59
   802 005d:0f5e   803 005d:0f62   804 005d:0f64   808 005d:0f66
   810 005d:0f6b   811 005d:0f6c   813 005d:0f71   814 005d:0f75
   819 005d:0f77   822 005d:0f79   824 005d:0f7a   827 005d:0f83
   828 005d:0f85   830 005d:0f87   832 005d:0f89   833 005d:0f8c
   834 005d:0f8d   835 005d:0f90   837 005d:0f91   839 005d:0f93
   843 005d:0f94   844 005d:0f96   845 005d:0f9a   848 005d:0f9c
   849 005d:0fa0   851 005d:0fa2   854 005d:0fa7

Line numbers for RET\GETSIZE.OBJ(.\GETSIZE.asm) segment UCODE

   878 03c5:0b16   882 03c5:0b18   883 03c5:0b1b   884 03c5:0b1e
   886 03c5:0b21   887 03c5:0b25   892 03c5:0b28   893 03c5:0b2e
   896 03c5:0b30   897 03c5:0b33   899 03c5:0b36   900 03c5:0b3a
   902 03c5:0b3d   904 03c5:0b3f   921 03c5:0b40   923 03c5:0b43
   927 03c5:0b46   928 03c5:0b4c   930 03c5:0b4e   931 03c5:0b54
   933 03c5:0b59   937 03c5:0b5e   941 03c5:0b61   942 03c5:0b66
   943 03c5:0b67   945 03c5:0b6a   946 03c5:0b6d   947 03c5:0b6f
   948 03c5:0b73   950 03c5:0b76   955 03c5:0b79   956 03c5:0b7c
   959 03c5:0b7f   960 03c5:0b83   962 03c5:0b87   963 03c5:0b8a
   964 03c5:0b8d   965 03c5:0b91   969 03c5:0b95   970 03c5:0b98
   971 03c5:0b9b   972 03c5:0b9f   975 03c5:0ba2   976 03c5:0ba8
   979 03c5:0baa   980 03c5:0bad   982 03c5:0bb0   983 03c5:0bb4
   984 03c5:0bb6   986 03c5:0bb8   987 03c5:0bbc   989 03c5:0bbe
   990 03c5:0bc1   992 03c5:0bc5   993 03c5:0bc8   994 03c5:0bca
   995 03c5:0bcc   996 03c5:0bd0   998 03c5:0bd3   999 03c5:0bd7
  1001 03c5:0bd9  1003 03c5:0bdc  1005 03c5:0bdf

Line numbers for RET\GETSIZE.OBJ(.\GETSIZE.asm) segment NCODE

  1033 005d:0fa8  1035 005d:0fa9  1036 005d:0fab  1037 005d:0fad
  1038 005d:0faf  1039 005d:0fb2  1041 005d:0fb5  1043 005d:0fb6
  1064 005d:0fb7  1066 005d:0fb9  1067 005d:0fbb  1068 005d:0fbd
  1069 005d:0fc0  1070 005d:0fc2  1072 005d:0fc4  1074 005d:0fc6

Line numbers for RET\MACFNS.OBJ(.\MACFNS.asm) segment NCODE

    81 005d:0fc7    83 005d:0fc8    86 005d:0fcd    87 005d:0fd3
    89 005d:0fd5    90 005d:0fdb    92 005d:0fdd    94 005d:0fdf
    95 005d:0fe1    97 005d:0fe3    98 005d:0fe4   100 005d:0fe9
   101 005d:0feb   103 005d:0fed   106 005d:0fef   109 005d:0ff1
   111 005d:0ff4   114 005d:0ff6   116 005d:0ff9   118 005d:0ffa
   121 005d:0ffc   123 005d:1001   125 005d:1002   128 005d:1003
   157 005d:1004   159 005d:1006   161 005d:1009   163 005d:100b
   166 005d:100d   168 005d:1010   170 005d:1012   172 005d:1017
   174 005d:1018   176 005d:1019   179 005d:101b   211 005d:101c
   213 005d:1020   215 005d:1021   216 005d:1024   217 005d:1026
   219 005d:1029   222 005d:102e   223 005d:1034   225 005d:1036
   226 005d:103c   228 005d:103e   230 005d:1042   231 005d:1045
   233 005d:1047   235 005d:1048   238 005d:104a   239 005d:104c
   241 005d:104e   243 005d:1052   244 005d:1054   246 005d:1056
   247 005d:105c   248 005d:105e   251 005d:1060   252 005d:1062
   254 005d:1064   255 005d:1066   257 005d:1068   260 005d:106a
   261 005d:106c   263 005d:106e   265 005d:1070   266 005d:1072
   267 005d:1073   269 005d:1078   270 005d:107e   272 005d:1080
   274 005d:1082   275 005d:1083   277 005d:1085   280 005d:1087
   282 005d:1089   284 005d:108a   287 005d:108c   289 005d:108f
   292 005d:1091   294 005d:1094   295 005d:1095   297 005d:1096
   299 005d:1097   301 005d:1098   304 005d:109c   332 005d:109d
   334 005d:109f   335 005d:10a4   336 005d:10a6   338 005d:10a8
   339 005d:10ae   341 005d:10b0   342 005d:10b3   344 005d:10b5
   346 005d:10b7   349 005d:10b9   350 005d:10be   351 005d:10c0
   353 005d:10c1   354 005d:10c4   356 005d:10c6   357 005d:10c8
   358 005d:10c9   360 005d:10ce   362 005d:10cf   365 005d:10d1
   367 005d:10d4   369 005d:10d5   372 005d:10d7   398 005d:10d8
   400 005d:10dc   401 005d:10e1   402 005d:10e3   410 005d:10e8
   412 005d:10ea   414 005d:10ef   415 005d:10f5   417 005d:10f7
   418 005d:10f9   419 005d:10fa   421 005d:10ff   424 005d:1101
   425 005d:1107   427 005d:1109   428 005d:110f   430 005d:1111
   431 005d:1117   433 005d:1119   434 005d:111e   436 005d:111f
   441 005d:1121   442 005d:1123   444 005d:1125   449 005d:1127
   450 005d:112a   451 005d:112f   452 005d:1130   453 005d:1133
   454 005d:1138   456 005d:113a   457 005d:113f   462 005d:1141
   463 005d:1143   464 005d:1148   465 005d:114a   467 005d:114b
   468 005d:114d   469 005d:114e   471 005d:1150   473 005d:1151
   474 005d:1153   476 005d:1158   479 005d:1159   480 005d:115e
   481 005d:1165   483 005d:1169   485 005d:116a   488 005d:116c
   490 005d:116f   493 005d:1171   495 005d:1174   497 005d:1176
   499 005d:1177   502 005d:117b   525 005d:117c   530 005d:117e
   531 005d:1183   533 005d:1185   535 005d:118c   536 005d:1192
   538 005d:1194   539 005d:119a   541 005d:119c   542 005d:119e
   543 005d:119f   545 005d:11a4   548 005d:11a6   551 005d:11a8
   553 005d:11a9   556 005d:11ab

Line numbers for RET\TSRHIGH.OBJ(.\TSRHIGH.asm) segment ACODE

   210 0264:0bd0   214 0264:0bd4   215 0264:0bda   217 0264:0bdc
   218 0264:0bdf   219 0264:0be2   220 0264:0be4   222 0264:0be6
   225 0264:0beb   226 0264:0bee   227 0264:0bf0   228 0264:0bf2
   229 0264:0bf5   230 0264:0bf9   231 0264:0bfc   232 0264:0bfe
   237 0264:0c01   238 0264:0c03   240 0264:0c04   243 0264:0c06
   244 0264:0c0c   246 0264:0c0e   247 0264:0c14   249 0264:0c19
   250 0264:0c1e   252 0264:0c1f   259 0264:0c21   260 0264:0c27
   262 0264:0c29   263 0264:0c2f   265 0264:0c31   266 0264:0c33
   267 0264:0c35   268 0264:0c37   270 0264:0c38   272 0264:0c3a
   273 0264:0c3c   275 0264:0c3e   276 0264:0c41   278 0264:0c47
   284 0264:0c49   286 0264:0c4d   287 0264:0c4f   288 0264:0c54
   290 0264:0c56   292 0264:0c58   293 0264:0c59   296 0264:0c5a
   297 0264:0c5e   298 0264:0c61   300 0264:0c63   303 0264:0c67
   304 0264:0c6c   305 0264:0c6d   306 0264:0c70   308 0264:0c72
   309 0264:0c74   310 0264:0c79   311 0264:0c7a   312 0264:0c7d
   317 0264:0c7f   318 0264:0c85   320 0264:0c87   321 0264:0c8d
   323 0264:0c8f   324 0264:0c95   329 0264:0c97   330 0264:0c9d
   332 0264:0ca4   333 0264:0ca7   334 0264:0ca9   335 0264:0cab
   336 0264:0cac   339 0264:0cb0   340 0264:0cb6   341 0264:0cb7
   344 0264:0cb9   346 0264:0cba   349 0264:0cbe

Line numbers for RET\TSRHIGH.OBJ(.\TSRHIGH.asm) segment NCODE

   394 005d:11ac   396 005d:11b3   397 005d:11b7   401 005d:11bb
   402 005d:11be   404 005d:11c0   407 005d:11c4   408 005d:11c6
   409 005d:11ca   411 005d:11cc   413 005d:11cd   435 005d:11cf
   439 005d:11d3   442 005d:11d8   444 005d:11dc   445 005d:11de
   446 005d:11df   447 005d:11e0   449 005d:11e4   453 005d:11e6
   462 005d:11eb   465 005d:11f0   466 005d:11f3   467 005d:11f5
   472 005d:11f7   473 005d:11fb   475 005d:11ff   476 005d:1202
   478 005d:1204   479 005d:1206   480 005d:120a   482 005d:120c
   483 005d:120d   484 005d:120f   485 005d:1213   488 005d:1214
   490 005d:1215   495 005d:1217   496 005d:121a   497 005d:121c
   499 005d:121e   500 005d:1220   501 005d:1224   503 005d:1226
   505 005d:122b   507 005d:122c   509 005d:122d   514 005d:122f
   515 005d:1233   517 005d:1237   518 005d:123a   520 005d:123c
   521 005d:123e   522 005d:1242   524 005d:1244   527 005d:1248
   529 005d:1249   534 005d:124b   538 005d:1251   541 005d:1255
   542 005d:1258   545 005d:1259   550 005d:125d   552 005d:125e
   555 005d:1262   556 005d:1264   557 005d:1268   559 005d:126d
   563 005d:126e   568 005d:1272   570 005d:1276   571 005d:1279
   573 005d:127b   575 005d:127e   576 005d:1280   577 005d:1282
   578 005d:1285   579 005d:1288   582 005d:128b   585 005d:128f
   587 005d:1291   588 005d:1294   591 005d:1296   592 005d:129a
   593 005d:129f   596 005d:12a6   599 005d:12ad   614 005d:12ae
   616 005d:12b2   619 005d:12b6   621 005d:12bd   623 005d:12c0
   624 005d:12c4   625 005d:12c8   626 005d:12cb   630 005d:12cd
   631 005d:12d0   632 005d:12d4   633 005d:12d7   634 005d:12d9
   637 005d:12db   639 005d:12de   642 005d:12e2   655 005d:12e3
   657 005d:12e7   660 005d:12eb   661 005d:12ef   663 005d:12f3
   665 005d:12f4   667 005d:12f8   669 005d:1300   672 005d:1301
   674 005d:1307   677 005d:130b   690 005d:130c   692 005d:130e
   693 005d:1312   695 005d:1316   697 005d:131c   699 005d:131e
   753 005d:131f   755 005d:1324   758 005d:1328   759 005d:132c
   760 005d:132f   762 005d:1330   763 005d:1334   764 005d:1338
   766 005d:133a   767 005d:133c   772 005d:133d   773 005d:1340
   774 005d:1342   775 005d:1344   777 005d:1346   780 005d:134b
   793 005d:134c   795 005d:1350   797 005d:1354   799 005d:1357
   801 005d:135b   802 005d:135f   803 005d:1361   806 005d:1365
   807 005d:1367   809 005d:1369   811 005d:136b   813 005d:136e
   815 005d:1371   816 005d:1375   817 005d:1377   820 005d:137b
   821 005d:137d   823 005d:137f   825 005d:1381   827 005d:1384
   830 005d:1388   843 005d:1389   845 005d:138a   847 005d:138e
   849 005d:1391   851 005d:1395   853 005d:1398   855 005d:139c
   857 005d:139f   860 005d:13a0   873 005d:13a1   875 005d:13a5
   876 005d:13a9   877 005d:13ad   879 005d:13b0   881 005d:13b1
   882 005d:13b3   884 005d:13b5   886 005d:13b6   889 005d:13b8
   890 005d:13ba   892 005d:13bc   894 005d:13c0   910 005d:13c1
   922 005d:13c8   923 005d:13ce   925 005d:13d0   926 005d:13d6
   928 005d:13d8   929 005d:13dc   930 005d:13de   931 005d:13e0
   932 005d:13e1   938 005d:13e5   942 005d:13e8   946 005d:13eb
   950 005d:13ee   954 005d:13f1   962 005d:13f4   966 005d:13f7
   970 005d:13fa   974 005d:13fd   982 005d:1400   983 005d:1406
   987 005d:1408   988 005d:140c   989 005d:140e   990 005d:1416
   992 005d:1418   993 005d:141c   994 005d:141d   996 005d:1420
   999 005d:1423  1000 005d:1427  1001 005d:1428  1003 005d:142b
  1008 005d:142e  1012 005d:1431  1013 005d:1437  1015 005d:1439
  1016 005d:143c  1020 005d:143e  1021 005d:1441  1025 005d:1443
  1029 005d:1446  1030 005d:144c  1032 005d:144e  1034 005d:144f
  1037 005d:1453  1039 005d:1458  1040 005d:145c  1042 005d:145e
  1043 005d:1461  1045 005d:1467  1046 005d:1469  1047 005d:146b
  1048 005d:146f  1049 005d:1472  1051 005d:1476  1054 005d:147a
  1056 005d:147f  1059 005d:1480  1062 005d:1482  1063 005d:1486
  1064 005d:1487  1066 005d:148a  1071 005d:148d  1073 005d:1491
  1074 005d:1497  1076 005d:1499  1078 005d:149d  1079 005d:14a0
  1081 005d:14a2  1083 005d:14a3  1086 005d:14a7  1087 005d:14ac
  1089 005d:14ae  1091 005d:14af  1093 005d:14b2  1096 005d:14b4
  1099 005d:14b6  1102 005d:14ba  1105 005d:14bb  1107 005d:14be
  1109 005d:14bf  1115 005d:14c1  1120 005d:14c4  1123 005d:14c7
  1127 005d:14ca  1129 005d:14ce  1130 005d:14d1  1132 005d:14d5
  1133 005d:14d9  1135 005d:14dd  1137 005d:14e1  1144 005d:14e5
  1145 005d:14e7  1146 005d:14e9  1147 005d:14eb  1148 005d:14ed
  1150 005d:14ef  1159 005d:14f4  1160 005d:14f5  1161 005d:14f7
  1162 005d:14f9  1163 005d:14fe  1171 005d:1505  1173 005d:150a
  1174 005d:150f  1177 005d:1514  1178 005d:1516  1180 005d:151a
  1182 005d:151b  1183 005d:1520  1185 005d:1525  1187 005d:1526
  1188 005d:1527  1191 005d:1528  1192 005d:152c  1199 005d:152f
  1201 005d:1530  1202 005d:1531  1207 005d:1532  1209 005d:1535
  1211 005d:1536  1217 005d:153a  1218 005d:153c  1219 005d:153e
  1220 005d:153f  1221 005d:1543  1222 005d:1545  1223 005d:1547
  1224 005d:1549  1241 005d:154e  1242 005d:1550  1244 005d:1552
  1245 005d:1557  1247 005d:1558  1248 005d:155b  1250 005d:155d
  1252 005d:155f  1253 005d:1565  1255 005d:1567  1256 005d:156d
  1258 005d:156f  1261 005d:1571  1263 005d:1576  1267 005d:1578
  1268 005d:157c  1270 005d:1582  1273 005d:1583  1274 005d:1585
  1278 005d:1587  1279 005d:158d  1281 005d:158f  1283 005d:1592
  1284 005d:1598  1286 005d:159a  1288 005d:159d  1289 005d:15a3
  1290 005d:15a7  1293 005d:15aa  1296 005d:15ad  1298 005d:15b3
  1299 005d:15b7  1300 005d:15b8  1307 005d:15bc  1312 005d:15c0
  1313 005d:15c6  1315 005d:15c8  1316 005d:15cb  1318 005d:15cf
  1324 005d:15d2  1326 005d:15d6  1327 005d:15dc  1329 005d:15de
  1331 005d:15e1  1338 005d:15e5  1339 005d:15e8  1340 005d:15ec
  1342 005d:15ed  1343 005d:15f2  1345 005d:15f4  1346 005d:15f5
  1347 005d:15f8  1348 005d:15fb  1349 005d:15fe  1351 005d:15ff
  1352 005d:1604  1353 005d:1606  1355 005d:1608  1356 005d:160d
  1357 005d:1612  1358 005d:1613  1359 005d:1615  1361 005d:161a
  1362 005d:161c  1363 005d:161d  1364 005d:1622  1367 005d:1624
  1368 005d:1629  1369 005d:1630  1371 005d:1634  1373 005d:1635
  1383 005d:1637  1384 005d:1638  1390 005d:1639  1395 005d:163c
  1396 005d:1642  1399 005d:1644  1402 005d:1647  1403 005d:164b
  1404 005d:164c  1406 005d:164f  1408 005d:1652  1411 005d:1655
  1416 005d:1657  1418 005d:165e  1419 005d:1665  1421 005d:1667
  1422 005d:166b  1423 005d:166c  1426 005d:166f  1428 005d:1670
  1429 005d:1671  1430 005d:1674  1432 005d:1675  1435 005d:167c
  1448 005d:167d  1450 005d:1681  1453 005d:1685  1454 005d:1689
  1456 005d:168e  1461 005d:1691  1462 005d:1695  1464 005d:1697
  1466 005d:1698  1468 005d:169a  1470 005d:169c  1471 005d:16a1
  1473 005d:16a3  1476 005d:16a4  1479 005d:16a6  1480 005d:16a9
  1481 005d:16aa  1482 005d:16ad  1484 005d:16ae  1485 005d:16b2
  1486 005d:16b6  1488 005d:16b8  1491 005d:16bc  1514 005d:16bd
  1520 005d:16c4  1522 005d:16c5  1525 005d:16c9  1526 005d:16cc
  1528 005d:16d0  1531 005d:16d1  1533 005d:16d4  1534 005d:16d7
  1538 005d:16da  1539 005d:16de  1541 005d:16e0  1544 005d:16e2
  1545 005d:16e8  1547 005d:16ea  1552 005d:16f0  1553 005d:16f6
  1555 005d:16f8  1556 005d:16fe  1558 005d:1700  1559 005d:1703
  1562 005d:1705  1563 005d:1708  1565 005d:170a  1566 005d:170d
  1568 005d:170f  1569 005d:1713  1570 005d:1714  1572 005d:1717
  1575 005d:1719  1576 005d:171d  1577 005d:171e  1579 005d:1721
  1582 005d:1724  1583 005d:1727  1585 005d:1729  1588 005d:172b
  1589 005d:1731  1593 005d:1733  1596 005d:1737  1597 005d:173d
  1599 005d:173f  1600 005d:1743  1601 005d:1746  1603 005d:1748
  1604 005d:1749  1605 005d:174c  1610 005d:174e  1616 005d:1751
  1620 005d:1754  1621 005d:175a  1623 005d:175c  1628 005d:175f
  1631 005d:1766  1649 005d:1767  1651 005d:1769  1654 005d:176d
  1656 005d:1770  1657 005d:1775  1659 005d:1777  1661 005d:177e
  1662 005d:1782  1663 005d:1785  1665 005d:1787  1669 005d:178b
  1672 005d:1792  1674 005d:1798  1676 005d:1799  1679 005d:179b
  1702 005d:179c  1704 005d:17a1  1706 005d:17a6  1707 005d:17aa
  1709 005d:17ad  1710 005d:17af  1711 005d:17b1  1712 005d:17b5
  1717 005d:17b9  1718 005d:17bf  1720 005d:17c1  1721 005d:17c3
  1723 005d:17c7  1724 005d:17ca  1726 005d:17cc  1728 005d:17d0
  1730 005d:17d3  1732 005d:17d5  1734 005d:17d8  1736 005d:17da
  1738 005d:17de  1741 005d:17e0  1743 005d:17e3  1745 005d:17e5
  1748 005d:17e7  1749 005d:17eb  1751 005d:17ed  1753 005d:17ee
  1755 005d:17f1  1758 005d:17f3  1759 005d:17f6  1760 005d:17f8
  1761 005d:17f9  1762 005d:17fc  1763 005d:17fd  1764 005d:17ff
  1765 005d:1802  1767 005d:1805  1768 005d:1809  1769 005d:180d
  1771 005d:180f  1772 005d:1812  1774 005d:1816  1776 005d:181d
  1777 005d:181f  1779 005d:1820  1783 005d:1824  1786 005d:1828
  1788 005d:1829  1791 005d:182e  1804 005d:182f  1806 005d:1834
  1807 005d:183a  1809 005d:183f  1812 005d:1843  1813 005d:1849
  1815 005d:184b  1816 005d:1851  1817 005d:1858  1819 005d:185f
  1822 005d:1861  1823 005d:1867  1825 005d:1869  1826 005d:186c
  1827 005d:186e  1830 005d:1870  1831 005d:1873  1832 005d:1875
  1833 005d:1877  1834 005d:187a  1835 005d:187d  1836 005d:187f
  1843 005d:1881  1844 005d:1883  1846 005d:1884  1849 005d:1886
  1850 005d:188c  1852 005d:188e  1853 005d:1894  1855 005d:1896
  1856 005d:1897  1857 005d:189c  1858 005d:18a0  1864 005d:18a2
  1865 005d:18a8  1869 005d:18ad  1870 005d:18af  1871 005d:18b4
  1873 005d:18b6  1875 005d:18b8  1876 005d:18bc  1877 005d:18bf
  1879 005d:18c1  1881 005d:18c7  1884 005d:18cc  1916 005d:18cd
  1918 005d:18d0  1920 005d:18d3  1923 005d:18d5  1924 005d:18db
  1926 005d:18dd  1928 005d:18e4  1929 005d:18ea  1931 005d:18ec
  1932 005d:18f1  1934 005d:18f2  1937 005d:18f4  1938 005d:18f8
  1940 005d:18fa  1941 005d:1900  1943 005d:1902  1944 005d:1905
  1945 005d:1908  1948 005d:190a  1951 005d:190d  1973 005d:190e
  1975 005d:1911  1977 005d:1914  1980 005d:1916  1981 005d:191c
  1983 005d:191e  1985 005d:1925  1986 005d:192b  1988 005d:192d
  1989 005d:1932  1990 005d:1933  1993 005d:1935  1994 005d:1939
  1996 005d:193b  1997 005d:193e  1998 005d:1941  2001 005d:1943
  2004 005d:1946

Line numbers for RET\UTIL_SUM.NRM(R:\MAX\386max\UTIL_SUM.asm) segment UCODE

  1025 03c5:0be0  1026 03c5:0be5  1027 03c5:0beb  1029 03c5:0bf0
  1049 03c5:0bf2  1050 03c5:0bf7  1051 03c5:0bfd  1053 03c5:0c02
  1072 03c5:0c04  1073 03c5:0c09  1074 03c5:0c0f  1076 03c5:0c14
  1096 03c5:0c16  1097 03c5:0c1b  1098 03c5:0c21  1100 03c5:0c26
  1118 03c5:0c28  1119 03c5:0c2d  1121 03c5:0c33  1140 03c5:0c35
  1144 03c5:0c3b  1148 03c5:0c3f  1230 03c5:0c42  1231 03c5:0c46
  1232 03c5:0c49  1234 03c5:0c4c  1236 03c5:0c4d  1238 03c5:0c53
  1251 03c5:0c54  1255 03c5:0c5b  1256 03c5:0c5f  1257 03c5:0c62
  1261 03c5:0c65  1262 03c5:0c68  1264 03c5:0c6b  1265 03c5:0c70
  1267 03c5:0c75  1270 03c5:0c79  1271 03c5:0c7d  1275 03c5:0c80
  1276 03c5:0c83  1277 03c5:0c87  1279 03c5:0c8a  1281 03c5:0c8c
  1282 03c5:0c8d  1283 03c5:0c8e  1285 03c5:0c8f  1288 03c5:0c90
  1289 03c5:0c94  1290 03c5:0c98  1292 03c5:0c9b  1294 03c5:0c9c
  1295 03c5:0c9e  1297 03c5:0ca0  1299 03c5:0ca2  1301 03c5:0ca3
  1303 03c5:0ca5  1327 03c5:0ca7  1328 03c5:0cab  1330 03c5:0cb0
  1332 03c5:0cb1  1333 03c5:0cb2  1336 03c5:0cb3  1337 03c5:0cb7
  1338 03c5:0cba  1339 03c5:0cbb  1341 03c5:0cbe  1346 03c5:0cbf
  1347 03c5:0cc3  1349 03c5:0cc6  1351 03c5:0cc7  1352 03c5:0cc8
  1355 03c5:0cc9  1356 03c5:0ccd  1357 03c5:0cd0  1358 03c5:0cd1
  1360 03c5:0cd4  1367 03c5:0cd5  1368 03c5:0cd9  1370 03c5:0cdc
  1372 03c5:0cdd  1373 03c5:0cde  1376 03c5:0cdf  1377 03c5:0ce3
  1378 03c5:0ce6  1380 03c5:0ce8  1386 03c5:0ce9  1387 03c5:0ced
  1389 03c5:0cf2  1391 03c5:0cf5  1392 03c5:0cfa  1393 03c5:0cfc
  1395 03c5:0cfe  1396 03c5:0d03  1398 03c5:0d05  1399 03c5:0d09
  1401 03c5:0d0e  1402 03c5:0d13  1404 03c5:0d18  1405 03c5:0d1c
  1407 03c5:0d1f  1408 03c5:0d25  1410 03c5:0d27  1411 03c5:0d2b
  1413 03c5:0d2e  1414 03c5:0d31  1416 03c5:0d33  1417 03c5:0d37
  1419 03c5:0d3a  1421 03c5:0d3b  1422 03c5:0d42  1424 03c5:0d44
  1425 03c5:0d49  1426 03c5:0d4b  1428 03c5:0d4d  1429 03c5:0d52
  1431 03c5:0d54  1432 03c5:0d58  1433 03c5:0d5c  1435 03c5:0d5f
  1436 03c5:0d62  1438 03c5:0d64  1439 03c5:0d68  1440 03c5:0d6c
  1442 03c5:0d6f  1443 03c5:0d74  1445 03c5:0d76  1446 03c5:0d7b
  1448 03c5:0d7d  1449 03c5:0d81  1450 03c5:0d85  1452 03c5:0d88
  1454 03c5:0d8a  1455 03c5:0d8e  1456 03c5:0d92  1458 03c5:0d95
  1459 03c5:0d96  1464 03c5:0d97  1466 03c5:0d9a  1467 03c5:0d9d
  1468 03c5:0d9f  1470 03c5:0da1  1472 03c5:0da4  1473 03c5:0da7
  1474 03c5:0da8  1476 03c5:0dab  1477 03c5:0dac  1480 03c5:0dad
  1481 03c5:0db1  1483 03c5:0db3  1488 03c5:0db4  1489 03c5:0db7
  1490 03c5:0db8  1491 03c5:0dbc  1492 03c5:0dbd  1494 03c5:0dc0
  1496 03c5:0dc3  1499 03c5:0dc6  1502 03c5:0dcd  1524 03c5:0dce
  1526 03c5:0dd2  1527 03c5:0dd5  1529 03c5:0dd7  1531 03c5:0ddb
  1532 03c5:0dde  1534 03c5:0de0  1536 03c5:0de4  1537 03c5:0de7
  1539 03c5:0de9  1542 03c5:0ded  1543 03c5:0df2  1552 03c5:0df4
  1554 03c5:0df8  2765 03c5:0df9  2767 03c5:0dfe  2768 03c5:0dff
  2771 03c5:0e00  2773 03c5:0e01  2774 03c5:0e02  2775 03c5:0e04
  2776 03c5:0e05  2777 03c5:0e07  2778 03c5:0e09  2779 03c5:0e0a
  2780 03c5:0e0c  2782 03c5:0e0e  2784 03c5:0e0f  2786 03c5:0e11
  2788 03c5:0e16  2806 03c5:0e17  2808 03c5:0e1a  2809 03c5:0e1d
  2810 03c5:0e1e  2811 03c5:0e1f  2812 03c5:0e20  2814 03c5:0e23
  2816 03c5:0e26  2818 03c5:0e28  2820 03c5:0e2b

Line numbers for RET\UTIL_DDD.OBJ(R:\MAX\386max\UTIL_DDD.asm) segment UCODE

   194 03c5:0e2c   196 03c5:0e33   201 03c5:0e37   202 03c5:0e3b
   203 03c5:0e3f   205 03c5:0e42   206 03c5:0e43   208 03c5:0e44
   210 03c5:0e47   211 03c5:0e4a   213 03c5:0e4c   214 03c5:0e4f
   215 03c5:0e51   217 03c5:0e56   218 03c5:0e58   220 03c5:0e5c
   221 03c5:0e61   223 03c5:0e64   224 03c5:0e67   226 03c5:0e69
   228 03c5:0e6b   230 03c5:0e6c   231 03c5:0e72   233 03c5:0e74
   236 03c5:0e77   238 03c5:0e79   239 03c5:0e7d   241 03c5:0e7f
   242 03c5:0e80   245 03c5:0e82   246 03c5:0e87   248 03c5:0e88
   251 03c5:0e8a   252 03c5:0e8e   254 03c5:0e92   256 03c5:0e95
   258 03c5:0e99   260 03c5:0e9c   265 03c5:0e9d   266 03c5:0ea0
   267 03c5:0ea1   268 03c5:0ea5   269 03c5:0ea6   271 03c5:0ea9
   272 03c5:0eae   274 03c5:0eb1   275 03c5:0eb4   276 03c5:0eb5
   277 03c5:0eb9   278 03c5:0eba   279 03c5:0ebb   280 03c5:0ebc
   282 03c5:0ebf   283 03c5:0ec2   284 03c5:0ec3   285 03c5:0ec7
   286 03c5:0ec8   287 03c5:0ec9   288 03c5:0eca   290 03c5:0ecd
   292 03c5:0ecf   293 03c5:0ed0   296 03c5:0ed1   297 03c5:0ed5
   298 03c5:0ed8   299 03c5:0eda   301 03c5:0edc   304 03c5:0ede
   306 03c5:0ee0   307 03c5:0ee4   309 03c5:0ee6   310 03c5:0eea
   312 03c5:0eec   314 03c5:0eef   315 03c5:0ef2   317 03c5:0ef4
   318 03c5:0efa   319 03c5:0f00   321 03c5:0f06   324 03c5:0f08
   326 03c5:0f0b   328 03c5:0f0e   331 03c5:0f10   332 03c5:0f15
   334 03c5:0f17   335 03c5:0f1b   337 03c5:0f1d   338 03c5:0f20
   340 03c5:0f22   341 03c5:0f24   343 03c5:0f26   345 03c5:0f2a
   348 03c5:0f2d   350 03c5:0f30   351 03c5:0f35   353 03c5:0f37
   354 03c5:0f3a   355 03c5:0f3d   357 03c5:0f43   364 03c5:0f45
   366 03c5:0f47   367 03c5:0f4b   369 03c5:0f4d   370 03c5:0f50
   373 03c5:0f54   374 03c5:0f57   376 03c5:0f5c   377 03c5:0f60
   379 03c5:0f62   380 03c5:0f67   381 03c5:0f69   382 03c5:0f6c
   383 03c5:0f70   385 03c5:0f73   386 03c5:0f76   387 03c5:0f77
   388 03c5:0f7b   389 03c5:0f7c   391 03c5:0f7f   394 03c5:0f81
   396 03c5:0f86   397 03c5:0f8a   399 03c5:0f8e   400 03c5:0f90
   401 03c5:0f92   403 03c5:0f94   406 03c5:0f96   407 03c5:0f99
   409 03c5:0f9a   411 03c5:0f9b   412 03c5:0f9d   414 03c5:0f9f
   416 03c5:0fa1   418 03c5:0fa2   420 03c5:0fa4   422 03c5:0fa5
   424 03c5:0fa7   427 03c5:0fa9   428 03c5:0fac   429 03c5:0fad
   430 03c5:0fb1   431 03c5:0fb2   433 03c5:0fb5   435 03c5:0fba
   436 03c5:0fbd   437 03c5:0fbe   438 03c5:0fc2   439 03c5:0fc3
   441 03c5:0fc6   442 03c5:0fcc   444 03c5:0fce   446 03c5:0fd3
   447 03c5:0fd6   448 03c5:0fd7   449 03c5:0fdb   450 03c5:0fdc
   454 03c5:0fdf   455 03c5:0fe4   457 03c5:0fe6   459 03c5:0fe9
   462 03c5:0feb   463 03c5:0fee   464 03c5:0fef   465 03c5:0ff3
   466 03c5:0ff4   468 03c5:0ff7   470 03c5:0ffa   471 03c5:1000
   472 03c5:1005   474 03c5:1007   477 03c5:100a   479 03c5:100b
   484 03c5:100d   485 03c5:1010   486 03c5:1011   487 03c5:1015
   488 03c5:1016   490 03c5:1019   492 03c5:101a   495 03c5:1021
   507 03c5:1022   509 03c5:1027   510 03c5:1029   511 03c5:102b
   512 03c5:102d   513 03c5:102f   515 03c5:1031   516 03c5:1032
   519 03c5:1033   521 03c5:1034   522 03c5:1038   523 03c5:103b
   524 03c5:103d   526 03c5:103f   528 03c5:1040   529 03c5:1043
   530 03c5:1044   532 03c5:1047   533 03c5:104c   550 03c5:104d
   552 03c5:104f   554 03c5:1053   555 03c5:1056   557 03c5:1058
   560 03c5:105a   562 03c5:105f   563 03c5:1064   565 03c5:1066
   567 03c5:106a   569 03c5:106b   571 03c5:106c   574 03c5:106e
   588 03c5:106f   590 03c5:1077   592 03c5:107d   593 03c5:1082
   595 03c5:1084   599 03c5:1086   600 03c5:1089   603 03c5:108b
   604 03c5:108f   605 03c5:1093   607 03c5:1096   609 03c5:1098
   610 03c5:109d   611 03c5:109f   613 03c5:10a1   614 03c5:10a6
   616 03c5:10a8   618 03c5:10ab   619 03c5:10b0   620 03c5:10b2
   622 03c5:10b4   624 03c5:10b7   625 03c5:10bc   627 03c5:10be
   628 03c5:10c1   630 03c5:10c2   631 03c5:10c5   632 03c5:10c6
   633 03c5:10c7   635 03c5:10c8   636 03c5:10ca   637 03c5:10cc
   638 03c5:10ce   640 03c5:10d0   641 03c5:10d1   643 03c5:10d4
   645 03c5:10d8   647 03c5:10db   649 03c5:10de   651 03c5:10e0
   653 03c5:10e3   656 03c5:10eb   669 03c5:10ec   671 03c5:10f3
   672 03c5:10f4   675 03c5:10f5   676 03c5:10f9   677 03c5:10fd
   682 03c5:1101   683 03c5:1105   684 03c5:1108   685 03c5:110a
   686 03c5:110c   687 03c5:110f   689 03c5:1113   691 03c5:1114
   692 03c5:1116   694 03c5:1118   696 03c5:1119   698 03c5:111b
   699 03c5:111e   700 03c5:111f   701 03c5:1120   703 03c5:1123
   705 03c5:1126   707 03c5:112a   708 03c5:112d   710 03c5:112f
   711 03c5:1134   713 03c5:1136   715 03c5:113a   718 03c5:1141
   736 03c5:1142   737 03c5:1143   739 03c5:1145   741 03c5:114b
   742 03c5:114c   743 03c5:114f   744 03c5:1152   745 03c5:1156
   746 03c5:1159   748 03c5:115b   750 03c5:115c   751 03c5:115e
   752 03c5:1160   753 03c5:1162   754 03c5:1164   755 03c5:1165
   757 03c5:1166   759 03c5:1167   761 03c5:1169   763 03c5:116f
   765 03c5:1170

Line numbers for RET\MAPLOAD.OBJ(.\MAPLOAD.asm) segment ACODE

   104 0264:0cbf   106 0264:0cc2   107 0264:0cc6   109 0264:0cc9
   112 0264:0ccd   113 0264:0cd2   117 0264:0cd4   122 0264:0cd7
   126 0264:0cda   130 0264:0cdd   131 0264:0ce0   133 0264:0ce2
   135 0264:0ce5   136 0264:0ce8   138 0264:0cea   141 0264:0cec
   142 0264:0cf0   146 0264:0cf3   148 0264:0cf6   149 0264:0cf9
   151 0264:0cfb   152 0264:0cff   154 0264:0d02   160 0264:0d04
   161 0264:0d08   162 0264:0d09   164 0264:0d0c   167 0264:0d0f

Line numbers for RET\UTIL_MA2.OBJ(R:\MAX\386max\UTIL_MA2.asm) segment UCODE

   338 03c5:1173   342 03c5:1179   345 03c5:117d   346 03c5:117f
   347 03c5:1183   348 03c5:1186   350 03c5:1188   351 03c5:118b
   352 03c5:118d   353 03c5:1190   355 03c5:1192   356 03c5:1193
   357 03c5:1196   358 03c5:1198   360 03c5:1199   361 03c5:119d
   365 03c5:119f   366 03c5:11a5   367 03c5:11a9   369 03c5:11af
   372 03c5:11b1   376 03c5:11b3   378 03c5:11b5   379 03c5:11b8
   381 03c5:11b9   382 03c5:11bb   386 03c5:11bd   387 03c5:11bf
   389 03c5:11c1   390 03c5:11c3   392 03c5:11c5   394 03c5:11ca
   395 03c5:11cc   397 03c5:11ce   398 03c5:11d0   400 03c5:11d2
   401 03c5:11d4   403 03c5:11d6   405 03c5:11d8   408 03c5:11da
   409 03c5:11de   411 03c5:11e2   412 03c5:11e3   413 03c5:11e5
   415 03c5:11e9   418 03c5:11ef   432 03c5:11f0   434 03c5:11f2
   436 03c5:11f5   437 03c5:11f7   439 03c5:11f9   442 03c5:11fb
   443 03c5:11fd   444 03c5:1201   446 03c5:1205   449 03c5:1207
   462 03c5:1208   464 03c5:1210   466 03c5:1216   467 03c5:121c
   469 03c5:121e   470 03c5:1224   475 03c5:122a   476 03c5:122b
   479 03c5:122c   481 03c5:1230   483 03c5:1233   484 03c5:1237
   485 03c5:123a   487 03c5:123c   488 03c5:123e   489 03c5:1242
   491 03c5:1245   492 03c5:1248   493 03c5:124c   495 03c5:124f
   496 03c5:1251   497 03c5:1253   498 03c5:1255   499 03c5:1257
   500 03c5:125a   501 03c5:125e   503 03c5:1261   510 03c5:1264
   511 03c5:126a   512 03c5:126d   514 03c5:1270   515 03c5:1276
   517 03c5:127c   518 03c5:1280   520 03c5:1283   521 03c5:1286
   522 03c5:1289   523 03c5:1291   525 03c5:1294   526 03c5:129a
   528 03c5:129c   529 03c5:12a0   531 03c5:12a3   532 03c5:12a6
   533 03c5:12a9   534 03c5:12b1   536 03c5:12b4   539 03c5:12b6
   542 03c5:12be   559 03c5:12bf   564 03c5:12c1   565 03c5:12c7
   567 03c5:12c9   568 03c5:12cf   570 03c5:12d1   572 03c5:12d4
   573 03c5:12d9   575 03c5:12db   576 03c5:12dd   577 03c5:12e1
   579 03c5:12e2   582 03c5:12e4   585 03c5:12e6   587 03c5:12e7
   590 03c5:12e9   592 03c5:12ea   595 03c5:12ec   610 03c5:12ed
   612 03c5:12f5   614 03c5:12f6   616 03c5:12fa   617 03c5:12fe
   619 03c5:1301   620 03c5:1305   622 03c5:1308   623 03c5:130c
   625 03c5:130f   626 03c5:1313   628 03c5:1316   630 03c5:131b
   631 03c5:131d   633 03c5:131e   634 03c5:1321   636 03c5:1323
   638 03c5:1324   639 03c5:1326   640 03c5:132a   642 03c5:132b
   645 03c5:132d   646 03c5:1331   655 03c5:1334   656 03c5:1338
   658 03c5:133b   659 03c5:133f   660 03c5:1340   662 03c5:1344
   663 03c5:1348   665 03c5:134b   667 03c5:1350   670 03c5:1351
   671 03c5:1356   673 03c5:135b   674 03c5:135e   675 03c5:1362
   677 03c5:1365   678 03c5:1368   679 03c5:136c   681 03c5:136d
   682 03c5:1371   684 03c5:1374   686 03c5:1378   687 03c5:137a
   688 03c5:137c   689 03c5:137e   690 03c5:1380   691 03c5:1383
   692 03c5:1387   694 03c5:138a   696 03c5:138d   698 03c5:1390
   699 03c5:1392   701 03c5:1394   702 03c5:1397   705 03c5:1399
   708 03c5:139c   710 03c5:139e   711 03c5:13a0   713 03c5:13a2
   714 03c5:13a6   716 03c5:13a8   719 03c5:13aa   720 03c5:13af
   721 03c5:13b2   722 03c5:13b5   723 03c5:13b8   724 03c5:13b9
   726 03c5:13bc   727 03c5:13c1   729 03c5:13c6   730 03c5:13ca
   731 03c5:13cf   735 03c5:13d2   736 03c5:13d5   738 03c5:13d7
   739 03c5:13da   741 03c5:13dc   742 03c5:13e1   744 03c5:13e3
   746 03c5:13e6   747 03c5:13ec   749 03c5:13ee   750 03c5:13f1
   752 03c5:13f6   753 03c5:13f9   756 03c5:13fe   757 03c5:1401
   759 03c5:1406   760 03c5:1409   763 03c5:140e   764 03c5:1411
   766 03c5:1416   767 03c5:1419   769 03c5:141e   770 03c5:1421
   772 03c5:1426   773 03c5:1429   778 03c5:142e   779 03c5:1432
   780 03c5:1435   782 03c5:143a   787 03c5:143c   788 03c5:1440
   791 03c5:1445   794 03c5:1449   796 03c5:144c   797 03c5:144e
   809 03c5:1453   810 03c5:1454   813 03c5:1456   814 03c5:145c
   816 03c5:145e   817 03c5:1464   822 03c5:1466   824 03c5:146a
   825 03c5:146e   831 03c5:1470   832 03c5:1476   836 03c5:147b
   840 03c5:147e   843 03c5:1482   844 03c5:1483   847 03c5:1484
   848 03c5:1488   849 03c5:148c   851 03c5:148f   853 03c5:1490
   854 03c5:1492   856 03c5:1494   858 03c5:1495   860 03c5:1497
   865 03c5:149a   870 03c5:149e   871 03c5:14a0   872 03c5:14a2
   874 03c5:14a5   876 03c5:14a7   877 03c5:14a8   879 03c5:14aa
   881 03c5:14ad   882 03c5:14ae   884 03c5:14b3   885 03c5:14b5
   886 03c5:14b6   887 03c5:14b9   888 03c5:14bb   889 03c5:14bc
   891 03c5:14be   893 03c5:14bf   895 03c5:14c1   897 03c5:14c3
   899 03c5:14c5   900 03c5:14c7   901 03c5:14c9   902 03c5:14cb
   904 03c5:14cd   906 03c5:14cf   907 03c5:14d1   908 03c5:14d3
   912 03c5:14d5   913 03c5:14d7   915 03c5:14d9   917 03c5:14db
   921 03c5:14de   922 03c5:14df   925 03c5:14e0   926 03c5:14e1
   929 03c5:14e2   931 03c5:14e6   933 03c5:14e7   934 03c5:14e9
   936 03c5:14ee   938 03c5:14ef   944 03c5:14f1   945 03c5:14f4
   946 03c5:14f8   947 03c5:14f9   950 03c5:14fc   951 03c5:1501
   953 03c5:1503   954 03c5:1506   956 03c5:150a   957 03c5:150b
   960 03c5:150d   961 03c5:150e   962 03c5:1513   963 03c5:1518
   966 03c5:1519   967 03c5:151d   969 03c5:151f   970 03c5:1521
   972 03c5:1526   973 03c5:152a   975 03c5:152f   976 03c5:1531
   977 03c5:1533   981 03c5:1538   982 03c5:153b   983 03c5:153f
   985 03c5:1542   986 03c5:1545   988 03c5:1549   989 03c5:154d
   991 03c5:1550   992 03c5:1554   994 03c5:1555   995 03c5:1557
   996 03c5:1559   997 03c5:155b   998 03c5:155d   999 03c5:1560
  1000 03c5:1564  1002 03c5:1567  1003 03c5:156a  1005 03c5:156d
  1006 03c5:156e  1009 03c5:156f  1010 03c5:1573  1011 03c5:1577
  1012 03c5:157a  1015 03c5:157c  1016 03c5:1581  1017 03c5:1587
  1018 03c5:158d  1023 03c5:1590  1024 03c5:1591  1027 03c5:1592
  1029 03c5:1596  1031 03c5:1599  1032 03c5:159d  1033 03c5:15a2
  1034 03c5:15a4  1035 03c5:15a8  1036 03c5:15ab  1038 03c5:15ad
  1044 03c5:15b0  1045 03c5:15b1  1048 03c5:15b2  1050 03c5:15b6
  1052 03c5:15b9  1054 03c5:15ba  1057 03c5:15be  1058 03c5:15c3
  1060 03c5:15c5  1063 03c5:15c6  1069 03c5:15c9  1070 03c5:15cb
  1072 03c5:15cc  1073 03c5:15d2  1075 03c5:15d4  1077 03c5:15d8
  1078 03c5:15dc  1079 03c5:15df  1081 03c5:15e4  1082 03c5:15e7
  1086 03c5:15ed  1089 03c5:15f1  1091 03c5:15f3  1093 03c5:15f7
  1094 03c5:15f8  1096 03c5:15fa  1098 03c5:15fd  1099 03c5:1602
  1101 03c5:1604  1102 03c5:1606  1104 03c5:1608  1107 03c5:160f
  1109 03c5:1612  1112 03c5:1617  1113 03c5:161b  1115 03c5:161e
  1116 03c5:161f  1118 03c5:1620  1120 03c5:1624  1121 03c5:1629
  1123 03c5:162b  1125 03c5:162e  1126 03c5:1631  1127 03c5:1632
  1128 03c5:1635  1130 03c5:1636  1131 03c5:1639  1133 03c5:163b
  1137 03c5:163e  1139 03c5:1641  1140 03c5:1642  1143 03c5:1643
  1144 03c5:1647  1145 03c5:164a  1147 03c5:164c  1148 03c5:164f
  1149 03c5:1651  1151 03c5:1656  1152 03c5:1658  1154 03c5:1659
  1158 03c5:165c  1159 03c5:1662  1161 03c5:1663  1162 03c5:1665
  1164 03c5:1666  1165 03c5:1668  1167 03c5:166a  1169 03c5:166c
  1171 03c5:166d  1175 03c5:1670  1177 03c5:1672  1180 03c5:1674
  1186 03c5:1676  1187 03c5:1679  1192 03c5:167c  1193 03c5:1680
  1196 03c5:1682  1197 03c5:1686  1199 03c5:1688  1200 03c5:168c
  1202 03c5:168e  1203 03c5:1693  1205 03c5:1695  1207 03c5:1698
  1210 03c5:169a  1212 03c5:169e  1213 03c5:169f  1218 03c5:16a0
  1219 03c5:16a4  1220 03c5:16a7  1224 03c5:16a9  1225 03c5:16ab
  1227 03c5:16ad  1232 03c5:16b0  1233 03c5:16b2  1235 03c5:16b4
  1236 03c5:16b7  1237 03c5:16bb  1238 03c5:16bf  1241 03c5:16c1
  1247 03c5:16c3  1248 03c5:16c6  1250 03c5:16c9  1251 03c5:16ca
  1253 03c5:16cb  1254 03c5:16cf  1256 03c5:16d3  1257 03c5:16d6
  1259 03c5:16d8  1268 03c5:16da  1270 03c5:16dd  1273 03c5:16df
  1275 03c5:16e3  1277 03c5:16e6  1283 03c5:16e8  1284 03c5:16ee
  1285 03c5:16f4  1287 03c5:16f9  1292 03c5:16fb  1294 03c5:16fe
  1296 03c5:1701  1297 03c5:1702  1299 03c5:1703  1300 03c5:1707
  1301 03c5:170b  1302 03c5:170e  1304 03c5:1710  1307 03c5:1712
  1310 03c5:1715  1311 03c5:1716  1317 03c5:1717  1318 03c5:171b
  1320 03c5:171e  1322 03c5:171f  1323 03c5:1721  1325 03c5:1723
  1327 03c5:1727  1329 03c5:1729  1330 03c5:172c  1331 03c5:172f
  1332 03c5:1737  1336 03c5:173a  1337 03c5:1740  1339 03c5:1746
  1340 03c5:174b  1342 03c5:174d  1343 03c5:1750  1345 03c5:1753
  1346 03c5:1756  1347 03c5:1759  1349 03c5:175c  1350 03c5:175f
  1352 03c5:1762  1353 03c5:1765  1355 03c5:1768  1356 03c5:176b
  1358 03c5:176e  1362 03c5:1771  1363 03c5:1777  1365 03c5:1779
  1366 03c5:177d  1368 03c5:1780  1369 03c5:1783  1370 03c5:1786
  1371 03c5:178e  1373 03c5:1791  1377 03c5:1793  1380 03c5:179b
  1393 03c5:179c  1395 03c5:179d  1396 03c5:17a0  1397 03c5:17a3
  1398 03c5:17a6  1400 03c5:17a9  1402 03c5:17aa  1415 03c5:17ab
  1417 03c5:17af  1418 03c5:17b0  1421 03c5:17b1  1422 03c5:17b5
  1423 03c5:17b8  1424 03c5:17ba  1426 03c5:17bc  1429 03c5:17c0
  1451 03c5:17c1  1456 03c5:17c3  1457 03c5:17c5  1459 03c5:17c8
  1460 03c5:17cc  1461 03c5:17cd  1463 03c5:17d0  1464 03c5:17d6
  1466 03c5:17dc  1467 03c5:17e0  1469 03c5:17e3  1471 03c5:17e5
  1494 03c5:17e6  1496 03c5:17ef  1497 03c5:17f0  1502 03c5:17f1
  1503 03c5:17f2  1504 03c5:17f5  1505 03c5:17f7  1506 03c5:17f9
  1508 03c5:17fa  1512 03c5:17fb  1513 03c5:1800  1514 03c5:1805
  1515 03c5:180a  1517 03c5:180f  1518 03c5:1816  1520 03c5:181c
  1521 03c5:181f  1524 03c5:1821  1526 03c5:1823  1527 03c5:1827
  1528 03c5:182a  1529 03c5:182c  1530 03c5:182e  1531 03c5:1830
  1533 03c5:1832  1534 03c5:1836  1536 03c5:1838  1537 03c5:183a
  1539 03c5:183c  1540 03c5:183e  1544 03c5:1840  1545 03c5:1844
  1547 03c5:1846  1548 03c5:184a  1550 03c5:184c  1551 03c5:1851
  1557 03c5:1853  1558 03c5:185a  1559 03c5:185f  1561 03c5:1864
  1564 03c5:1866  1565 03c5:1868  1566 03c5:186a  1567 03c5:186c
  1569 03c5:186f  1570 03c5:1871  1571 03c5:1872  1573 03c5:1873
  1575 03c5:1876  1577 03c5:1878  1578 03c5:187b  1580 03c5:187c
  1583 03c5:1885  1602 03c5:1886  1604 03c5:188d  1605 03c5:188f
  1606 03c5:1890  1609 03c5:1892  1611 03c5:1894  1612 03c5:1895
  1615 03c5:1896  1616 03c5:189a  1618 03c5:189d  1620 03c5:189f
  1621 03c5:18a2  1623 03c5:18a4  1624 03c5:18a8  1626 03c5:18aa
  1627 03c5:18ad  1629 03c5:18ae  1631 03c5:18af  1632 03c5:18b1
  1634 03c5:18b3  1635 03c5:18b5  1637 03c5:18b7  1638 03c5:18b9
  1640 03c5:18bb  1641 03c5:18bd  1643 03c5:18bf  1645 03c5:18c1
  1647 03c5:18c2  1649 03c5:18c4  1652 03c5:18cb  1665 03c5:18cc
  1667 03c5:18d0  1668 03c5:18d1  1671 03c5:18d2  1672 03c5:18d6
  1673 03c5:18d9  1674 03c5:18db  1676 03c5:18dd  1679 03c5:18e1
  1693 03c5:18e2  1695 03c5:18ea  1696 03c5:18ec  1698 03c5:18ee
  1699 03c5:18ef  1702 03c5:18f0  1704 03c5:18f1  1705 03c5:18f4
  1706 03c5:18f6  1707 03c5:18f7  1708 03c5:18f9  1710 03c5:18fa
  1711 03c5:18fd  1713 03c5:18ff  1714 03c5:1901  1715 03c5:1903
  1716 03c5:1905  1717 03c5:1907  1718 03c5:1909  1719 03c5:190b
  1720 03c5:190d  1721 03c5:190f  1723 03c5:1911  1724 03c5:1914
  1726 03c5:1916  1727 03c5:1918  1729 03c5:1919  1730 03c5:191b
  1731 03c5:191c  1733 03c5:191d  1734 03c5:191e  1736 03c5:191f
  1737 03c5:1921  1738 03c5:1923  1740 03c5:1925  1742 03c5:1926
  1744 03c5:192e  1752 03c5:192f  1754 03c5:1930  1755 03c5:1931
  1758 03c5:1932  1760 03c5:1935  1763 03c5:1936  1779 03c5:1937
  1781 03c5:193c  1782 03c5:193d  1785 03c5:193e  1786 03c5:1941
  1787 03c5:1943  1790 03c5:1945  1792 03c5:1946  1794 03c5:1948
  1795 03c5:194c  1796 03c5:194f  1797 03c5:1951  1799 03c5:1953
  1800 03c5:1956  1801 03c5:1958  1802 03c5:195a  1803 03c5:195c
  1805 03c5:195e  1807 03c5:1960  1810 03c5:1962  1811 03c5:1964
  1814 03c5:1965  1816 03c5:196a

Line numbers for RET\UTIL_MAC.OBJ(R:\MAX\386max\UTIL_MAC.asm) segment UCODE

    75 03c5:196b    79 03c5:196e    81 03c5:1972    82 03c5:1975
    84 03c5:1977    85 03c5:1979    87 03c5:197b    90 03c5:197d
    92 03c5:1982    95 03c5:1984    97 03c5:1985   100 03c5:1988
   113 03c5:1989   120 03c5:198d   121 03c5:1990   123 03c5:1992
   124 03c5:1994   128 03c5:1996   130 03c5:1997   131 03c5:199a
   134 03c5:199c   135 03c5:19a0   137 03c5:19a4   140 03c5:19a5
   141 03c5:19a7   142 03c5:19aa   144 03c5:19ae   147 03c5:19b2

Line numbers for RET\UTIL_NUM.OBJ(R:\MAX\386max\UTIL_NUM.asm) segment UCODE

    67 03c5:19b3    68 03c5:19b4    69 03c5:19b7    71 03c5:19b9
    73 03c5:19ba    75 03c5:19c0    76 03c5:19c5    78 03c5:19c7
    79 03c5:19ca    81 03c5:19cd    82 03c5:19ce    85 03c5:19cf
    87 03c5:19d2    88 03c5:19d4    90 03c5:19d5    92 03c5:19d7
    95 03c5:19da    96 03c5:19dc    97 03c5:19de    98 03c5:19df
    99 03c5:19e0   101 03c5:19e2   102 03c5:19e4   103 03c5:19e6
   105 03c5:19e8   106 03c5:19ed   108 03c5:19ef   110 03c5:19f0
   111 03c5:19f3   113 03c5:19f5   114 03c5:19f6   115 03c5:19f8
   116 03c5:19f9   118 03c5:19fa   120 03c5:19fb   123 03c5:19fd
   124 03c5:1a00   127 03c5:1a02   128 03c5:1a07   130 03c5:1a09
   133 03c5:1a0c   134 03c5:1a0d   136 03c5:1a10   139 03c5:1a16
   141 03c5:1a17   142 03c5:1a1a   144 03c5:1a1b   166 03c5:1a1e
   168 03c5:1a1f   170 03c5:1a22   172 03c5:1a23   173 03c5:1a25
   174 03c5:1a27   177 03c5:1a29   179 03c5:1a2b   181 03c5:1a2c
   184 03c5:1a2e   186 03c5:1a30   188 03c5:1a31

Line numbers for RET\UTIL_STR.OBJ(R:\MAX\386max\UTIL_STR.asm) segment ACODE

    66 0264:0d10    68 0264:0d14    70 0264:0d18    72 0264:0d19
    73 0264:0d1c    76 0264:0d1e    78 0264:0d23    85 0264:0d24
    86 0264:0d26    88 0264:0d28    90 0264:0d2b    91 0264:0d2f
    93 0264:0d31    95 0264:0d37    96 0264:0d3d    98 0264:0d3f
    99 0264:0d42   100 0264:0d45   102 0264:0d4d   104 0264:0d51
   105 0264:0d54   106 0264:0d57   108 0264:0d5f   110 0264:0d63
   128 0264:0d64   130 0264:0d68   132 0264:0d6a   134 0264:0d6b
   135 0264:0d6d   137 0264:0d6f   138 0264:0d71   140 0264:0d73
   141 0264:0d75   142 0264:0d77   143 0264:0d7b   144 0264:0d7d
   146 0264:0d80   148 0264:0d82   153 0264:0d84   155 0264:0d88
   157 0264:0d8c

Line numbers for RET\UTIL_OPT.NRM(R:\MAX\386max\UTIL_OPT.asm) segment UCODE

  1115 03c5:1a32  1117 03c5:1a36  1118 03c5:1a3b  1120 03c5:1a3d
  1121 03c5:1a41  1123 03c5:1a43  1124 03c5:1a45  1125 03c5:1a49
  1127 03c5:1a4d  1128 03c5:1a4f  1130 03c5:1a51  1131 03c5:1a55
  1132 03c5:1a59  1134 03c5:1a5b  1135 03c5:1a5d  1137 03c5:1a5f
  1139 03c5:1a61  1140 03c5:1a64  1142 03c5:1a66  1144 03c5:1a6a
  1146 03c5:1a6e  1171 03c5:1a6f  1173 03c5:1a74  1174 03c5:1a78
  1175 03c5:1a7a  1177 03c5:1a7d  1178 03c5:1a81  1180 03c5:1a83
  1181 03c5:1a87  1183 03c5:1a89  1186 03c5:1a8d  1187 03c5:1a8f
  1189 03c5:1a91  1190 03c5:1a93  1195 03c5:1a95  1197 03c5:1a96
  1198 03c5:1a98  1199 03c5:1a9a  1200 03c5:1a9c  1202 03c5:1a9e
  1204 03c5:1aa0  1206 03c5:1aa1  1209 03c5:1aa4  1210 03c5:1aa8
  1212 03c5:1aaa  1215 03c5:1aae  1217 03c5:1ab2  1220 03c5:1ab4
  1222 03c5:1ab7  1224 03c5:1ab9  1226 03c5:1aba  1228 03c5:1abf
  1253 03c5:1ac0  1255 03c5:1ac3  1256 03c5:1ac5  1257 03c5:1ac6
  1259 03c5:1ac8  1260 03c5:1acc  1262 03c5:1ace  1263 03c5:1ad3
  1265 03c5:1ad5  1268 03c5:1ad9  1269 03c5:1adb  1271 03c5:1add
  1272 03c5:1adf  1277 03c5:1ae1  1279 03c5:1ae2  1280 03c5:1ae4
  1281 03c5:1ae6  1282 03c5:1ae8  1284 03c5:1aea  1286 03c5:1aec
  1288 03c5:1aed  1291 03c5:1af0  1292 03c5:1af4  1294 03c5:1af6
  1297 03c5:1afa  1299 03c5:1afe  1301 03c5:1b01  1351 03c5:1b02
  1353 03c5:1b08  1354 03c5:1b0b  1356 03c5:1b0d  1357 03c5:1b10
  1361 03c5:1b15  1362 03c5:1b18  1363 03c5:1b1b  1364 03c5:1b1f
  1367 03c5:1b21  1368 03c5:1b25  1370 03c5:1b2a  1371 03c5:1b2f
  1374 03c5:1b34  1375 03c5:1b38  1376 03c5:1b3c  1377 03c5:1b40
  1392 03c5:1b43  1393 03c5:1b47  1395 03c5:1b49  1396 03c5:1b4d
  1398 03c5:1b4f  1399 03c5:1b54  1401 03c5:1b59  1402 03c5:1b5d
  1406 03c5:1b5f  1408 03c5:1b61  1410 03c5:1b64  1411 03c5:1b67
  1413 03c5:1b69  1416 03c5:1b6b  1417 03c5:1b71  1419 03c5:1b73
  1420 03c5:1b77  1423 03c5:1b7c  1424 03c5:1b7f  1426 03c5:1b81
  1428 03c5:1b85  1431 03c5:1b87  1433 03c5:1b89  1439 03c5:1b8e
  1440 03c5:1b91  1442 03c5:1b94  1443 03c5:1b98  1445 03c5:1b9a
  1446 03c5:1b9d  1447 03c5:1b9f  1449 03c5:1ba4  1450 03c5:1ba7
  1451 03c5:1baa  1452 03c5:1bad  1453 03c5:1bb0  1454 03c5:1bb3
  1456 03c5:1bb6  1458 03c5:1bb9  1459 03c5:1bbc  1461 03c5:1bbf
  1462 03c5:1bc2  1464 03c5:1bc4  1465 03c5:1bc7  1467 03c5:1bc9
  1469 03c5:1bcb  1470 03c5:1bcd  1475 03c5:1bcf  1480 03c5:1bd2
  1481 03c5:1bd7  1483 03c5:1bd9  1485 03c5:1bdc  1486 03c5:1bde
  1488 03c5:1be0  1490 03c5:1be1  1495 03c5:1be4  1496 03c5:1be9
  1498 03c5:1beb  1499 03c5:1bee  1502 03c5:1bf0  1507 03c5:1bf1
  1509 03c5:1bf4  1515 03c5:1bf6  1516 03c5:1bf9  1518 03c5:1bfa
  1519 03c5:1bfd  1523 03c5:1bfe  1525 03c5:1c01  1526 03c5:1c04
  1528 03c5:1c06  1529 03c5:1c09  1533 03c5:1c0b  1534 03c5:1c0e
  1536 03c5:1c10  1542 03c5:1c12  1543 03c5:1c15  1545 03c5:1c17
  1546 03c5:1c1c  1548 03c5:1c1e  1549 03c5:1c21  1551 03c5:1c24
  1552 03c5:1c26  1553 03c5:1c28  1557 03c5:1c2a  1559 03c5:1c2d
  1560 03c5:1c30  1562 03c5:1c32  1563 03c5:1c35  1567 03c5:1c37
  1568 03c5:1c3a  1570 03c5:1c3c  1576 03c5:1c3e  1577 03c5:1c41
  1580 03c5:1c43  1581 03c5:1c46  1582 03c5:1c4a  1585 03c5:1c4d
  1586 03c5:1c4e  1589 03c5:1c53  1590 03c5:1c57  1592 03c5:1c59
  1593 03c5:1c5c  1594 03c5:1c5f  1595 03c5:1c63  1597 03c5:1c65
  1601 03c5:1c68  1603 03c5:1c6b  1606 03c5:1c6d  1608 03c5:1c70
  1611 03c5:1c72  1614 03c5:1c75  1615 03c5:1c79  1617 03c5:1c7b
  1618 03c5:1c7f  1620 03c5:1c81  1621 03c5:1c85  1622 03c5:1c89
  1624 03c5:1c8b  1626 03c5:1c8f  1627 03c5:1c92  1631 03c5:1c94
  1633 03c5:1c97  1635 03c5:1c9d  1657 03c5:1c9e  1658 03c5:1ca0
  1660 03c5:1ca3  1679 03c5:1ca4  1682 03c5:1caa  1688 03c5:1cad
  1690 03c5:1caf  1691 03c5:1cb5  1692 03c5:1cbb  1693 03c5:1cc1
  1695 03c5:1cc4  1696 03c5:1cc7  1698 03c5:1ccc  1701 03c5:1cce
  1702 03c5:1cd3  1704 03c5:1cd4  1705 03c5:1cda  1707 03c5:1cdc
  1708 03c5:1ce0  1710 03c5:1ce4  1717 03c5:1ce6  1719 03c5:1cea
  1722 03c5:1cf0  1723 03c5:1cf4  1725 03c5:1cf8  1726 03c5:1cfb
  1727 03c5:1d01  1729 03c5:1d05  1731 03c5:1d07  1732 03c5:1d0d
  1734 03c5:1d0f  1735 03c5:1d15  1737 03c5:1d17  1739 03c5:1d18
  1745 03c5:1d1a  1747 03c5:1d1b  1750 03c5:1d1f  1751 03c5:1d23
  1758 03c5:1d27  1759 03c5:1d2c  1761 03c5:1d2e  1763 03c5:1d30
  1767 03c5:1d34  1768 03c5:1d36  1770 03c5:1d3a  1771 03c5:1d3e
  1773 03c5:1d40  1775 03c5:1d43  1777 03c5:1d45  1783 03c5:1d47
  1784 03c5:1d4b  1786 03c5:1d4f  1788 03c5:1d52  1791 03c5:1d54
  1792 03c5:1d57  1793 03c5:1d59  1795 03c5:1d5c  1797 03c5:1d5d
  1800 03c5:1d63  1814 03c5:1d64  1818 03c5:1d6a  1819 03c5:1d6d
  1821 03c5:1d70  1822 03c5:1d76  1823 03c5:1d7c  1824 03c5:1d82
  1828 03c5:1d88  1832 03c5:1d8b  1833 03c5:1d8e  1835 03c5:1d91
  1836 03c5:1d96  1838 03c5:1d9b  1841 03c5:1d9f  1842 03c5:1da3
  1848 03c5:1da6  1849 03c5:1daa  1850 03c5:1daf  1851 03c5:1db4
  1853 03c5:1db9  1854 03c5:1dbb  1855 03c5:1dbd  1857 03c5:1dbf
  1858 03c5:1dc1  1860 03c5:1dc3  1861 03c5:1dc5  1866 03c5:1dc7
  1867 03c5:1dca  1869 03c5:1dcd  1870 03c5:1dd0  1872 03c5:1dd1
  1873 03c5:1dd3  1874 03c5:1dd5  1876 03c5:1dd7  1881 03c5:1ddc
  1882 03c5:1de1  1884 03c5:1de6  1885 03c5:1de8  1887 03c5:1dea
  1892 03c5:1dec  1893 03c5:1dee  1895 03c5:1df0  1897 03c5:1df2
  1898 03c5:1df6  1900 03c5:1dfa  1901 03c5:1dfc  1902 03c5:1dff
  1904 03c5:1e02  1905 03c5:1e06  1907 03c5:1e09  1908 03c5:1e0d
  1910 03c5:1e10  1911 03c5:1e14  1913 03c5:1e17  1914 03c5:1e1b
  1916 03c5:1e1e  1917 03c5:1e22  1919 03c5:1e25  1920 03c5:1e29
  1922 03c5:1e2c  1923 03c5:1e2f  1925 03c5:1e31  1927 03c5:1e35
  1928 03c5:1e38  1930 03c5:1e3a  1932 03c5:1e3e  1933 03c5:1e43
  1934 03c5:1e48  1936 03c5:1e4c  1939 03c5:1e4f  1940 03c5:1e53
  1942 03c5:1e57  1944 03c5:1e5b  1947 03c5:1e60  1948 03c5:1e61
  1951 03c5:1e62  1952 03c5:1e65  1953 03c5:1e68  1954 03c5:1e6a
  1956 03c5:1e6c  1958 03c5:1e70  1960 03c5:1e76  1961 03c5:1e7a
  1962 03c5:1e7e  1963 03c5:1e82  1964 03c5:1e85  1965 03c5:1e88
  1967 03c5:1e8b  1968 03c5:1e8d  1970 03c5:1e8f  1971 03c5:1e91
  1972 03c5:1e92  1973 03c5:1e95  1974 03c5:1e97  1975 03c5:1e99
  1976 03c5:1e9b  1978 03c5:1e9d  1979 03c5:1ea0  1981 03c5:1ea2
  1982 03c5:1ea5  1983 03c5:1ea6  1986 03c5:1ea8  1987 03c5:1eab
  1988 03c5:1ead  1989 03c5:1eb0  1990 03c5:1eb2  1991 03c5:1eb6
  1992 03c5:1eba  1995 03c5:1ebc  1996 03c5:1ebe  1997 03c5:1ec1
  1998 03c5:1ec4  1999 03c5:1ec7  2000 03c5:1eca  2001 03c5:1ecd
  2002 03c5:1ed0  2003 03c5:1ed3  2004 03c5:1ed6  2005 03c5:1ed8
  2006 03c5:1edb  2007 03c5:1ede  2008 03c5:1ee1  2009 03c5:1ee2
  2011 03c5:1ee4  2012 03c5:1ee7  2013 03c5:1eea  2016 03c5:1eec
  2017 03c5:1ef0  2021 03c5:1ef5  2024 03c5:1efb  2037 03c5:1efc
  2039 03c5:1efd  2040 03c5:1f00  2042 03c5:1f03  2044 03c5:1f04
  5063 03c5:1f05  5067 03c5:1f09  5068 03c5:1f0d  5069 03c5:1f11
  5070 03c5:1f15  5074 03c5:1f17  5075 03c5:1f1d  5076 03c5:1f21
  5078 03c5:1f25  5079 03c5:1f27  5080 03c5:1f2a  5081 03c5:1f2c
  5083 03c5:1f2e  5087 03c5:1f32  5089 03c5:1f35  5091 03c5:1f37
  5092 03c5:1f39  5093 03c5:1f3b  5095 03c5:1f3d  5097 03c5:1f42
  5100 03c5:1f44  5102 03c5:1f46  5105 03c5:1f48  5107 03c5:1f4c

Line numbers for RET\UTIL_USE.OBJ(R:\MAX\386max\UTIL_USE.asm) segment ACODE

    95 0264:0d8d    99 0264:0d90   100 0264:0d92   101 0264:0d9a
   103 0264:0d9c   107 0264:0d9e   108 0264:0da0   110 0264:0da4
   111 0264:0da7   115 0264:0da9   116 0264:0dab   118 0264:0daf
   119 0264:0db1   121 0264:0db3   123 0264:0db7   125 0264:0db8
   128 0264:0dba   130 0264:0dbe   132 0264:0dbf   134 0264:0dc2
   152 0264:0dc3   154 0264:0dca   155 0264:0dce   157 0264:0dd3
   158 0264:0dd4   163 0264:0dd5   164 0264:0dd9   165 0264:0ddd
   166 0264:0ddf   168 0264:0de3   169 0264:0de6   171 0264:0deb
   172 0264:0def   176 0264:0df5   177 0264:0df7   178 0264:0df9
   180 0264:0dfb   181 0264:0dfd   182 0264:0e01   184 0264:0e05
   187 0264:0e07   188 0264:0e09   192 0264:0e0b   193 0264:0e0d
   195 0264:0e0f   196 0264:0e13   198 0264:0e17   199 0264:0e19
   203 0264:0e1b   205 0264:0e21   213 0264:0e23   215 0264:0e27
   218 0264:0e29   219 0264:0e2a   220 0264:0e2f   224 0264:0e31
   225 0264:0e37   227 0264:0e39   228 0264:0e3f   230 0264:0e41
   232 0264:0e42   233 0264:0e44   235 0264:0e46   236 0264:0e4c
   241 0264:0e4e   243 0264:0e52   246 0264:0e54   247 0264:0e56
   248 0264:0e5a   249 0264:0e60   251 0264:0e64   253 0264:0e67
   255 0264:0e6a   262 0264:0e6c   263 0264:0e6e   264 0264:0e72
   265 0264:0e74   267 0264:0e76   268 0264:0e7a   269 0264:0e7b
   271 0264:0e7f   272 0264:0e83   273 0264:0e85   275 0264:0e89
   276 0264:0e8b   278 0264:0e8e   280 0264:0e90   282 0264:0e94
   284 0264:0e95   288 0264:0e97   290 0264:0e98   293 0264:0e9f

Line numbers for RET\UTIL_WIN.OBJ(R:\MAX\386max\UTIL_WIN.asm) segment CODE

    71 0000:0105    73 0000:0109    74 0000:010c    81 0000:010e
    82 0000:0110    84 0000:0112    85 0000:0114    87 0000:0116
    88 0000:0118    90 0000:011a    92 0000:011f    93 0000:0121
    96 0000:0123    97 0000:0126    98 0000:0129   102 0000:012b
   103 0000:012d   104 0000:012f   105 0000:0132   107 0000:0134
   108 0000:0138   110 0000:013c   113 0000:0140   134 0000:0141
   137 0000:0142   138 0000:0148   140 0000:014a   141 0000:014c
   143 0000:0153   145 0000:0155   148 0000:0157   149 0000:0159
   152 0000:015e   154 0000:015f