
 Start  Stop   Length Name                   Class
 00000H 00000H 00000H STACK                  PROG
 00000H 0128DH 0128EH CODE                   PROG
 01290H 01D5EH 00ACFH DATA                   DATA
 01D5FH 02DC9H 0106BH TEXT                   DATA
 02DD0H 02DD0H 00000H DTAIL                  DATA
 02DD0H 02DD1H 00002H SEG_TAB                DATA
 02DD2H 02DD3H 00002H SEG_LEN                DATA
 02DD4H 02DD5H 00002H SEG_ACT                DATA

 Origin   Group
 0000:0   PGROUP

  Address         Publics by Name

 0000:109E       ALLOCSUB
 0000:0252       BIN2BYTE
 0000:025F       BIN2DIGIT
 0000:0236       BIN2DWORD
 0000:0245       BIN2WORD
 0000:19C6       BIT_EAX
 0000:19C4       BIT_EAX_EDX
 0000:0C2C       CHECK_ALLOC
 0000:1204       CHECK_ARGS
 0000:01DC       CHECK_CPUID
 0000:028E       CHECK_DBG
 0000:1155       CHECK_DEV
 0000:07F3       CHECK_EGP
 0000:117B       CHECK_EMS
 0000:0469       CHECK_EPM
 0000:0B0D       CHECK_IBV
 0000:11FB       CHECK_PHYS
 0000:0216       CHECK_VM86
 0000:2DD4       CMDARG_ACT
 0000:2DD2       CMDARG_LEN
 0000:2DD0       CMDARG_TAB
 0000:1D40       CMD_FLAG
 0000:19B6       CODESEG
 0000:16A8       CON1M
 0000:16A0       CON4K
 0000:16A4       CON64K
 0000:19B8       DATASEG
 0000:1640       DBGORIG
 0000:1660       DBGTST1
 0000:1680       DBGTST2
 0000:026D       DISPERR
 0000:1CA9       EMMNAM2
 0000:1CB2       EMMNAM3
 0000:1CBB       EMMNAM4
 0000:1CC4       EMMNAM5
 0000:1CA0       EMMNAME
 0000:1914       EPMTAB
 0000:12A6       ERRCODE
 0000:12A4       ERRMSG
 0000:12B2       ERRNUM
 0000:12A8       ERRTXT
 0000:1262       FCN_NOXLA
 0000:19BA       FIRSTPTE
 0000:1290       HEXTABLE
 0000:1C14       IBV0
 0000:1C16       IBV1
 0000:1C18       IBV2
 0000:1C1A       IBV3
 0000:1CD7       INFO
 0000:0066  Abs  INFOSIZE
 0000:1CD6       INFO_CTL
 0000:1992       LACODE
 0000:199A       LACR3
 0000:1996       LADATA
 0000:199E       LAPTE
 0000:16AC       LCLGDT
 0000:1814       LCLIDT
 0000:143C       LCLSTK
 0000:163C       LCLSTKZ
 0000:192A       LCLTSS
 0000:1CCD       MAXNAME
 0000:1C3C       MPA
 0000:1335       MSG_COPY
 0000:1BEC       MSG_DVER
 0000:1C40       MSG_FREE
 0000:1C6B       MSG_MPA
 0000:13B9       MSG_NOT386
 0000:13ED       MSG_NOTVM
 0000:1D42       MSG_UNK
 0000:13A4       MSG_VER
 0000:0001  Abs  NCMDARGS
 0000:1BEA       NEXTLOC
 0000:19BC       NEXTPTE
 0000:1C1C       NFREE
 0000:1C30       NFREE_F1
 0000:1C34       NFREE_F2
 0000:1C38       NFREE_F3
 0000:1C20       NFREE_R1
 0000:1C24       NFREE_R2
 0000:1C28       NFREE_R3
 0000:1C2C       NFREE_R4
 0000:19B2       OLDESP
 0000:19A6       PACR3
 0000:12A2       PHYSIZE
 0000:19BE       PIDT
 0000:19B0       PMI_ERR
 0000:19AA       PMI_FWD
 0000:19E4       PMSTK
 0000:1BE4       PMSTKZ
 0000:1BE4       PMSTK_FVEC
 0000:03A8       PM_IRETD0
 0000:03AE       PM_IRETD1
 0000:03E4       PM_IRETD10
 0000:03EA       PM_IRETD11
 0000:03F0       PM_IRETD12
 0000:03F6       PM_IRETD13
 0000:03FC       PM_IRETD14
 0000:0402       PM_IRETD15
 0000:0408       PM_IRETD16
 0000:040E       PM_IRETD17
 0000:0414       PM_IRETD18
 0000:041A       PM_IRETD19
 0000:03B4       PM_IRETD2
 0000:0420       PM_IRETD20
 0000:0426       PM_IRETD21
 0000:042C       PM_IRETD22
 0000:0432       PM_IRETD23
 0000:0438       PM_IRETD24
 0000:043E       PM_IRETD25
 0000:0444       PM_IRETD26
 0000:044A       PM_IRETD27
 0000:0450       PM_IRETD28
 0000:0456       PM_IRETD29
 0000:03BA       PM_IRETD3
 0000:045C       PM_IRETD30
 0000:0462       PM_IRETD31
 0000:03C0       PM_IRETD4
 0000:03C6       PM_IRETD5
 0000:03CC       PM_IRETD6
 0000:03D2       PM_IRETD7
 0000:03D8       PM_IRETD8
 0000:03DE       PM_IRETD9
 0000:1CFB       PORT67
 0000:0080       PSP_PARM_COUNT
 0000:0081       PSP_PARM_STRING
 0000:19A2       RACR3
 0000:19A4       RAPTE
 0000:1325       REASON
 0000:19C8       SAVE_EAX
 0000:19E0       SAVE_EBP
 0000:19CC       SAVE_EBX
 0000:19D0       SAVE_ECX
 0000:19DC       SAVE_EDI
 0000:19D4       SAVE_EDX
 0000:19D8       SAVE_ESI
 0000:0911       SETUP_EPM
 0000:0876       SETUP_GDT
 0000:098F       SETUP_IDT
 0000:09E4       SETUP_PMI
 0000:08F5       SETUP_TSS
 0000:0990       SET_GDT
 0000:126A       SKIP_WHITE
 0000:1275       STR_UPPER
 0000:0468       TMPINT67
 0000:12A0       TOTSIZE
 0000:16EC       VCPGDT
 0000:0100       VCPI
 0000:014F       VCPITEST
 0000:1333       VCPIVER
 0000:00E6  Abs  VER
 0000:0032  Abs  VERS_H
 0000:021E  Abs  VERS_HTU
 0000:0033  Abs  VERS_T
 0000:0030  Abs  VERS_U
 0000:142B       XLAT_TAB
 0000:2DD0       ZTAIL

  Address         Publics by Value

 0000:0001  Abs  NCMDARGS
 0000:0030  Abs  VERS_U
 0000:0032  Abs  VERS_H
 0000:0033  Abs  VERS_T
 0000:0066  Abs  INFOSIZE
 0000:0080       PSP_PARM_COUNT
 0000:0081       PSP_PARM_STRING
 0000:00E6  Abs  VER
 0000:0100       VCPI
 0000:014F       VCPITEST
 0000:01DC       CHECK_CPUID
 0000:0216       CHECK_VM86
 0000:021E  Abs  VERS_HTU
 0000:0236       BIN2DWORD
 0000:0245       BIN2WORD
 0000:0252       BIN2BYTE
 0000:025F       BIN2DIGIT
 0000:026D       DISPERR
 0000:028E       CHECK_DBG
 0000:03A8       PM_IRETD0
 0000:03AE       PM_IRETD1
 0000:03B4       PM_IRETD2
 0000:03BA       PM_IRETD3
 0000:03C0       PM_IRETD4
 0000:03C6       PM_IRETD5
 0000:03CC       PM_IRETD6
 0000:03D2       PM_IRETD7
 0000:03D8       PM_IRETD8
 0000:03DE       PM_IRETD9
 0000:03E4       PM_IRETD10
 0000:03EA       PM_IRETD11
 0000:03F0       PM_IRETD12
 0000:03F6       PM_IRETD13
 0000:03FC       PM_IRETD14
 0000:0402       PM_IRETD15
 0000:0408       PM_IRETD16
 0000:040E       PM_IRETD17
 0000:0414       PM_IRETD18
 0000:041A       PM_IRETD19
 0000:0420       PM_IRETD20
 0000:0426       PM_IRETD21
 0000:042C       PM_IRETD22
 0000:0432       PM_IRETD23
 0000:0438       PM_IRETD24
 0000:043E       PM_IRETD25
 0000:0444       PM_IRETD26
 0000:044A       PM_IRETD27
 0000:0450       PM_IRETD28
 0000:0456       PM_IRETD29
 0000:045C       PM_IRETD30
 0000:0462       PM_IRETD31
 0000:0468       TMPINT67
 0000:0469       CHECK_EPM
 0000:07F3       CHECK_EGP
 0000:0876       SETUP_GDT
 0000:08F5       SETUP_TSS
 0000:0911       SETUP_EPM
 0000:098F       SETUP_IDT
 0000:0990       SET_GDT
 0000:09E4       SETUP_PMI
 0000:0B0D       CHECK_IBV
 0000:0C2C       CHECK_ALLOC
 0000:109E       ALLOCSUB
 0000:1155       CHECK_DEV
 0000:117B       CHECK_EMS
 0000:11FB       CHECK_PHYS
 0000:1204       CHECK_ARGS
 0000:1262       FCN_NOXLA
 0000:126A       SKIP_WHITE
 0000:1275       STR_UPPER
 0000:1290       HEXTABLE
 0000:12A0       TOTSIZE
 0000:12A2       PHYSIZE
 0000:12A4       ERRMSG
 0000:12A6       ERRCODE
 0000:12A8       ERRTXT
 0000:12B2       ERRNUM
 0000:1325       REASON
 0000:1333       VCPIVER
 0000:1335       MSG_COPY
 0000:13A4       MSG_VER
 0000:13B9       MSG_NOT386
 0000:13ED       MSG_NOTVM
 0000:142B       XLAT_TAB
 0000:143C       LCLSTK
 0000:163C       LCLSTKZ
 0000:1640       DBGORIG
 0000:1660       DBGTST1
 0000:1680       DBGTST2
 0000:16A0       CON4K
 0000:16A4       CON64K
 0000:16A8       CON1M
 0000:16AC       LCLGDT
 0000:16EC       VCPGDT
 0000:1814       LCLIDT
 0000:1914       EPMTAB
 0000:192A       LCLTSS
 0000:1992       LACODE
 0000:1996       LADATA
 0000:199A       LACR3
 0000:199E       LAPTE
 0000:19A2       RACR3
 0000:19A4       RAPTE
 0000:19A6       PACR3
 0000:19AA       PMI_FWD
 0000:19B0       PMI_ERR
 0000:19B2       OLDESP
 0000:19B6       CODESEG
 0000:19B8       DATASEG
 0000:19BA       FIRSTPTE
 0000:19BC       NEXTPTE
 0000:19BE       PIDT
 0000:19C4       BIT_EAX_EDX
 0000:19C6       BIT_EAX
 0000:19C8       SAVE_EAX
 0000:19CC       SAVE_EBX
 0000:19D0       SAVE_ECX
 0000:19D4       SAVE_EDX
 0000:19D8       SAVE_ESI
 0000:19DC       SAVE_EDI
 0000:19E0       SAVE_EBP
 0000:19E4       PMSTK
 0000:1BE4       PMSTK_FVEC
 0000:1BE4       PMSTKZ
 0000:1BEA       NEXTLOC
 0000:1BEC       MSG_DVER
 0000:1C14       IBV0
 0000:1C16       IBV1
 0000:1C18       IBV2
 0000:1C1A       IBV3
 0000:1C1C       NFREE
 0000:1C20       NFREE_R1
 0000:1C24       NFREE_R2
 0000:1C28       NFREE_R3
 0000:1C2C       NFREE_R4
 0000:1C30       NFREE_F1
 0000:1C34       NFREE_F2
 0000:1C38       NFREE_F3
 0000:1C3C       MPA
 0000:1C40       MSG_FREE
 0000:1C6B       MSG_MPA
 0000:1CA0       EMMNAME
 0000:1CA9       EMMNAM2
 0000:1CB2       EMMNAM3
 0000:1CBB       EMMNAM4
 0000:1CC4       EMMNAM5
 0000:1CCD       MAXNAME
 0000:1CD6       INFO_CTL
 0000:1CD7       INFO
 0000:1CFB       PORT67
 0000:1D40       CMD_FLAG
 0000:1D42       MSG_UNK
 0000:2DD0       CMDARG_TAB
 0000:2DD0       ZTAIL
 0000:2DD2       CMDARG_LEN
 0000:2DD4       CMDARG_ACT

Program entry point at 0000:0100
