
 Start  Stop   Length Name                   Class
 00000H 00000H 00000H STACK                  PROG
 00000H 00469H 0046AH CODE                   PROG
 0046CH 008A3H 00438H DATA                   DATA
 008A4H 008A4H 00000H DTAIL                  DATA

 Origin   Group
 0000:0   PGROUP

  Address         Publics by Name

 0000:04BE       CNTALLOC
 0000:040F       DB2HEX
 0000:0449       DD2HEX
 0000:042C       DW2HEX
 0000:02FF       FNDALLOC
 0000:03BA       FNDSTART
 0000:06A2       LCLSTK
 0000:08A2       LCLSTKZ
 0000:04C6       LCL_FLAG
 0000:0478       MOVETAB
 0000:04C7       MSG_HDR
 0000:0653       MSG_NOTPRES
 0000:0672       MSG_NOXMB
 0000:0629       MSG_TAIL
 0000:0080       PSP_PARM_COUNT
 0000:0081       PSP_PARM_STRING
 0000:04C0       PXMSALLOC
 0000:04B8       TOTFREE
 0000:00DE  Abs  VER
 0000:0032  Abs  VERS_H
 0000:0216  Abs  VERS_HTU
 0000:0032  Abs  VERS_T
 0000:0032  Abs  VERS_U
 0000:0692       XLAT_TAB
 0000:04B0       XMSBASE
 0000:04C2       XMSDRV_VEC
 0000:04B4       XMSFREE
 0000:04BC       XMSHNDL
 0000:0100       XMSLIST
 0000:046C       XMSMEM
 0000:04AC       XMSPREV
 0000:04A8       XMSSLO
 0000:08A4       ZTAIL

  Address         Publics by Value

 0000:0032  Abs  VERS_T
 0000:0032  Abs  VERS_U
 0000:0032  Abs  VERS_H
 0000:0080       PSP_PARM_COUNT
 0000:0081       PSP_PARM_STRING
 0000:00DE  Abs  VER
 0000:0100       XMSLIST
 0000:0216  Abs  VERS_HTU
 0000:02FF       FNDALLOC
 0000:03BA       FNDSTART
 0000:040F       DB2HEX
 0000:042C       DW2HEX
 0000:0449       DD2HEX
 0000:046C       XMSMEM
 0000:0478       MOVETAB
 0000:04A8       XMSSLO
 0000:04AC       XMSPREV
 0000:04B0       XMSBASE
 0000:04B4       XMSFREE
 0000:04B8       TOTFREE
 0000:04BC       XMSHNDL
 0000:04BE       CNTALLOC
 0000:04C0       PXMSALLOC
 0000:04C2       XMSDRV_VEC
 0000:04C6       LCL_FLAG
 0000:04C7       MSG_HDR
 0000:0629       MSG_TAIL
 0000:0653       MSG_NOTPRES
 0000:0672       MSG_NOXMB
 0000:0692       XLAT_TAB
 0000:06A2       LCLSTK
 0000:08A2       LCLSTKZ
 0000:08A4       ZTAIL

Program entry point at 0000:0100
