
 Start  Stop   Length Name                   Class
 00000H 00000H 00000H STACK                  PROG
 00000H 01547H 01548H CODE                   PROG
 01548H 02738H 011F1H DATA                   DATA
 0273CH 02791H 00056H LDATA                  DATA
 027A0H 027A0H 00000H DTAIL                  DATA

 Origin   Group
 0000:0   PGROUP
 0000:0   RGROUP
 0000:0   AGROUP
 0000:0   CGROUP

  Address         Publics by Name

 0000:000B  Abs  @DISPATCH_LIMIT
 0000:0066  Abs  @INFOSIZE
 0000:0A71  Abs  @SPEEDSTAR_SIGN_ADDR
 0000:002D  Abs  @WGS_SIGN_ADDR
 0000:0030  Abs  BETA_H
 0000:0030  Abs  BETA_T
 0000:0035  Abs  BETA_U
 0000:273E       BIOS_ADDR2
 0000:273C       BIOS_ADDRESS
 0000:1A1A       BIOS_CRC
 0000:2742       BIOS_DEST
 0000:2746       BIOS_FLAG
 0000:1BD2       BIOS_FNAME
 0000:2744       BIOS_LEN
 0000:18CD       BIOS_READ_ERR
 0000:2740       BIOS_SRC
 0000:1AC3       BIO_SEG
 0000:1A20       CACHE_LEN
 0000:09E2       CALC_CACHE_LEN
 0000:0A14       CALC_CACHE_SAVE
 0000:0BF4       CALC_CRC
 0000:0973       CALC_LENGTH
 0000:1AC5       CFG_SEG
 0000:04AD       CHECK_CPQ386
 0000:038C       CHECK_CPUID
 0000:03E2       CHECK_PARMS
 0000:0D76       CHECK_SPEEDSTAR
 0000:0D1A       CHECK_WGS6386
 0000:105B       CHK_CREG
 0000:0DEE       CLOSE_CFG
 0000:1AE3       CON1M
 0000:1ADB       CON24K
 0000:1AD7       CON4K
 0000:1ADF       CON64K
 0000:12F4       CPQINT01
 0000:2487       CPQINT01_LAST
 0000:248F       CPQINT01_SAVE
 0000:248B       CPQINT01_TRIP
 0000:1C79       CPQINT01_VEC
 0000:1C85       CPQSTK
 0000:2485       CPQSTKZ
 0000:1C72       CPQ_FLAG
 0000:0E71       CREATEFILE
 0000:1426       DECODE_TRIP
 0000:154A       DEVNAME_MAX
 0000:1553       DEV_HNDL
 0000:102E       DISPLAY
 0000:0EA1       DISPLAY_BIOS
 0000:1243       DISP_INT
 0000:1AEC       DOT_BIO
 0000:1AE7       DOT_CFG
 0000:0EBF       EXECUTE_BIOS
 0000:0F93       EXEC_I10
 0000:0FC3       EXEC_PATCH
 0000:0F63       EXEC_SAVEPTR
 0000:1B80       FILEBUF
 0000:1AF5       FILECRC
 0000:1AF1       FILEDEF
 0000:1BD0       FILEHNDL
 0000:1AFC       FILELEN
 0000:1AFA       FILEOFF
 0000:0B1E       FILTER
 0000:139C       FIND10
 0000:13A4       FINDCHK
 0000:13B3       FINDHW
 0000:2485       FINDHW_ACT
 0000:1547       FINDHW_ROM
 0000:139A       FINDIGN
 0000:1117       FMT_BYTE
 0000:1135       FMT_WORD
 0000:0543       GET_COMMENTS
 0000:0669       GET_DATA
 0000:0908       GET_DCC
 0000:06E0       GET_DUALROM
 0000:0837       GET_EDPT
 0000:0869       GET_EGASAVEPTR
 0000:0520       GET_FILENAME
 0000:073C       GET_FONT
 0000:03A6       GET_VIDEO_SEG
 0000:1153       HEX2BIN
 0000:1AC7       HEXTABLE
 0000:24B1       IGNCNT
 0000:1556       INFO
 0000:1555       INFO_CTL
 0000:0100       INITIAL
 0000:1086       IZITEGA
 0000:10B2       IZITVGA
 0000:1804       KBD_BUFF
 0000:1918       LCLSTK
 0000:1A18       LCLSTKZ
 0000:1C62       LCL_DSS_CHECK
 0000:1548       LCL_FLAG
 0000:1C2F       LCL_PSIGN
 0000:1C59       LCL_SPEEDSTAR
 0000:1C47       LCL_WSIGN
 0000:1184       LOWERCASE
 0000:1AC1       MAPSEG_NXT
 0000:0109       MAXLAT
 0000:24E3       MAXLAT_DISPATCH
 0000:0036  Abs  MAXVERS_H
 0000:05BA       MAX_PRESENT
 0000:1A1C       MIN_LENGTH
 0000:24F9       MODEL_DPT
 0000:16B1       MSG_ADDR
 0000:1787       MSG_BADVER
 0000:17C7       MSG_COMMENT
 0000:15C2       MSG_COPY
 0000:169C       MSG_COUNT
 0000:16A3       MSG_COUNT1
 0000:16E9       MSG_CRC
 0000:1699       MSG_CRLF
 0000:17A6       MSG_ENTRY_NUM
 0000:17B1       MSG_ENTRY_OFF1
 0000:17AC       MSG_ENTRY_SEG1
 0000:170B       MSG_FONT
 0000:170C       MSG_FONT1
 0000:1711       MSG_FONT2
 0000:1716       MSG_FONT3
 0000:161B       MSG_HELP
 0000:16DB       MSG_LEN
 0000:1749       MSG_MAXOK
 0000:171D       MSG_MODIFY
 0000:1766       MSG_NOMAX
 0000:18E8       MSG_NOT386
 0000:1693       MSG_OFFSET
 0000:1857       MSG_OPENCFG_ERR1
 0000:16CD       MSG_REPL
 0000:16AA       MSG_RESULTS
 0000:16BF       MSG_SEARCH
 0000:1A22       MSG_SPECIAL_LBL
 0000:1741       MSG_VGASWAP_FAIL
 0000:173B       MSG_VGASWAP_OK
 0000:1873       MSG_WRITEBIO_ERR1
 0000:188F       MSG_WRITEBIO_ERR2
 0000:18AE       MSG_WRITEBIO_ERR3
 0000:1660       MSG_XBIOS
 0000:168A       MSG_XBIOS1
 0000:1C81       OLDCPQSTK_VEC
 0000:1C7D       OLDINTHW_VEC
 0000:0DC3       OPEN_CFG
 0000:07AB       PARAM_TABLE
 0000:15BC       PORT67
 0000:24A1       PRMACT
 0000:0080       PSP_PARM_COUNT
 0000:0081       PSP_PARM_STRING
 0000:1747       PTR_MSG_VGASWAP
 0000:118F       READ_CMOS
 0000:0F25       READ_FILE
 0000:1C77       ROMADDR_HI
 0000:1C75       ROMADDR_LO
 0000:0A79       SEARCH_BIOS
 0000:1A25       SEARCH_PATTERN
 0000:278C       SPECIAL_ADDR
 0000:1A1E       SPECIAL_ADDR_CNT
 0000:10DC       SRCHSTR
 0000:119B       SRCH_INT
 0000:0419       SWPROC
 0000:1C73       SYSROM_START
 0000:15BE       SYSTEM_FLAG
 0000:0C4A       TEST_VGASWAP
 0000:0203       TRANSLATE
 0000:249B       TRIP_BP
 0000:2499       TRIP_BX
 0000:248D       TRIP_CS
 0000:249F       TRIP_DI
 0000:2493       TRIP_DS
 0000:2495       TRIP_ES
 0000:249D       TRIP_SI
 0000:2497       TRIP_SS
 0000:1B00       TXTBUF
 0000:1AFE       TXTLEN
 0000:1179       UPPERCASE
 0000:057C       VALID_BIOS
 0000:0068  Abs  VER
 0000:0031  Abs  VERS_H
 0000:0104  Abs  VERS_HTU
 0000:0030  Abs  VERS_T
 0000:0034  Abs  VERS_U
 0000:2748       VOID
 0000:278A       VOID_PTR
 0000:0DFB       WRITE_BIO
 0000:0DAE       WROM
 0000:1A18       XLAT_COUNTER
 0000:0BC0       XLAT_SPECIAL
 0000:2539       XORLIST
 0000:27A0       ZTAIL

  Address         Publics by Value

 0000:000B  Abs  @DISPATCH_LIMIT
 0000:002D  Abs  @WGS_SIGN_ADDR
 0000:0030  Abs  BETA_T
 0000:0030  Abs  BETA_H
 0000:0030  Abs  VERS_T
 0000:0031  Abs  VERS_H
 0000:0034  Abs  VERS_U
 0000:0035  Abs  BETA_U
 0000:0036  Abs  MAXVERS_H
 0000:0066  Abs  @INFOSIZE
 0000:0068  Abs  VER
 0000:0080       PSP_PARM_COUNT
 0000:0081       PSP_PARM_STRING
 0000:0100       INITIAL
 0000:0104  Abs  VERS_HTU
 0000:0109       MAXLAT
 0000:0203       TRANSLATE
 0000:038C       CHECK_CPUID
 0000:03A6       GET_VIDEO_SEG
 0000:03E2       CHECK_PARMS
 0000:0419       SWPROC
 0000:04AD       CHECK_CPQ386
 0000:0520       GET_FILENAME
 0000:0543       GET_COMMENTS
 0000:057C       VALID_BIOS
 0000:05BA       MAX_PRESENT
 0000:0669       GET_DATA
 0000:06E0       GET_DUALROM
 0000:073C       GET_FONT
 0000:07AB       PARAM_TABLE
 0000:0837       GET_EDPT
 0000:0869       GET_EGASAVEPTR
 0000:0908       GET_DCC
 0000:0973       CALC_LENGTH
 0000:09E2       CALC_CACHE_LEN
 0000:0A14       CALC_CACHE_SAVE
 0000:0A71  Abs  @SPEEDSTAR_SIGN_ADDR
 0000:0A79       SEARCH_BIOS
 0000:0B1E       FILTER
 0000:0BC0       XLAT_SPECIAL
 0000:0BF4       CALC_CRC
 0000:0C4A       TEST_VGASWAP
 0000:0D1A       CHECK_WGS6386
 0000:0D76       CHECK_SPEEDSTAR
 0000:0DAE       WROM
 0000:0DC3       OPEN_CFG
 0000:0DEE       CLOSE_CFG
 0000:0DFB       WRITE_BIO
 0000:0E71       CREATEFILE
 0000:0EA1       DISPLAY_BIOS
 0000:0EBF       EXECUTE_BIOS
 0000:0F25       READ_FILE
 0000:0F63       EXEC_SAVEPTR
 0000:0F93       EXEC_I10
 0000:0FC3       EXEC_PATCH
 0000:102E       DISPLAY
 0000:105B       CHK_CREG
 0000:1086       IZITEGA
 0000:10B2       IZITVGA
 0000:10DC       SRCHSTR
 0000:1117       FMT_BYTE
 0000:1135       FMT_WORD
 0000:1153       HEX2BIN
 0000:1179       UPPERCASE
 0000:1184       LOWERCASE
 0000:118F       READ_CMOS
 0000:119B       SRCH_INT
 0000:1243       DISP_INT
 0000:12F4       CPQINT01
 0000:139A       FINDIGN
 0000:139C       FIND10
 0000:13A4       FINDCHK
 0000:13B3       FINDHW
 0000:1426       DECODE_TRIP
 0000:1547       FINDHW_ROM
 0000:1548       LCL_FLAG
 0000:154A       DEVNAME_MAX
 0000:1553       DEV_HNDL
 0000:1555       INFO_CTL
 0000:1556       INFO
 0000:15BC       PORT67
 0000:15BE       SYSTEM_FLAG
 0000:15C2       MSG_COPY
 0000:161B       MSG_HELP
 0000:1660       MSG_XBIOS
 0000:168A       MSG_XBIOS1
 0000:1693       MSG_OFFSET
 0000:1699       MSG_CRLF
 0000:169C       MSG_COUNT
 0000:16A3       MSG_COUNT1
 0000:16AA       MSG_RESULTS
 0000:16B1       MSG_ADDR
 0000:16BF       MSG_SEARCH
 0000:16CD       MSG_REPL
 0000:16DB       MSG_LEN
 0000:16E9       MSG_CRC
 0000:170B       MSG_FONT
 0000:170C       MSG_FONT1
 0000:1711       MSG_FONT2
 0000:1716       MSG_FONT3
 0000:171D       MSG_MODIFY
 0000:173B       MSG_VGASWAP_OK
 0000:1741       MSG_VGASWAP_FAIL
 0000:1747       PTR_MSG_VGASWAP
 0000:1749       MSG_MAXOK
 0000:1766       MSG_NOMAX
 0000:1787       MSG_BADVER
 0000:17A6       MSG_ENTRY_NUM
 0000:17AC       MSG_ENTRY_SEG1
 0000:17B1       MSG_ENTRY_OFF1
 0000:17C7       MSG_COMMENT
 0000:1804       KBD_BUFF
 0000:1857       MSG_OPENCFG_ERR1
 0000:1873       MSG_WRITEBIO_ERR1
 0000:188F       MSG_WRITEBIO_ERR2
 0000:18AE       MSG_WRITEBIO_ERR3
 0000:18CD       BIOS_READ_ERR
 0000:18E8       MSG_NOT386
 0000:1918       LCLSTK
 0000:1A18       XLAT_COUNTER
 0000:1A18       LCLSTKZ
 0000:1A1A       BIOS_CRC
 0000:1A1C       MIN_LENGTH
 0000:1A1E       SPECIAL_ADDR_CNT
 0000:1A20       CACHE_LEN
 0000:1A22       MSG_SPECIAL_LBL
 0000:1A25       SEARCH_PATTERN
 0000:1AC1       MAPSEG_NXT
 0000:1AC3       BIO_SEG
 0000:1AC5       CFG_SEG
 0000:1AC7       HEXTABLE
 0000:1AD7       CON4K
 0000:1ADB       CON24K
 0000:1ADF       CON64K
 0000:1AE3       CON1M
 0000:1AE7       DOT_CFG
 0000:1AEC       DOT_BIO
 0000:1AF1       FILEDEF
 0000:1AF5       FILECRC
 0000:1AFA       FILEOFF
 0000:1AFC       FILELEN
 0000:1AFE       TXTLEN
 0000:1B00       TXTBUF
 0000:1B80       FILEBUF
 0000:1BD0       FILEHNDL
 0000:1BD2       BIOS_FNAME
 0000:1C2F       LCL_PSIGN
 0000:1C47       LCL_WSIGN
 0000:1C59       LCL_SPEEDSTAR
 0000:1C62       LCL_DSS_CHECK
 0000:1C72       CPQ_FLAG
 0000:1C73       SYSROM_START
 0000:1C75       ROMADDR_LO
 0000:1C77       ROMADDR_HI
 0000:1C79       CPQINT01_VEC
 0000:1C7D       OLDINTHW_VEC
 0000:1C81       OLDCPQSTK_VEC
 0000:1C85       CPQSTK
 0000:2485       FINDHW_ACT
 0000:2485       CPQSTKZ
 0000:2487       CPQINT01_LAST
 0000:248B       CPQINT01_TRIP
 0000:248D       TRIP_CS
 0000:248F       CPQINT01_SAVE
 0000:2493       TRIP_DS
 0000:2495       TRIP_ES
 0000:2497       TRIP_SS
 0000:2499       TRIP_BX
 0000:249B       TRIP_BP
 0000:249D       TRIP_SI
 0000:249F       TRIP_DI
 0000:24A1       PRMACT
 0000:24B1       IGNCNT
 0000:24E3       MAXLAT_DISPATCH
 0000:24F9       MODEL_DPT
 0000:2539       XORLIST
 0000:273C       BIOS_ADDRESS
 0000:273E       BIOS_ADDR2
 0000:2740       BIOS_SRC
 0000:2742       BIOS_DEST
 0000:2744       BIOS_LEN
 0000:2746       BIOS_FLAG
 0000:2748       VOID
 0000:278A       VOID_PTR
 0000:278C       SPECIAL_ADDR
 0000:27A0       ZTAIL

Program entry point at 0000:0100
