Stack Allocation = 9000 bytes

 Start  Stop   Length Name                   Class
 00000H 00C63H 00C64H AMAIN_TEXT             CODE
 00C64H 015A1H 0093EH AHELP_TEXT             CODE
 015A2H 02C77H 016D6H ASQPRINT_TEXT          CODE
 02C78H 030A9H 00432H ADFSPEC_TEXT           CODE
 030AAH 0389DH 007F4H ASQ_TEXT               CODE
 0389EH 04487H 00BEAH SNAP_TEXT              CODE
 04488H 044D9H 00052H ABORT_TEXT             CODE
 044DAH 044DDH 00004H READPROF_TEXT          CODE
 044DEH 04CE3H 00806H ASQDATA_TEXT           CODE
 04CE4H 04CE4H 00000H VERSDATA_TEXT          CODE
 04CE4H 0C22CH 07549H _TEXT                  CODE
 0C230H 0E91FH 026F0H EMULATOR_TEXT          CODE
 0E920H 10385H 01A66H HELP_TEXT              CODE
 10386H 10A4FH 006CAH ARGSTR_TEXT            CODE
 10A50H 10F51H 00502H BLIST_TEXT             CODE
 10F52H 11161H 00210H BOX_TEXT               CODE
 11162H 11FD1H 00E70H BUTTON_TEXT            CODE
 11FD2H 1202FH 0005EH CHKABORT_TEXT          CODE
 12030H 1220BH 001DCH COLORS_TEXT            CODE
 1220CH 12521H 00316H CRITERR_TEXT           CODE
 12522H 127EDH 002CCH DATESTR_TEXT           CODE
 127EEH 128E0H 000F3H DMALLOC_TEXT           CODE
 128E2H 12B77H 00296H ERROR_TEXT             CODE
 12B78H 12C39H 000C2H EXENAME_TEXT           CODE
 12C3AH 12F43H 0030AH FILENAME_TEXT          CODE
 12F44H 13A05H 00AC2H FLDEDIT_TEXT           CODE
 13A06H 13C23H 0021EH HELPBACK_TEXT          CODE
 13C24H 13FEBH 003C8H INPUT_TEXT             CODE
 13FECH 1426EH 00283H INST2324_TEXT          CODE
 14270H 142DDH 0006EH INT9HOOK_TEXT          CODE
 142DEH 14975H 00698H INTMSG_TEXT            CODE
 14976H 14A15H 000A0H JUSTSTR_TEXT           CODE
 14A16H 14AB7H 000A2H KEYBID_TEXT            CODE
 14AB8H 14D33H 0027CH KEYBOARD_TEXT          CODE
 14D34H 15621H 008EEH LOGO_TEXT              CODE
 15622H 16411H 00DF0H MENU_TEXT              CODE
 16412H 167DBH 003CAH MESSAGE_TEXT           CODE
 167DCH 168CFH 000F4H MOUSE_TEXT             CODE
 168D0H 1693DH 0006EH NOMEM_TEXT             CODE
 1693EH 1693EH 00000H OWNER_TEXT             CODE
 1693EH 1697BH 0003EH PRERROR_TEXT           CODE
 1697CH 1855DH 01BE2H QHELP_TEXT             CODE
 1855EH 185CFH 00072H SERIAL_TEXT            CODE
 185D0H 18623H 00054H SLEEP_TEXT             CODE
 18624H 18709H 000E6H TEXTCUR_TEXT           CODE
 1870AH 19BCBH 014C2H TEXTWIN_TEXT           CODE
 19BCCH 19CADH 000E2H TRIM_TEXT              CODE
 19CAEH 19D01H 00054H TRNBLN_TEXT            CODE
 19D02H 1A1E3H 004E2H UI_TEXT                CODE
 1A1E4H 1A4D1H 002EEH VIDEO_TEXT             CODE
 1A4D2H 1A66FH 0019EH VIDEOID_TEXT           CODE
 1A670H 1A8B5H 00246H WAIT_TEXT              CODE
 1A8B6H 1ADC6H 00511H WINDOWFN_TEXT          CODE
 1ADC8H 1AEE9H 00122H WINSVRS_TEXT           CODE
 1AEEAH 1AF27H 0003EH WINVER_TEXT            CODE
 1AF28H 1AFB5H 0008EH WORDSET_TEXT           CODE
 1AFB6H 1B421H 0046CH WRAPSTR_TEXT           CODE
 1B422H 1D41BH 01FFAH EDITWIN_TEXT           CODE
 1D41CH 1E0A9H 00C8EH FILEEDIT_TEXT          CODE
 1E0AAH 1EB79H 00AD0H PRINT_TEXT             CODE
 1EB7AH 1F40FH 00896H ADF_TEXT               CODE
 1F410H 1F50AH 000FBH BIOSID_TEXT            CODE
 1F50CH 20649H 0113EH CFG_INFO_TEXT          CODE
 2064AH 2072DH 000E4H CPUTEXT_TEXT           CODE
 2072EH 20D23H 005F6H ENGINE_TEXT            CODE
 20D24H 21633H 00910H GLIST_TEXT             CODE
 21634H 23E77H 02844H HDW_INFO_TEXT          CODE
 23E78H 2435FH 004E8H INFO_TEXT              CODE
 24360H 263F1H 02092H MAPINFO_TEXT           CODE
 263F2H 28733H 02342H MEM_INFO_TEXT          CODE
 28734H 28851H 0011EH MULTIME_TEXT           CODE
 28852H 2917DH 0092CH PROFILE_TEXT           CODE
 2917EH 29829H 006ACH QTAS_TEXT              CODE
 2982AH 29C53H 0042AH QTAS_MAC_TEXT          CODE
 29C54H 2CCF1H 0309EH READSYS_TEXT           CODE
 2CCF2H 2CFE5H 002F4H SYSBUF_TEXT            CODE
 2CFE6H 31A33H 04A4EH SYSINFO_TEXT           CODE
 31A34H 31B31H 000FEH TESTMEM_TEXT           CODE
 31B32H 31BFEH 000CDH TIMER_TEXT             CODE
 31C00H 337FFH 01C00H WRITSYS_TEXT           CODE
 33800H 339E1H 001E2H XMSINFO_TEXT           CODE
 339E2H 33B38H 00157H FLEXROMS_TEXT          CODE
 33B3AH 33C9EH 00165H BUSINFO_TEXT           CODE
 33CA0H 33ECFH 00230H FILEVER_TEXT           CODE
 33ED0H 34287H 003B8H FILERES_TEXT           CODE
 34288H 34C89H 00A02H IFHELP_TEXT            CODE
 34C8AH 34CCBH 00042H BCD_NUM_TEXT           CODE
 34CCCH 34DF0H 00125H BIOSCRC_TEXT           CODE
 34DF2H 34EA4H 000B3H C_TLOAD_TEXT           CODE
 34EA6H 35196H 002F1H CPU_TEXT               CODE
 35198H 3558AH 003F3H DCACHE_TEXT            CODE
 3558CH 356CFH 00144H EMSINFO_TEXT           CODE
 356D0H 3575DH 0008EH GAMEPORT_TEXT          CODE
 3575EH 3578BH 0002EH LAUNDER_TEXT           CODE
 3578CH 37041H 018B6H MBPARSE_TEXT           CODE
 37042H 370E9H 000A8H MCA_POS_TEXT           CODE
 370EAH 37141H 00058H POS_TEST_TEXT          CODE
 37142H 372E3H 001A2H QMAXPRES_TEXT          CODE
 372E4H 37551H 0026EH RAMSCAN_TEXT           CODE
 37552H 37B6FH 0061EH SAVEADF_TEXT           CODE
 37B70H 385C1H 00A52H SVGA_INF_TEXT          CODE
 385C2H 38694H 000D3H VENDINFO_TEXT          CODE
 38696H 388ABH 00216H COPYFILE_TEXT          CODE
 388ACH 38C4DH 003A2H STACKER_TEXT           CODE
 38C4EH 38D81H 00134H TRUENAME_TEXT          CODE
 38D82H 392FCH 0057BH VCPI_CRC_TEXT          CODE
 392FEH 39345H 00048H SSTOR_TEXT             CODE
 39346H 39346H 00000H C_ETEXT                ENDCODE
 39350H 42F85H 09C36H AMAIN7_DATA            FAR_DATA
 42F90H 430FFH 00170H EMULATOR_DATA          FAR_DATA
 43100H 4325AH 0015BH NCODE                  PROG
 4325BH 432E6H 0008CH NDATA                  PROG
 432F0H 45617H 02328H STACK                  PROG
 45620H 45661H 00042H NULL                   BEGDATA
 45664H 5081FH 0B1BCH _DATA                  DATA
 50820H 50821H 00002H XIQC                   DATA
 50822H 5082DH 0000CH DBDATA                 DATA
 5082EH 5083BH 0000EH CDATA                  DATA
 5083CH 5083CH 00000H XIFB                   DATA
 5083CH 5083CH 00000H XIF                    DATA
 5083CH 5083CH 00000H XIFE                   DATA
 5083CH 5083CH 00000H XIB                    DATA
 5083CH 50843H 00008H XI                     DATA
 50844H 50844H 00000H XIE                    DATA
 50844H 50844H 00000H XPB                    DATA
 50844H 5084BH 00008H XP                     DATA
 5084CH 5084CH 00000H XPE                    DATA
 5084CH 5084CH 00000H XCB                    DATA
 5084CH 5084CH 00000H XC                     DATA
 5084CH 5084CH 00000H XCE                    DATA
 5084CH 5084CH 00000H XCFB                   DATA
 5084CH 5084CH 00000H XCFCRT                 DATA
 5084CH 5084CH 00000H XCF                    DATA
 5084CH 5084CH 00000H XCFE                   DATA
 5084CH 5084CH 00000H XIFCB                  DATA
 5084CH 5084CH 00000H XIFU                   DATA
 5084CH 5084CH 00000H XIFL                   DATA
 5084CH 5084CH 00000H XIFM                   DATA
 5084CH 5084CH 00000H XIFCE                  DATA
 5084CH 5084FH 00004H EXEC                   DATA
 50850H 508E3H 00094H CONST                  CONST
 508E4H 508EBH 00008H HDR                    MSG
 508ECH 50B42H 00257H MSG                    MSG
 50B44H 50B45H 00002H PAD                    MSG
 50B46H 50B46H 00001H EPAD                   MSG
 50B48H 50B4BH 00004H ZZZTAIL                MSG
 50B4CH 518FFH 00DB4H _BSS                   BSS
 51900H 51900H 00000H XOB                    BSS
 51900H 51900H 00000H XO                     BSS
 51900H 51900H 00000H XOE                    BSS
 51900H 51900H 00000H XOFB                   BSS
 51900H 51900H 00000H XOF                    BSS
 51900H 51900H 00000H XOFE                   BSS
 51900H 52419H 00B1AH c_common               BSS
 52420H 52420H 00000H STACK                  STACK

 Origin   Group
 0000:0   PSPGROUP
 4310:0   PGROUP
 0000:0   PNPGRP
 4562:0   DGROUP
 0000:0   AGROUP
 0000:0   CGROUP

  Address         Publics by Name

 04CE:66B0       $i8_output
 04CE:69CC       $i8_tpwr10
 4310:0162       ACTIVECONFIG
 4562:9CE0       AMIBIOS
 4562:33EC       ARIMSG
 4562:AFF4       BCRC
 0000:0030  Abs  BETA_H
 0000:0030  Abs  BETA_T
 0000:0034  Abs  BETA_U
 0000:0008  Abs  BINVERS_H
 0000:0003  Abs  BINVERS_TU
 4562:ACB0       BIOS_FIXBUF
 1F41:0000       BIOS_ID
 4562:33E8       CALLER_STACK
 33B3:0027       CHECK_AMI
 34DF:0002       CHECK_CHIPSET
 34EA:002F       CHECK_CPU
 34EA:02C9       CHECK_CPUSX
 0E92:035F       CLOSESHRINK
 1427:0041       CLR_HOOK9
 4562:AFEC       CODESEG
 0E92:168C       COMBINENC
 4562:ACD4       CON1M
 4562:ACCC       CON4K
 4562:ACD0       CON64K
 4310:01E3       ConfigPtr
 4310:015B       CONFIGSIG
 4310:003D       COPY_ACTIVE
 4562:A3DC       CPUID_FEAT
 4562:A3E0       CPUID_ID
 4562:A3F0       CPUID_SUP
 4562:A3E4       CPUID_VID
 4562:A3CE       CPU_TYPE
 4562:ACC6       CRC_CNT
 4562:ACCA       CRC_SEG
 4310:0117       CURRENTMBOOT
 0E92:14AC       DECOMP
 4562:32D0       DEVDRVNO
 4562:32CC       DEVHDR_VEC
 4562:9C64       DEVNAME_MAX
 4562:9C6D       DEV_HNDL
 2982:03F0       DISP_TEXT
 2982:00A5       DO_MAC
 4562:33C8       DRVMSG
 4562:AFEE       DSEG
 3380:0199       EMBALLOC
 3380:01B2       EMBFREE
 3558:0121       EMSALLOC
 3558:0139       EMSFREE
 3558:00D5       EMSHAND
 3558:0107       EMSHSIZE
 3558:00ED       EMSMAP
 3558:000C       EMSPARM
 4562:AFDE       EMS_PRES
 4562:AF40       EPMTAB
 0000:FE32  Abs  FIARQQ
 0000:0E32  Abs  FICRQQ
 0000:5C32  Abs  FIDRQQ
 0000:1632  Abs  FIERQQ
 04CE:72C3       FILECLOSE
 3428:03D7       FILEINUSE
 04CE:72A6       FILEOPEN
 04CE:72D7       FILEREAD
 04CE:72F8       FILESEEK
 1A4D:0143       Find6845
 1A4D:015D       FindActive
 1A4D:00F1       FindCGA
 1A4D:00BD       FindEGA
 3428:01C2       FINDFILEONPATHS
 1A4D:0101       FindMono
 1A4D:006D       FindPS2
 4310:0000       FIND_CONFIG
 0000:0632  Abs  FISRQQ
 0000:A23D  Abs  FIWRQQ
 0000:4000  Abs  FJARQQ
 0000:C000  Abs  FJCRQQ
 0000:8000  Abs  FJSRQQ
 1A4D:0193       FoundDevice
 4562:A3D4       FPU_BUG
 4562:A3D2       FPU_TYPE
 4562:AFF2       FRSTPTE
 38D8:02F9       GETBCRC_PMOFF
 38D8:01F5       GETBCRC_PMON
 3428:014B       GETENVVAR
 33ED:0083       GETFILERESOURCE
 33ED:0000       GETFILERESOURCESIZE
 33CA:008D       GETFILEVERSIONINFO
 33CA:0000       GETFILEVERSIONINFOSIZE
 3428:05AB       GETSYSTEMDIR
 3428:0546       GETWINDOWSDIR
 1427:004F       GET_CODE9
 339E:0002       GET_FLEXROMS
 1F41:00D6       GET_SYSID
 2873:0115       GET_TIMER
 13A0:00C6       HELPALLOC
 0E92:1204       HELPCLINES
 0E92:033F       HELPCLOSE
 13A0:0046       HELPCLOSEFILE
 0E92:1594       HELPCMP
 0E92:158A       HELPCMPSZ
 13A0:0184       HELPDEALLOC
 0E92:0776       HELPDECOMP
 0E92:121A       HELPGETCELLS
 0E92:1424       HELPGETLINE
 0E92:179C       HELPGETLINEATTR
 0E92:1866       HELPHLNEXT
 13A0:0144       HELPLOCK
 0E92:0655       HELPLOOK
 0E92:0606       HELPNC
 0E92:173F       HELPNCBACK
 0E92:0628       HELPNCCB
 0E92:0430       HELPNCCMP
 0E92:08E6       HELPNCNEXT
 0E92:08FC       HELPNCPREV
 0E92:16DE       HELPNCRECORD
 0E92:0912       HELPNCUNIQ
 0E92:0000       HELPOPEN
 0E92:0354       HELPSHRINK
 0E92:0B13       HELPSZCONTEXT
 13A0:0180       HELPUNLOCK
 0E92:1A06       HELPXREF
 0E92:1668       HFMEMZER
 0E92:1647       HFSTRCHR
 0E92:162A       HFSTRCPY
 0E92:1613       HFSTRLEN
 0E92:1394       HLP_LOCATE
 0000:00E0  Abs  HPFNS
 13FE:001C       IDATASEG
 4562:9C73       INFO
 0000:0066  Abs  INFOSIZE
 4562:9C72       INFO_CTL
 13FE:0250       INT1B
 13FE:00E8       INT23
 13FE:0146       INT24
 4562:33CE       INT24_MSGS
 4562:341C       INT24_RESP
 13FE:026E       INT29
 33B3:000A       IS_EISA
 33B3:003F       IS_PCI
 33B3:0122       IS_PNP
 2982:0084       IZITLSEG
 34EA:0006       IZIT_CPUID
 33B3:00B2       IZIT_PnP
 0E92:16B4       KWPTRBUILD
 4562:AFCE       LaBIOS
 4562:AFBE       LaCODE
 4562:AFC6       LaCR3
 4562:AFC2       LaDATA
 4562:AFCA       LaPTE
 4562:ACD8       LCLGDT
 4562:AE40       LCLIDT
 38D8:0082       LCLINT67
 4562:8220       LCLITEM
 4562:AF56       LCLTSS
 38D8:0315       LIN2SEG
 0E92:1065       LOADFDB
 0E92:0C99       LOADPORTION
 3428:0026       LSTRCMPI
 3428:0008       LSTRLEN
 3428:041E       MAKEFILENAME
 0E92:10EA       MALOCATE
 0E92:0F54       MAPCONTEXTTOTOPIC
 0E92:0FC1       MAPTOPICTOCONTEXT
 339E:00DC       MAX_PRESENT
 4310:0083       MbootActive
 4562:A66E       MCAID
 3704:0002       MCA_POS
 4562:9CDA       MOVPCI
 2873:0004       MULTIME
 0E92:167D       NCTOFO
 4562:B1FC       NEXTLOC
 0E92:095A       NEXTPREV
 4562:AFF0       NEXTPTE
 4562:9D0F       OffPnP_PMCS
 4562:9D13       OffPnP_PMOFF
 4562:9D0B       OffPnP_RMVEC
 4562:AFE8       OLDESP
 0E92:0105       OPENCORE
 13A0:0006       OPENFILEONPATH
 4562:AFDA       PaCR3
 4562:B528       PIDENT
 4562:AFE6       PMI_ERR
 4562:AFE0       PMI_FWD
 4562:AFF6       PMSTK
 4562:B1F6       PMSTKZ
 4562:B1F6       PMSTK_FVEC
 38D8:0002       PM_IRETD0
 38D8:0006       PM_IRETD1
 38D8:002A       PM_IRETD10
 38D8:002E       PM_IRETD11
 38D8:0032       PM_IRETD12
 38D8:0036       PM_IRETD13
 38D8:003A       PM_IRETD14
 38D8:003E       PM_IRETD15
 38D8:0042       PM_IRETD16
 38D8:0046       PM_IRETD17
 38D8:004A       PM_IRETD18
 38D8:004E       PM_IRETD19
 38D8:000A       PM_IRETD2
 38D8:0052       PM_IRETD20
 38D8:0056       PM_IRETD21
 38D8:005A       PM_IRETD22
 38D8:005E       PM_IRETD23
 38D8:0062       PM_IRETD24
 38D8:0066       PM_IRETD25
 38D8:006A       PM_IRETD26
 38D8:006E       PM_IRETD27
 38D8:0072       PM_IRETD28
 38D8:0076       PM_IRETD29
 38D8:000E       PM_IRETD3
 38D8:007A       PM_IRETD30
 38D8:007E       PM_IRETD31
 38D8:0012       PM_IRETD4
 38D8:0016       PM_IRETD5
 38D8:001A       PM_IRETD6
 38D8:001E       PM_IRETD7
 38D8:0022       PM_IRETD8
 38D8:0026       PM_IRETD9
 0000:0000  Abs  PnPSTR
 4562:9D09       PnP_APMSize
 33B3:0162       PNP_BIOS_STR
 4562:9CF5       PnP_CTL
 4562:9D03       PnP_ESCDSize
 4562:9CFF       PnP_Message
 4562:9D01       PnP_MinESCDSize
 4562:9CF3       PnP_Node
 4562:9CEF       PnP_NodeSize
 4562:9CF1       PnP_NumNodes
 4562:9D05       PnP_NVStorageBase
 4562:9CF7       PnP_PRODID
 4562:9CFB       PnP_PRODNO
 4562:9CED       PnP_SEG
 33B3:012B       PNP_VM
 4562:9C6F       PORT67
 4562:A6B6       POSBASE
 0000:002C  Abs  PSP_ENVIR_PTR
 0000:0080  Abs  PSP_PARM_COUNT
 0000:0081  Abs  PSP_PARM_STRING
 0000:0002  Abs  PSP_STOR_MAX
 0E92:10A4       PUTFDB
 2982:000A       QTAS_MAC
 4562:AFD2       RaCR3
 4562:AFD6       RaPTE
 13A0:0058       READHELPFILE
 3704:0032       READID
 34DF:00A3       READ_CHIPSET
 3428:0070       REPEATMOVE
 2982:03A7       SAVE_BLKDEV
 2982:036D       SAVE_CHARDEV
 2982:034C       SAVE_NAME
 4562:9160       SCANDONE
 38D8:0321       SEG2LIN
 3380:01C2       SETA20
 38D8:03C8       SETUP_EPM
 38D8:0333       SETUP_GDT
 38D8:04FA       SETUP_PMI
 2873:0101       SETUP_TIMER
 38D8:03AC       SETUP_TSS
 38D8:04A6       SET_GDT
 1427:0000       SET_HOOK9
 0E92:0DD8       SIZEPOS
 31A3:009E       TESTMEM
 4562:91C3       TESTMEM_LASTRES
 4562:91C1       TESTMEM_LASTSEG
 4562:9161       TESTMEM_MAP
 31A3:0004       TESTMEM_SUB
 31A3:01A5       TIMER_READ
 31A3:0183       TIMER_RESTORE
 31A3:0161       TIMER_SETUP
 31A3:0102       TIME_MEM
 0E92:16A6       TOUPR
 3380:0105       UMBALLOC
 3380:0189       UMBFREE
 3380:011E       UMBTAVAIL
 4562:AD18       VCPGDT
 4562:A3D8       VCPI_VER
 0000:0323  Abs  VER
 3428:06DD       VERFINDFILE
 0000:0008  Abs  VERH
 0000:0003  Abs  VERL
 3428:098F       VERLANGUAGENAME
 33CA:00BF       VERQUERYVALUE
 0000:0020  Abs  VERSLTR1
 0000:00CD  Abs  VERSLTR2
 0000:0038  Abs  VERS_H
 0000:0803  Abs  VERS_HTU
 0000:0030  Abs  VERS_T
 0000:0033  Abs  VERS_U
 1A4D:0002       VIDEOID
 4562:A3D0       VIR_FLAG
 4310:005C       WALK_MAC
 4562:A3D6       WEI_FLAG
 4562:A3DA       WIN_VER
 3380:0000       XMSPARM
 0448:0008       _abortprep
 04CE:3520       _abs
 4562:C8B6       _ActiveColor
 4562:A4B6       _ActiveOwner
 4562:AC93       _ActualBoot
 4562:CC60       _AdapterType
 1116:003A       _addButton
 4562:CDF2       _added
 2CFE:4162       _add_filename
 4562:1EF0       _AdfSpecText
 3755:0002       _adf_dir
 1EB7:0134       _adf_read
 1EB7:000A       _adf_setup
 02C7:0008       _adf_spec
 1116:02E4       _adjustButtons
 4562:AC98       _AdvancedOpts
 4562:AC56       _AHEAD_A_ID
 4562:AC5D       _AHEAD_B_ID
 4562:AC7A       _AHEAD_FUN_TAB
 4562:AB11       _AHEAD_ID
 37B7:0A11       _AHEAD_MEMSIZE
 4562:AB88       _AHEAD_MID_TAB
 4562:AB17       _AHEAD_SIG
 4562:3C6E       _AllDisplay
 4562:3BB0       _AllGlossDisplay
 2CFE:12F4       _alloc_ems
 2CFE:1144       _alloc_ems_xms
 2CFE:125A       _alloc_xms
 4562:3D00       _AllTutorDisplay
 4562:CDD1       _AltLogoColor
 4562:4D8A       _AltLogoCorners
 4562:4DB6       _AltLogoText
 4562:5344       _altPageOK
 4562:787E       _AltTitles
 4562:4FAC       _AmPm
 2CFE:188C       _aox_check
 4562:3D6E       _AppendToFile
 4562:3EFC       _ArfButtons
 4562:CC4C       _arg_argptr
 1038:0570       _arg_argument
 1038:0006       _arg_concat
 1038:0578       _arg_getopt
 1038:015C       _arg_gettoken
 1038:00C4       _arg_token
 1038:0560       _arg_ungettoken
 4562:1B92       _Arrows
 12C3:000A       _askFileName
 4562:53CC       _askFileNameCB
 1562:05EE       _askMenu
 1641:0002       _askMessage
 0389:055C       _askSnapShot
 030A:000A       _asq
 4562:090C       _AsqButtons
 4562:1E2C       _AsqDataError
 4562:1540       _AsqHelpMenu
 4562:2650       _AsqName
 4562:18A2       _AsqNameWin
 4562:1742       _AsqTopMenu
 4562:264E       _ASQVER_MAJOR
 4562:264F       _ASQVER_MINOR
 4562:AB90       _ATI_18800_ID
 4562:AB96       _ATI_28800_ID
 37B7:0500       _ATI_CHECKMODE
 4562:AB9C       _ATI_EXT
 4562:AC6C       _ATI_FUN_TAB
 4562:AAA1       _ATI_ID
 4562:AB5E       _ATI_MID_TAB
 4562:AAA5       _ATI_SIG
 04CE:5D12       _atof
 04CE:1BB0       _atol
 4562:22C2       _AutoexecName
 4562:5116       _backCount
 4562:C8DE       _BackScreenColor
 4562:CCD0       _BaseColor
 34C8:000A       _bcd_num
 19D0:04D8       _beep
 2163:1D6A       _bios_item
 2436:2018       _bits_on
 4562:50FA       _BLANKSTRING
 1116:0268       _blastButtons
 4562:CDE2       _BLOCK_EXISTS
 4562:2418       _bootDrive
 4562:8CB4       _BootOverride
 4562:396A       _BottomTitle
 10F5:0002       _box
 4562:CC48       _BROWSE
 4562:C32C       _buff
 4562:C2E4       _buffer
 4562:C76C       _buffrows
 4562:C89F       _ButtonActiveColor
 4562:C32A       _ButtonChevColor
 4562:31B2       _buttonCount
 4562:31B6       _buttonCurrent
 4562:31B4       _buttonDefault
 4562:C2E8       _ButtonDisabledColor
 4562:31B8       _buttonHasFocus
 4562:C326       _ButtonHotColor
 4562:C8E4       _buttonList
 4562:CCE0       _ButtonPushedColor
 4562:4BDC       _ButtonStart
 4562:4BDE       _ButtonStop
 34C8:0080       _CALC_CRC
 34C8:004C       _CALC_SUM
 4562:CBF6       _Callback
 04CE:2F14       _calloc
 4562:3168       _cBack
 4562:53AC       _CB_option_editor
 4562:53B4       _CB_option_insert
 4562:53B0       _CB_option_replace
 4562:A4BA       _Cfg
 4562:5560       _CfgFmt1a
 4562:5578       _CfgFmt1b
 4562:5586       _CfgFmt1c
 4562:5598       _CfgFmt1d
 4562:55A6       _CfgFmt1e
 4562:55B4       _CfgFmt1f
 4562:55C0       _CfgFmt2
 4562:55CA       _CfgFmt3a
 4562:55DC       _CfgFmt3b
 4562:55EA       _CfgFmt4a
 4562:55F8       _CfgFmt4b
 4562:5604       _CfgFmt4c
 4562:5610       _CfgFmt5a
 4562:561E       _CfgFmt7a
 4562:5630       _CfgFmt7b
 4562:564A       _CfgFmt7c
 4562:5674       _CfgFmt7d
 4562:5696       _CfgFmt7dl
 4562:5092       _CfgKeywordSeps
 1D41:0AFA       _checkFileName
 3755:00A0       _check_adf_files
 3578:1378       _check_common
 3578:10B0       _check_include
 372E:0020       _CHECK_MODEL
 372E:00EA       _CHECK_RAM
 3578:0A2A       _check_reloc
 388A:01F6       _check_swap
 4562:AC06       _CHIPS_82C451_ID
 4562:AC14       _CHIPS_82C452_ID
 4562:AC22       _CHIPS_82C453_ID
 4562:AC30       _CHIPS_82C455_ID
 4562:AC3E       _CHIPS_82C456_ID
 4562:AC76       _CHIPS_FUN_TAB
 4562:AAED       _CHIPS_ID
 37B7:091F       _CHIPS_MEMSIZE
 4562:AB7A       _CHIPS_MID_TAB
 11FD:0002       _chkabort
 4562:AB2E       _CIRRUS_ID
 1B42:0E80       _clear
 04CE:31C2       _clock
 372E:008C       _CLR_PARITY
 4562:A747       _CMPROM
 263F:22DA       _comma_num
 4562:A4B7       _CommonOwner
 4562:4D70       _CompanyName
 4562:50FC       _compBuffer
 4562:C8B4       _compSize
 4562:0E2C       _ConfigMenu
 4562:2312       _ConfigName
 4562:A4B2       _ConfigSys
 1F50:05C8       _Config_386MAX_PRO
 1F50:0550       _Config_AUTOEXEC_BAT
 1F50:04D8       _Config_CONFIG_SYS
 1F50:061E       _Config_ExtraDOS_PRO
 3578:0AC8       _config_free
 3578:160E       _config_parse
 1F50:0AF6       _Config_Qualitas
 1F50:0EAA       _Config_Snapshot
 1F50:000C       _Config_Summary
 1F50:0674       _Config_SYSINI
 1F50:0DDA       _Config_Windows
 1697:18D6       _contextHelp
 3869:0202       _copy
 4562:AC94       _CopyBoot
 4562:AC95       _CopyMax1
 4562:AC96       _CopyMax2
 2CFE:3B54       _count_4x_fcbs
 2064:000A       _cpu_textof
 1D41:0A68       _CreateEditWindow
 3578:0900       _create_line
 4562:52EB       _CRT_MODE
 4562:C8BA       _CurLine
 4562:3C58       _CurrentDisplay
 4562:3B98       _CurrentGlossDisplay
 4562:261A       _currentTitle
 4562:3CE8       _CurrentTutorDisplay
 4562:C716       _CurSect
 4562:53C0       _cursor3CB
 1B42:1BF6       _cursor4b
 4562:53C4       _cursor4CB
 4562:53C8       _cursor5CB
 4562:CC76       _cutBlock
 4562:327A       _cutSize
 4562:4CF0       _DataButtons
 4562:CC71       _DataColor
 4562:CCE8       _DataContinueColor
 4562:1A76       _DataInfo
 4562:C8AA       _DataWin
 4562:CDD0       _DataYellowColor
 1252:0002       _datestr
 4562:4FD0       _Daysofwk
 3519:01A6       _dcache_active
 3519:0020       _dcache_cnt
 4562:A414       _dcache_dly
 4562:A416       _dcache_spin
 3519:0022       _dcache_spincnt
 4562:A41A       _dcache_spinptr
 3519:038C       _DCA_CLEANUP
 2163:22E8       _decode_eisa
 4562:5100       _decompBuffer
 4562:C8E2       _decompSize
 1855:000E       _decrypt_serialno
 4562:18B2       _DefaultGrabFile
 4562:1BCC       _DefaultSnapShot
 4562:CC75       _DefOwner
 4562:A43C       _DefSect
 4562:CCF0       _DELETE_BLOCK_EXISTS
 4562:AB3E       _DIAMOND_ID
 4562:AB8E       _DIAMOND_MID_TAB
 4562:AB46       _DIAMOND_SIG
 13FE:00DD       _disable23
 13FE:0249       _disable29
 1116:0850       _disableButton
 1116:08E4       _disableButtonHelp
 4562:CCCB       _DisableColor
 372E:00B6       _DISABLE_NMI
 4562:8CBA       _DisketteParms
 1220:000C       _display_criterr
 1B42:0DAA       _display_status
 4562:52EA       _DISP_PAGE
 2163:235E       _disp_pnp
 2163:21CE       _disp_pnp_large
 2163:1EB2       _disp_pnp_small
 4562:2420       _doCmdThenExit
 0000:0440       _doEval
 015A:09FA       _doHeader
 13FE:0099       _done2324
 4562:4BEA       _DoneEsc
 1E0A:000A       _doPrint
 015A:0002       _doPrintCallback
 2CFE:42EE       _dosdatcmp
 4562:31A8       _doubleBoxChars
 142D:0170       _do_intmsg
 1116:018E       _dropButton
 4562:C2E0       _duffer
 4562:C76A       _duffrows
 015A:05D0       _dumpLine
 19D0:0258       _dumpShadow
 3578:094C       _dup_line
 4562:B52C       _edata
 4562:5346       _EditButtons
 4562:CCCC       _EditColor
 4562:CC74       _EditInvColor
 4562:CADE       _EditorDataColor
 4562:CC44       _EditorFileName
 4562:CC6F       _EditorHighColor
 4562:53A0       _EditorLine
 4562:CD78       _EditorLines
 4562:CDCE       _EditorMarkColor
 4562:C8A2       _EditWin
 372E:01C7       _EMM2_VXD_Call
 13FE:00D2       _enable23
 13FE:0242       _enable29
 372E:00A1       _ENABLE_NMI
 4562:CE00       _end
 1697:020A       _endHelp
 13C2:0044       _end_input
 14AB:005C       _end_keyboard
 3519:0175       _end_twirly
 2072:000E       _engine_control
 4562:1B9A       _Enter
 4562:CCE2       _ErrDlgColors
 0000:0C40       _errmsg
 4562:2C58       _errno
 4562:1B12       _Error
 4562:C8A0       _ErrorBorderColor
 4562:CDF0       _ErrorColor
 128E:0002       _errorMessage
 4562:1EF4       _EvalFmt
 4562:2118       _EvalText
 4562:3206       _ExeName
 04CE:01EF       _exit
 4562:2376       _ExtraDOSName
 0000:0000  Abs  _FAST_MODE
 1A1E:01AA       _fat_cursor
 04CE:063A       _fclose
 04CE:0D9A       _fflush
 04CE:299A       _fgetc
 04CE:1CE2       _fgets
 4562:A410       _Fhandle
 4562:CD12       _FileChanged
 1D41:000C       _fileEdit
 1D41:05FC       _fileLoad
 4562:4B2C       _FileNameButtons
 1D41:07D2       _fileOpen
 4562:1B8A       _FilePrompt
 1D41:0736       _fileSave
 1641:034C       _findMessage
 1116:0002       _findThisButton
 2CFE:3786       _find_3x_stacks
 2CFE:297A       _find_disk_rom
 3578:09C8       _find_first
 2436:0EF2       _find_holes
 3578:0772       _find_ownsect
 3578:071E       _find_sect
 2CFE:27D0       _find_video_rom
 4562:A44A       _FirstSect
 4562:A1BE       _FIXBUF
 2CFE:427A       _fixtabs
 1B42:1BBC       _fixup_corner
 2CFE:1834       _fixup_video
 2436:1CF2       _fix_overlap
 372E:00C8       _FLUSH_CACHE
 3578:007E       _fnDOS
 3578:0504       _fnMenuItem
 3578:00E4       _fnShell
 04CE:073C       _fopen
 04CE:0758       _fprintf
 04CE:1436       _fputc
 04CE:1D5C       _fputs
 2064:00A2       _fpu_textof
 04CE:27FE       _fread
 13A0:01CA       _freeCallbackHelp
 1697:1BAA       _freeHelp
 2CFE:1362       _free_ems
 2CFE:12BE       _free_xms
 4562:2416       _fromQshell
 04CE:2972       _fscanf
 04CE:2AAE       _fseek
 04CE:2B2E       _ftell
 4562:AC6C       _FUN_TAB
 04CE:0798       _fwrite
 3558:01CA       _GameCount
 3558:016A       _GameCount_sub
 2CFE:21CC       _gcp_callback
 4562:AC4C       _GENOA_5000_ID
 4562:AC78       _GENOA_FUN_TAB
 4562:AC51       _GENOA_GVGA_ID
 4562:AB02       _GENOA_ID
 37B7:0952       _GENOA_MEMSIZE
 4562:AB84       _GENOA_MID_TAB
 4562:AB09       _GENOA_MODBYTE
 4562:AB08       _GENOA_SIG
 38D8:0083       _GETBCRC
 04CE:299A       _getc
 04CE:2992       _getchar
 04CE:1C26       _getenv
 1697:1B50       _getHelpLine
 1D41:0462       _getLineLength
 2CFE:46B4       _GetPnPData
 127E:00CE       _GETXMS_VEC
 2CFE:396C       _get_4xdata
 2CFE:3BD6       _get_adf
 2CFE:0F2A       _get_basemem
 34C8:00BF       _Get_BIOSCRC
 2CFE:0C54       _get_bios_mfr
 372E:01AE       _Get_BIOS_Start
 2CFE:0B5A       _get_bootdrv
 2CFE:4A06       _get_cdrom
 2CFE:0C1E       _get_cmos
 372E:021F       _Get_CMOS_POS
 2CFE:2338       _get_config_parms
 2CFE:3C4A       _get_cpuclock
 1A1E:015C       _get_cursor
 2CFE:0AD2       _get_curtime
 3519:0024       _GET_CVID
 2CFE:20C6       _get_ddlist
 2CFE:3FE4       _get_disk_file
 2CFE:1F00       _get_dosaddrs
 2CFE:3270       _get_dosdata
 2CFE:1DBA       _get_dosnames
 2CFE:1398       _get_dpmi
 2CFE:1AE8       _get_driveparm
 2CFE:1952       _get_drives
 2CFE:0FA6       _get_ems
 2CFE:2BF2       _get_envstrs
 12B7:003E       _get_exename
 12B7:0046       _get_exepath
 2CFE:0F72       _get_extfree
 14AB:0094       _get_extkey
 2CFE:4340       _get_file_stats
 13C2:004A       _get_input
 14AB:006A       _get_key
 2CFE:1D78       _get_listlist
 167D:0064       _get_mouse
 2CFE:3026       _get_open_files
 2CFE:1A58       _get_parttable
 4562:53D0       _get_pathCB
 2CFE:3E90       _get_profile
 2CFE:4548       _get_qualitas_data
 2CFE:275A       _get_roms
 2CFE:2DFA       _get_timelist
 2CFE:13D6       _get_video_info
 1A1E:0004       _get_video_parm
 2CFE:257E       _get_windows_data
 2CFE:10F0       _get_xms
 20D2:004C       _glist_alloc
 20D2:06E0       _glist_array
 20D2:04B8       _glist_delete
 20D2:0004       _glist_init
 20D2:02FA       _glist_insert
 20D2:07A4       _glist_linked
 20D2:089A       _glist_lookup
 20D2:00FA       _glist_new
 20D2:0820       _glist_next
 20D2:0862       _glist_prev
 20D2:062A       _glist_purge
 20D2:06AC       _glist_sort
 20D2:00B6       _glist_tail
 4562:CCD8       _globalReserve
 04CE:4C18       _gmtime
 3558:0154       _GP_CountDown
 3558:0156       _GP_Int08
 3558:0150       _GP_PrevInt08
 4562:0044       _GrabFile
 0000:0934       _grab_mem
 4562:8CB0       _GraphicsLogo
 4562:52EC       _GRF_MODE
 19D0:02EA       _halfShadow
 4562:10D0       _HardMenu
 4562:21F4       _Hardware
 2163:1400       _Hardware_BIOS_Detail
 2163:194E       _Hardware_CMOS_Detail
 2163:1118       _Hardware_Drives
 2163:12EA       _Hardware_Ports
 2163:0004       _Hardware_Summary
 2163:0EE8       _Hardware_Video
 4562:CC62       _HdataColors
 4562:61CE       _HdwFmt1a
 4562:61DE       _HdwFmt1b
 4562:61EE       _HdwFmt1c
 4562:61FC       _HdwFmt1d
 4562:620E       _HdwFmt1e
 4562:621E       _HdwFmt1f
 4562:622E       _HdwFmt1g
 4562:6240       _HdwFmt1v
 4562:6252       _HdwFmt2a
 4562:6264       _HdwFmt2b
 4562:6278       _HdwFmt2c
 4562:6290       _HdwFmt2d
 4562:629A       _HdwFmt2pa
 4562:62A2       _HdwFmt2pb
 4562:62AE       _HdwFmt2pc
 4562:62BC       _HdwFmt3a
 4562:62D0       _HdwFmt3b
 4562:62FE       _HdwFmt4
 4562:630E       _HdwFmt5
 4562:6324       _HdwFmt6
 4562:6344       _HdwFmt7
 4562:6350       _HdwFmt8
 4562:6374       _HdwFmt9
 4562:3818       _HelpArgCnt
 4562:CC58       _HelpArgFrom
 4562:C878       _HelpArgNum
 4562:CC5C       _HelpArgTo
 4562:4D48       _HelpBottomTitle
 4562:49E8       _HelpButtons
 4562:CDCF       _HelpColor
 4562:CAEA       _HelpColors
 4562:38D2       _HelpContents
 4562:CCCA       _HelpCurContext
 4562:3A66       _HelpCurrentDoc
 4562:38C2       _HelpFileName
 4562:3A90       _HelpForAll
 4562:3A78       _HelpForBrowser
 4562:3AF4       _HelpForEditor
 4562:3C04       _HelpForTopic
 4562:CC3A       _HelpHotSpot
 4562:38DE       _HelpIndex
 4562:017C       _HelpInfo
 3935:0000       _HelpNames
 4562:C8BE       _HelpQuickRefColor
 4562:26AE       _HelpString
 4562:CC6C       _helpSystem
 4562:C2EA       _HelpTextWin
 4562:3674       _HelpTitles
 4562:381A       _HelpTopicCnt
 4562:C870       _HelpWinDesc
 4562:C8E0       _HelpWinType
 1697:11AA       _help_argsubs
 12F4:018E       _hideFldText
 1562:0322       _hideMenu
 1A1E:00F0       _hide_cursor
 167D:0050       _hide_mouse
 4562:53B8       _highlight_areaCB
 0000:00E0  Abs  _HPFNS
 4562:52D8       _HRCNT
 23E7:04A2       _ictrtext
 4562:A9F4       _ID_TAB
 4562:CC54       _IncLine
 4562:70A4       _InfoScratchBuf
 4562:70A8       _InfoScratchSize
 0000:0066  Abs  _INFOSIZE
 23E7:03CA       _info_color
 4562:A6CA       _INFO_CTL
 23E7:01A4       _info_fetch
 23E7:00C8       _info_finish
 23E7:0414       _info_format
 23E7:0034       _info_init
 23E7:0352       _info_length
 23E7:0114       _info_purge
 23E7:012A       _info_seek
 23E7:0008       _info_setbuf
 23E7:038E       _info_width
 19D0:0002       _initializeScreenInfo
 13C2:0004       _init_input
 14AB:0008       _init_keyboard
 167D:000C       _init_mouse
 4562:CCEC       _INSERT
 13FE:001E       _inst2324
 3519:001C       _Int13hit
 4562:4C8E       _IntMsgStrList
 142D:00FA       _intmsg_clear
 142D:0154       _intmsg_indent
 142D:00DA       _intmsg_restore
 142D:00D8       _intmsg_save
 142D:000E       _intmsg_setup
 4562:7612       _IntTitles
 4562:A424       _InWindows
 23E7:0248       _iprintf
 23E7:027A       _iputs
 385C:008E       _Is_BCF
 385C:005F       _Is_IBM
 385C:001A       _Is_MCA
 3578:079C       _is_menusect
 385C:0002       _Is_VM
 2436:1E62       _item_overlap
 23E7:045E       _iwraptext
 1A8B:04F4       _izit3270
 1A8B:0494       _izitega
 1A8B:04C0       _izitpgc
 1497:0006       _justifyString
 4562:5104       _keepIt
 1497:00A6       _keyboard_id
 4562:A598       _Keywords
 12F4:0964       _killBlock
 12F4:0156       _killFldEdit
 015A:044C       _killPrinting
 1A67:00EC       _killWait
 4562:5118       _lastBackContext
 4562:CDE4       _LastButton
 4562:5112       _lastHelpTopic
 4562:511C       _lastHelpType
 4562:3170       _lastopt
 3519:0023       _last_i13_drv
 3575:000E       _launder_string
 4562:A751       _LCLMEM
 4562:A6FD       _LCL_FLAG
 2CFE:18C2       _lcl_get_mouse
 4562:1266       _LearnMenu
 4562:4D7E       _LicColon
 4562:4D62       _LicensedTo
 4562:CD14       _LineChanged
 1B42:0EE6       _lnbc
 1697:0852       _loadHelp
 4562:21E0       _Loading
 00C6:04BC       _loadMultHelp
 1B42:0F14       _LoadScreen
 1697:0F34       _loadText
 4562:C76E       _LocalLine
 04CE:309C       _localtime
 1B42:19BC       _locate_cursor
 1B42:1A1C       _locate_display
 4562:389A       _LogoAddress
 4562:C714       _LogoColor
 0000:0000       _main
 4562:38E6       _MainButtons
 2436:0000       _make_umap
 2436:144A       _map_dd
 2436:17A4       _map_dosdata
 2436:131A       _map_extra
 2436:0DC0       _map_flexroms
 2436:090C       _map_highmem
 2436:118E       _map_holes
 2436:1964       _map_ints
 2436:0724       _map_lowmem
 2436:0C8C       _map_roms
 2436:1A9C       _map_shortitems
 2436:0AEC       _map_video
 2436:1A3E       _map_zeroes
 4562:CCFA       _mark
 4562:C86E       _markon
 4562:CCCE       _markWasOn
 372E:0004       _MARK_XT
 4562:AC92       _MaxConfig
 4562:A951       _MAXdNAME
 4562:8DAC       _MaxFspecs
 4562:A6CB       _MAXINFO
 4562:A6D1       _MAXINFOVER
 4562:CCE6       _MaxMESSAGEWIDTH
 4562:2326       _MAXName
 372E:0146       _MAXPRES
 4562:A719       _MAXROM
 4562:A749       _MAXVER
 04CE:7354       _memcmp
 04CE:222C       _memcpy
 4562:789A       _MemFmt1
 4562:79CA       _MemFmt10
 4562:79DE       _MemFmt11
 4562:79EC       _MemFmt12a
 4562:79FE       _MemFmt12b
 4562:7A1A       _MemFmt12c
 4562:7A2E       _MemFmt13a
 4562:7A40       _MemFmt13b
 4562:7A4E       _MemFmt13c
 4562:7A5C       _MemFmt13d
 4562:7A76       _MemFmt14
 4562:7A96       _MemFmt14b
 4562:78B2       _MemFmt2
 4562:78CA       _MemFmt3
 4562:7904       _MemFmt4
 4562:7916       _MemFmt5a
 4562:7920       _MemFmt5b
 4562:7940       _MemFmt6
 4562:7952       _MemFmt7
 4562:7970       _MemFmt8
 4562:7982       _MemFmt9a
 4562:7996       _MemFmt9b
 4562:79A6       _MemFmt9c
 4562:79B4       _MemFmt9d
 4562:A412       _Memhandle
 04CE:33D0       _memmove
 4562:0B52       _MemoryMenu
 2163:214C       _memory_bits
 263F:16E4       _Memory_EMS_Usage
 263F:13C2       _Memory_Expanded
 263F:127A       _Memory_Extended
 263F:0C32       _Memory_High_DOS
 263F:0F56       _Memory_Interrupts
 263F:0AB2       _Memory_Low_DOS
 263F:0D1C       _Memory_ROM_Scan
 263F:0002       _Memory_Summary
 263F:1E26       _Memory_Timing
 263F:1B9E       _Memory_XMS
 04CE:228A       _memset
 0000:0C22       _mem_alloc
 0000:0C32       _mem_clone
 0000:0C3A       _mem_free
 0000:0C36       _mem_grow
 0000:0C26       _mem_lock
 0000:0C2E       _mem_realloc
 0000:0C3E       _mem_report
 0000:0C3C       _mem_setname
 0000:0C2A       _mem_unlock
 1562:03B6       _menuClick
 4562:CDEE       _MenuCount
 4562:C89E       _MenuDisableColor
 4562:4BE0       _MenuEsc
 4562:CC6A       _MenuItemDisabled
 4562:CAE9       _MenuItemTriggerColor
 1562:04CE       _menuKey
 1562:0D62       _menuNextActive
 4562:CC4A       _MenuOrder
 1562:0DA6       _menuPrevActive
 3578:0DF2       _menu_parse
 4562:1B1A       _Message
 4562:3DF4       _MessageButtons
 4562:C71A       _messageText
 4562:86DA       _MfrList1
 4562:8B00       _MfrList2
 2CFE:0EC8       _mfr_test
 4562:AB5E       _MID_TAB
 37B7:09BE       _MODECHG_MEMSIZE
 4562:AA6C       _MODEL_JMP
 4562:5042       _Monthsofyr
 1A1E:024E       _move_cursor
 4562:4EB6       _MsgAddLine
 4562:4E66       _MsgChgsMade
 4562:4F06       _MsgDelLine
 4562:4E16       _MsgFDMallocErr
 4562:53A4       _MsgFileCol
 4562:4DC6       _MsgFileErr
 4562:2696       _MsgLogoText
 4562:46C0       _msgs
 4562:4F56       _MsgSameLine
 015A:0962       _myPrint
 1B42:133C       _NewScroll
 1697:1B0C       _nextContextHelp
 4562:CCC6       _NextLine
 4562:510E       _nextStop
 4562:A74F       _NMIDIS
 4562:A74E       _NMIENA
 4562:A750       _NMIMASK
 4562:A74C       _NMIPORT
 1116:0470       _noDefaultButton
 167D:0100       _nomem_bailout
 4562:1DD2       _NoneText
 4562:CC50       _NorDlgColors
 4562:AA92       _NORESTORE
 4562:CCD6       _NormalColor
 4562:8CAC       _NoTestDiskCache
 4562:8CAA       _NoTestEMS
 4562:8CB6       _NoTestGamePort
 4562:8CA8       _NoTestMem
 4562:8CAE       _NoTestVGA
 4562:52E6       _NSCR_COLS
 4562:52E8       _NSCR_ROWS
 19BC:00C0       _ntrim
 3519:0010       _Oldboot13
 3519:000C       _Oldint13
 3519:0014       _Oldint23
 3519:0018       _Oldint24
 3519:0008       _Oldint8
 4562:CDF6       _optfbptr
 4562:CAF6       _optfbuff
 4562:316C       _optfile
 4562:316A       _optind
 4562:CC6E       _OptionHighColor
 4562:CAE8       _OptionTextColor
 4562:AC7C       _ORCHID_FUN_TAB
 4562:AB1C       _ORCHID_ID
 4562:AB8C       _ORCHID_MID_TAB
 3869:0006       _orcopy
 3578:07FC       _order_menus
 4562:A41D       _Orig_chr
 4562:A41E       _Orig_csr
 4562:A41C       _Orig_page
 3519:006D       _our_boot13
 3519:0057       _our_int13
 3519:00E1       _our_int23
 3519:00E2       _our_int24
 3519:0077       _our_int8
 372E:007D       _OUTCMOS
 4562:CDF4       _PageChanged
 0000:036A       _paintback
 19D0:0096       _paintBackgroundScreen
 1870:130C       _paintScrollBar
 14D3:0886       _paint_text
 37B7:05F3       _PARADISE_EXIT
 4562:AC72       _PARADISE_FUN_TAB
 4562:AAD2       _PARADISE_ID
 37B7:0957       _PARADISE_MEMSIZE
 4562:AB6E       _PARADISE_MID_TAB
 4562:ABD3       _PARADISE_PVGA1a_ID
 4562:AADE       _PARADISE_SIG
 4562:ABDB       _PARADISE_WD90C00_ID
 4562:ABE4       _PARADISE_WD90C10_ID
 4562:ABED       _PARADISE_WD90C11_ID
 4562:A4B8       _Parsed4DOS
 4562:A745       _PaSYSROM
 4562:511E       _Pattern
 4562:ACC2       _PMI_SEG
 1A1E:02A2       _pop_cursor
 4562:A6EF       _PORT67
 3704:00AA       _pos_test
 4562:A705       _POVR_MAC
 167D:016E       _prerror
 044D:000E       _presentData
 19D0:0106       _pressAnyKey
 4562:CC70       _PressAnyKeyColor
 4562:4998       _PressAnyKeyData
 4562:CDEA       _PrevLine
 4562:AA93       _PREVMODE
 4562:CCEA       _prevNextFlag
 4562:AA94       _PREVPAGE
 4562:CAF2       _PrevSect
 4562:510A       _prevStop
 4562:CC72       _PrintableHelp
 015A:1142       _printAllData
 015A:0D18       _printAllHelp
 4562:39B6       _PrintButtons
 015A:0FAA       _printEditor
 04CE:0930       _printf
 015A:134A       _printFile
 4562:CBFA       _PrintFile
 4562:398E       _PrintFileName
 015A:0C04       _printHelp
 015A:1523       _printInfo
 4562:1B24       _Printing
 4562:1BA0       _PrintingButtons
 4562:3DD4       _PrintOptions
 4562:3998       _PrintOutput
 4562:1B80       _PrintPage
 4562:1B72       _PrintPageTitle
 4562:C8C0       _PrintProgramName
 015A:0DB1       _printThisContext
 4562:3986       _PrintTitle
 015A:143E       _printTitle
 4562:1B5E       _PRINTTYPETEXT
 4562:39A8       _PrintWhat
 015A:1075       _printWindow
 1E0A:092E       _print_argsubs
 4562:8158       _ProfileOpts
 4562:C8B2       _ProgramNameAttr
 263F:2062       _program_summ
 4562:509E       _ProKeywordSeps
 1116:09C4       _pushButton
 1A1E:0278       _push_cursor
 12F4:0A36       _putBlock
 04CE:1436       _putc
 04CE:142E       _putchar
 4562:3AA4       _P_Browser
 4562:3B0C       _P_Editor
 4562:3BC8       _P_Gloss
 4562:3C1C       _P_Help
 4562:3C84       _P_Menu
 4562:3B5C       _P_OEditor
 4562:3D18       _P_Tutor
 4562:50A2       _QComments
 4562:CDDA       _QHelpColors
 14D3:05BC       _qlogo
 3714:0002       _qmaxpres
 3714:009A       _qmovpres
 04CE:352E       _qsort
 2917:000E       _qtas_init
 4562:CCDC       _QuickBackColor
 4562:4B1C       _QuickReference
 044D:0504       _quickShowData
 4562:CDD2       _QuickWin
 4562:CAE0       _RawInfo
 4562:0092       _ReadFile
 0448:005A       _readProfile
 3519:00E5       _READ_BUFF
 3578:0B52       _read_config
 2CFE:4436       _read_maxbst
 2885:0002       _read_profile
 4562:CCD2       _RecallString
 4562:52E4       _REGH_SIZ
 04CE:27EE       _remove
 0000:05F4       _reportEval
 0000:0396       _report_update
 4562:C898       _reserve
 1A8B:0459       _reset_mode
 1870:024C       _resizeVWin
 1116:0DB8       _restoreButtons
 3519:0128       _rest_dcvid
 37B7:07D4       _REST_SVGA
 3519:001E       _Result
 2CFE:2B24       _rom_find
 4562:94AE       _RwKeyword
 4562:AC64       _S3_86C911_ID
 4562:AC7C       _S3_FUN_TAB
 4562:AB35       _S3_ID
 37B7:0A15       _S3_MEMSIZE
 4562:AB8C       _S3_MID_TAB
 1D41:0A8A       _salloc
 1116:0CCC       _saveButtons
 4562:31B0       _savedCount
 1B42:110C       _SaveLine
 4562:C328       _SAVEON
 4562:CD7A       _saveStack
 4562:1BDA       _SaveTitle
 3755:00E2       _save_adf_files
 4562:53BC       _save_changesCB
 4562:A420       _Save_csr
 3519:0119       _save_dcvid
 4562:A422       _Save_page
 37B7:0719       _SAVE_SVGA
 4562:4CE6       _Saving
 0000:02A4       _sayHello
 015A:047E       _sayPage
 015A:04B2       _sayPrinting
 1A67:0000       _sayWait
 1A67:012C       _sayWaitWindow
 4562:3512       _ScreenSet
 4562:350E       _ScreenSize
 4562:C89C       _ScreenType
 0000:0002  Abs  _SCRUP_MODE
 4562:A432       _SectCount
 10A5:0368       _sendBLItem
 12F4:035C       _sendFldEditClick
 12F4:0460       _sendFldEditKey
 13FE:0284       _set24_resp
 1116:02AA       _setButtonData
 1116:03D6       _setButtonFocus
 1116:0916       _setButtonText
 0000:0926       _setColors
 1116:0966       _setCurrentButton
 1697:1884       _setHelp
 1697:1184       _setHelpArgs
 1697:139A       _setHotButton
 1203:0000       _setLibColors
 0000:0648       _setOptions
 00C6:0004       _setupRecommend
 00C6:0112       _setupTuning
 3578:186E       _set_current
 1A1E:016A       _set_cursor
 3519:0039       _SET_CVID
 12B7:0008       _set_exename
 1A8B:03F5       _set_mode
 167D:00DE       _set_mouse_pos
 1A1E:00E2       _set_video_mode
 14D3:0816       _set_vmode
 4562:C715       _ShadowColor
 19D0:01B4       _shadowWindow
 4562:CCDE       _SHIFT
 1116:039E       _showAllButtons
 10A5:0000       _showBList
 10A5:008C       _showBLItem
 1116:0A16       _showButton
 1697:0D72       _showDataHelp
 12F4:0004       _showFldEdit
 12F4:01AE       _showFldText
 1697:0228       _showHelp
 14D3:0004       _showLogo
 1562:0002       _showMenu
 1562:012C       _showMenuItem
 1E0A:0870       _showPrintText
 1697:0BAA       _showQuickHelp
 0389:0962       _showSnapText
 1697:1092       _showText
 1A1E:0120       _show_cursor
 167D:003C       _show_mouse
 263F:2010       _simple_summ
 4562:31A2       _singleBoxChars
 1855:0080       _sleep
 0000:0001  Abs  _SLOW_MODE
 4562:AC84       _SMEMORY
 4562:AC82       _SMODEL
 4562:22BE       _SnapADFDefault
 4562:22AA       _SnapADFQuery
 4562:1C38       _SnapButtons
 0389:000E       _snapClear
 4562:1C1E       _SnapDesc
 0389:09F6       _snapDesc
 4562:1DD8       _SnapDescColon
 4562:241C       _snapDescText
 4562:1BFC       _SnapDir
 4562:1D14       _SnapFileMenuInfo
 4562:1BF0       _SnapInParens
 0389:0074       _snapLoad
 4562:1CE8       _SnapLoadButton
 4562:222E       _SnapMallocErr
 4562:09BC       _SnapMenu
 4562:1D30       _SnapMenuItems
 0389:049A       _snapSave
 4562:1BEA       _SnapSearchSpec
 4562:5086       _SnapshotOnly
 4562:2246       _SnapSysinfoErr
 4562:2260       _SnapWriteErr
 4562:227C       _SnapWriting
 4562:8CB2       _SnowControl
 4562:C8B8       _SolidBlackColor
 1697:1636       _specialHelp
 4562:53D4       _SpecialSearchStr
 04CE:1DBE       _sprintf
 37B7:0A19       _SRCHSTR
 04CE:2CCE       _sscanf
 388A:004E       _sstor_drive
 388A:000C       _sstor_ioctl
 388A:00AC       _sstor_mapping
 388A:00F4       _stacked_drive
 392F:000E       _stacker_present
 4562:ACA4       _stackinfo
 1697:000C       _startHelp
 4562:A4A0       _StartupBat
 3519:0137       _start_twirly
 4562:AB54       _STB_ETID
 4562:AB50       _STB_ID
 4562:AB90       _STB_MID_TAB
 4562:AB5A       _STB_S3ID
 4562:2C9E       _STKHQQ
 04CE:1AA0       _strcat
 04CE:21FA       _strchr
 04CE:2A2C       _strcmp
 04CE:1AF4       _strcpy
 04CE:1B30       _strlen
 04CE:1B74       _strncmp
 04CE:1B4A       _strncpy
 04CE:4DB8       _strpbrk
 04CE:3264       _strrchr
 04CE:3364       _strstr
 04CE:32BC       _strtok
 4562:AC8E       _SUB_FLAG
 4562:AC7E       _SVENDOR
 37B7:0023       _SVGA_ACTIVEROM
 37B7:0000       _SVGA_ISVGA
 37B7:06E9       _SVGA_MEMSIZE
 37B7:0518       _SVGA_MODEL
 37B7:068A       _SVGA_MODELID
 37B7:003F       _SVGA_VENDOR
 37B7:04D5       _SVGA_VENDORID
 4562:AC90       _SwappedDrive
 4562:C8C4       _SwapTable
 388A:015E       _swap_logic
 2CCF:0002       _sysbuf_alloc
 2CCF:01BA       _sysbuf_append
 2CCF:0108       _sysbuf_avail
 2CCF:00D0       _sysbuf_free
 2CCF:0292       _sysbuf_glist
 2CCF:0278       _sysbuf_ptr
 2CCF:004C       _sysbuf_realloc
 2CCF:0130       _sysbuf_store
 4562:8CA0       _SysInfo
 4562:8CA4       _SysInfoBuf
 2CFE:00C4       _sysinfo_init
 29C5:0A42       _sysinfo_look
 2CFE:0006       _sysinfo_preinit
 2CFE:09F2       _sysinfo_purge
 29C5:0004       _sysinfo_read
 2CFE:00A4       _sysinfo_refresh
 31C0:007E       _sysinfo_write
 4562:23C6       _SYSININame
 4562:3166       _szNil
 1D41:0BCC       _tablen
 4562:539E       _TabStop
 4562:309C       _tbmhFdb
 10A5:017E       _testBLItem
 1116:0498       _testButton
 1116:0748       _testButtonClick
 1562:057E       _testMenu
 1870:109C       _testScroll
 4562:012E       _TextFile
 4562:249A       _TheseNums
 1A1E:01FC       _thin_cursor
 4562:5106       _thisContext
 04CE:1E82       _time
 1252:0186       _timedatefmt
 4562:50F4       _TimeoutDelay
 4562:50F2       _TimeoutInput
 4562:50F8       _TimeoutKey
 1252:00A0       _timestr
 04CE:2DDC       _tmpfile
 04CE:2D1A       _tmpnam
 4562:3D60       _ToDisk
 4562:3D54       _ToPrinter
 04CE:2A6C       _toupper
 14AB:025A       _translate_altKey
 4562:AB9E       _TRIDENT_8800_ID
 4562:ABA3       _TRIDENT_8900_ID
 4562:AC6E       _TRIDENT_FUN_TAB
 4562:AAAE       _TRIDENT_ID
 37B7:0898       _TRIDENT_MEMSIZE
 4562:AB62       _TRIDENT_MID_TAB
 4562:AAB6       _TRIDENT_SIG
 4562:C8B7       _TriggerColor
 19BC:000C       _trim
 19BC:00EE       _trnbln
 38C4:00CE       _truedir
 38C4:0038       _truename
 38C4:0070       _truename_cmp
 38C4:000E       _truename_fn
 4562:ABF6       _TSENG_ET3000_ID
 4562:ABFE       _TSENG_ET4000_ID
 4562:AC74       _TSENG_FUN_TAB
 4562:AAE2       _TSENG_ID
 37B7:09BC       _TSENG_MEMSIZE
 4562:AB76       _TSENG_MID_TAB
 1D41:0C02       _ttWinPut_c
 10A5:02F6       _turnBListOff
 4562:0908       _tutorWorkSpace
 1B42:1B1E       _tWinPut_c
 1B42:15BE       _tWin_show
 4562:A423       _Twirly_active
 4562:A426       _Twirly_csr
 4562:A425       _Twirly_page
 4562:4084       _TypeMessage
 2436:1C56       _umcmp
 04CE:29BC       _ungetc
 4562:3174       _ungetptr
 4562:AA97       _UNK_ID
 4562:3F80       _UpdateButtons
 263F:21A4       _use_summ
 4562:1E10       _UtilDataError
 4562:5082       _ValPathTerms
 1A8B:03D3       _VERT_WAIT
 4562:AB0C       _VESA_ID
 4562:AB88       _VESA_MID_TAB
 4562:AA95       _VESA_MODECNT
 4562:AC8A       _VESA_MODES
 4562:AC86       _VESA_OEMP
 4562:AA90       _VGACURPOS
 4562:AA8E       _VGACURSHAPE
 4562:AA8D       _VGAROWS
 4562:AA8C       _VGASAVED
 4562:AA8A       _VGASAVEP
 2163:1E6E       _vga_memsize
 4562:ABCD       _VIDEO7_1024i_ID
 4562:ABB1       _VIDEO7_FASTWRITE_ID
 4562:AC70       _VIDEO7_FUN_TAB
 4562:AACA       _VIDEO7_ID
 37B7:09F8       _VIDEO7_MEMSIZE
 4562:AB66       _VIDEO7_MID_TAB
 4562:ABC1       _VIDEO7_V7VGAV5_ID
 4562:ABA8       _VIDEO7_VEGA_ID
 4562:CCEE       _VIEW
 13C2:0102       _visible_mouse
 4562:AC80       _VMODEL
 1B42:1A6C       _vNew_key
 1B42:125C       _vNew_mouse
 04CE:2E4C       _vprintf
 4562:52DA       _VRCNT_A
 4562:52DC       _VRCNT_B
 4562:52DE       _VRCNT_C
 4562:52E0       _VRCNT_D
 4562:52E2       _VRCNT_E
 04CE:2E90       _vsprintf
 1870:080A       _vWinGet_s
 1B42:10B2       _vWinPut_a
 1870:0348       _vWinPut_c
 1870:03E6       _vWinPut_ca
 1B42:102C       _vWinPut_s
 1870:046C       _vWinPut_sa
 1870:04FC       _vWinPut_sca
 1D41:0486       _vWinTitle
 1870:0B5C       _vWin_ask
 1870:0B02       _vWin_clearBottom
 1870:000A       _vWin_create
 1870:091E       _vWin_deleteChar
 1870:0200       _vWin_destroy
 1B42:00FA       _vWin_edit_ask
 1870:0304       _vWin_forceCurrent
 1855:00D4       _vWin_get_cursor
 1855:0120       _vWin_hide_cursor
 1870:0862       _vWin_insertChar
 1870:0E6E       _vWin_key
 1870:0FDC       _vWin_mouse
 1870:063C       _vWin_put_a
 1870:05A2       _vWin_put_c
 1870:06D6       _vWin_put_s
 1870:076C       _vWin_put_sca
 1870:02DA       _vWin_setDelay
 1855:00E0       _vWin_set_cursor
 1870:09CC       _vWin_show
 1855:0102       _vWin_show_cursor
 1855:013E       _vWin_updateCursor
 4562:CDE8       _WaitColor
 14D3:08D4       _wait_retrace
 14D3:052E       _wcenter
 1A8B:0285       _wget_a
 1A8B:029D       _WGET_A_FAST
 1A8B:02A2       _WGET_A_SLOW
 1A8B:0259       _wget_c
 1A8B:02B1       _wget_ca
 1A8B:02C9       _WGET_COM
 1A8B:0271       _WGET_C_FAST
 1A8B:0276       _WGET_C_SLOW
 4562:3D84       _WherePrintList
 4562:18AE       _WhichLogo
 4562:8E4E       _WindowsFspecs
 4562:A95A       _WINVXD_VEC
 1ADC:00E4       _win_restore
 1ADC:0008       _win_save
 1ADC:012A       _win_version
 1ADC:0190       _wordcpy
 1ADC:01C2       _wordrcpy
 1ADC:0168       _wordset
 1A8B:0031       _wput_a
 1A8B:0049       _WPUT_A_FAST
 1A8B:004E       _WPUT_A_SLOW
 1A8B:0006       _wput_c
 1A8B:00C5       _wput_ca
 1A8B:00DD       _WPUT_CA_FAST
 1A8B:00E0       _WPUT_CA_SLOW
 1A8B:014F       _WPUT_COM
 1A8B:011D       _wput_csa
 1A8B:0135       _WPUT_CSA_FAST
 1A8B:013D       _WPUT_CSA_SLOW
 1A8B:001D       _WPUT_C_FAST
 1A8B:0022       _WPUT_C_SLOW
 1A8B:0091       _wput_sa
 1A8B:00A9       _WPUT_SA_FAST
 1A8B:00B1       _WPUT_SA_SLOW
 1A8B:005D       _wput_sc
 1A8B:00EE       _wput_sca
 1A8B:0106       _WPUT_SCA_FAST
 1A8B:010C       _WPUT_SCA_SLOW
 1A8B:0075       _WPUT_SC_FAST
 1A8B:007D       _WPUT_SC_SLOW
 1AFB:0006       _wrapString
 1AFB:0318       _wrapStrlen
 4562:00E0       _WriteFile
 4562:21FE       _WriteSnap
 0000:0A28       _write_text
 4562:A1CE       _XORLIST
 4562:3E20       _YesNoButtons
 4562:3E78       _YesNoEscButtons
 1B42:17E4       _zWin_show
 4562:2C9A       __aaltstkovr
 04CE:3B38       __access
 4562:2C3C       __acfinfo
 0000:9876  Abs  __acrtmsg
 0000:9876  Abs  __acrtused
 0000:D6D6  Abs  __aDBdoswp
 4562:2C96       __adbgmsg
 4562:2C1E       __aexit_rtn
 04CE:4A78       __aFahdiff
 04CE:02CA       __aFchkstk
 04CE:65F4       __aFFalmul
 04CE:65F4       __aFFaulmul
 04CE:40C0       __aFftol
 04CE:2396       __aFldiv
 04CE:2430       __aFlmul
 04CE:2462       __aFlrem
 04CE:3E80       __aFlshl
 04CE:3E8C       __aFuldiv
 04CE:2430       __aFulmul
 04CE:3EEC       __aFulshr
 0000:1000  Abs  __AHINCR
 0000:000C  Abs  __AHSHIFT
 4562:2C4A       __aintdiv
 4562:2F28       __amblksiz
 04CE:00F8       __amsg_exit
 4562:0042       __anullsize
 4562:2C36       __aseghi
 4562:2C38       __aseglo
 4562:2C20       __asizds
 4562:2F4A       __asizeC
 4562:2F4B       __asizeD
 04CE:0014       __astart
 4562:2C1C       __atopsp
 04CE:2F42       __bdos
 04CE:2336       __bios_printer
 04CE:1BB4       __catox
 04CE:5ED2       __cenvarg
 04CE:01FE       __cexit
 04CE:5C3C       __cfltcvt
 4562:2F2A       __cfltcvt_tab
 4562:2CBC       __cflush
 04CE:582C       __cftoe
 04CE:59E4       __cftof
 04CE:5B68       __cftog
 4562:9D18       __chbuf
 04CE:73B7       __chdir
 04CE:522E       __chdrive
 4562:2C8D       __child
 04CE:02CA       __chkstk
 04CE:0126       __cinit
 04CE:00E9       __cintDIV
 4562:9D7C       __citime
 04CE:145E       __close
 04CE:22D2       __cltoasub
 04CE:1E28       __commit
 4562:2F12       __commode
 4562:2C65       __cpumode
 04CE:2EF8       __creat
 04CE:5732       __cropzeros
 04CE:0276       __ctermsub
 4562:2F4C       __ctype
 4562:2F4C       __ctype_
 04CE:16BB       __cXENIXtoDOSmode
 04CE:22DF       __cxtoa
 04CE:0208       __c_exit
 04CE:0124       __dataseg
 4562:308A       __daylight
 4562:3068       __days
 127E:009C       __dfree
 127E:000E       __dmalloc
 04CE:6230       __doexec
 04CE:5E47       __DOSCREATECSALIAS
 04CE:5E12       __DOSDEVCONFIG
 4562:2C66       __doserrno
 04CE:5E5D       __DOSFREESEG
 04CE:5E29       __DOSGETMACHINEMODE
 04CE:05E2       __dosret0
 04CE:05F7       __dosretax
 04CE:05EA       __dosreturn
 04CE:5E3E       __DOSSETVEC
 04CE:2102       __dostotime_t
 04CE:5E66       __DOSWRITE
 04CE:3E28       __dos_close
 04CE:234A       __dos_commit
 04CE:2363       __dos_findfirst
 04CE:2358       __dos_findnext
 04CE:65BC       __dos_getdate
 04CE:73F0       __dos_getftime
 04CE:65D8       __dos_gettime
 04CE:3E36       __dos_open
 04CE:3E50       __dos_read
 04CE:740C       __dos_setftime
 04CE:3E57       __dos_write
 127E:004F       __drealloc
 3578:003A       __dstrdup
 4562:B52C       __edata
 0C23:0000       __EmDataSeg
 4562:CE00       __end
 04CE:0974       __endstdio
 4562:2C84       __environ
 0000:9876  Abs  __execmsg
 04CE:3B18       __execv
 04CE:5088       __execve
 04CE:01F6       __exit
 4562:2C95       __exitflag
 4562:2C4E       __fac
 3578:000C       __farfopen
 04CE:0638       __farstub
 04CE:57DA       __fassign
 04CE:1CBC       __fcloseall
 4562:2C3A       __fDosExt
 04CE:17CA       __ffree
 04CE:02A2       __FF_MSGBANNER
 04CE:2992       __fgetchar
 4562:2F1A       __fheap
 04CE:098A       __filbuf
 4562:9DFE       __fileinfo
 04CE:1A3C       __findlast
 04CE:27C4       __findseg
 04CE:0A26       __flsbuf
 04CE:67F6       __fltin
 04CE:6616       __fltout
 0000:9876  Abs  __fltused
 04CE:0DF2       __flush
 04CE:0E72       __flushall
 04CE:17DD       __fmalloc
 04CE:3EF8       __fmemcmp
 04CE:3F54       __fmemcpy
 04CE:4078       __fmemset
 4562:2F10       __fmode
 04CE:56C4       __forcdecpt
 0C23:0873       __fpemulator
 0C23:0010       __fpemulatorbegin
 0C23:2668       __fpemulatorend
 0C23:02DE       __FPEXCEPTION87
 4562:B210       __fpinit
 0C23:267A       __FPINSTALL87
 0C23:003A       __fpmath
 04CE:5CCE       __fpsignal
 42F9:0169       __fptaskdata
 0C23:26A9       __FPTERMINATE87
 04CE:5D6A       __fptostr
 04CE:02C4       __fptrap
 04CE:142E       __fputchar
 04CE:2676       __frealloc
 04CE:0B12       __freebuf
 04CE:0708       __fsopen
 04CE:748E       __fstrcat
 04CE:7420       __fstrchr
 04CE:403C       __fstrcpy
 04CE:731C       __fstrdup
 04CE:3FB2       __fstricmp
 04CE:4022       __fstrlen
 04CE:7452       __fstrncmp
 04CE:3FF8       __fstrncpy
 04CE:74E2       __fstrstr
 04CE:0D53       __ftbuf
 04CE:4B06       __ftime
 04CE:40C0       __ftol
 04CE:5386       __fullpath
 04CE:0B4A       __getbuf
 04CE:2A86       __getch
 04CE:2A82       __getche
 04CE:524A       __getcwd
 04CE:5262       __getdcwd
 04CE:5226       __getdrive
 04CE:4E16       __getpath
 04CE:13E0       __getstream
 04CE:195C       __growseg
 04CE:19EB       __incseg
 04CE:1876       __initseg
 04CE:3210       __inittime
 04CE:3062       __inp
 04CE:4108       __input
 04CE:2F54       __int86x
 04CE:2FF0       __intdos
 04CE:4AA4       __intdosx
 4562:2C90       __intno
 4562:2CBE       __iob
 4562:2DAE       __iob2
 4562:2F10       __iomode
 04CE:2034       __isindst
 04CE:1C0A       __itoa
 4562:2E9E       __lastiob
 04CE:7067       __LD12MULT
 04CE:6F92       __LD12MULTTENPOWER
 04CE:18AA       __linkseg
 4562:304E       __lpdays
 04CE:147E       __lseek
 4562:2F14       __lseekchk
 04CE:2A56       __ltoa
 04CE:3A26       __makepath
 04CE:71EC       __MANTOLD12
 04CE:0604       __maperror
 4562:CCF2       __mbac
 04CE:349A       __memicmp
 04CE:73B0       __mkdir
 04CE:05BC       __myalloc
 04CE:1A5C       __newseg
 4562:2C68       __nfile
 4562:2C22       __nheap_desc
 04CE:055A       __NMSG_TEXT
 04CE:0585       __NMSG_WRITE
 04CE:02EE       __nullcheck
 4562:9D68       __old_pfxlen
 04CE:151A       __open
 04CE:0B96       __openfile
 4562:2C66       __oserr
 4562:2C6A       __osfile
 4562:2C61       __osmajor
 4562:2C60       __osminor
 4562:2C64       __osmode
 4562:2C60       __osver
 4562:2C62       __osversion
 04CE:3070       __outp
 04CE:0EF6       __output
 4562:2C8F       __ovlflag
 4562:2C91       __ovlvec
 4562:2C88       __pgmptr
 4562:2F16       __pnhFarHeap
 04CE:57AC       __positive
 4562:2C5E       __psp
 4562:2C5C       __pspadr
 04CE:307E       __putch
 4562:9DCC       __p_overlay
 04CE:16CC       __read
 04CE:26FC       __resize
 04CE:73C6       __rmdir
 04CE:5E80       __rmtmp
 04CE:3900       __searchenv
 04CE:18E0       __searchseg
 04CE:3042       __segread
 04CE:0312       __setargv
 04CE:04BA       __setenvp
 4562:2F48       __sigintoff
 4562:2F46       __sigintseg
 04CE:1500       __sopen
 04CE:3744       __splitpath
 04CE:2662       __stackavail
 04CE:3C3E       __stat
 04CE:0CD2       __stbuf
 04CE:321E       __strcmpi
 04CE:321E       __stricmp
 04CE:6A0A       __STRINGTOD
 04CE:6A72       __STRINGTOLD
 04CE:3298       __strupr
 4562:9D66       __tempoff
 4562:3086       __timezone
 4562:9D64       __tmpoff
 04CE:2A60       __toupper
 4562:3094       __tzname
 04CE:1EEA       __tzset
 4562:2C5A       __umaskval
 04CE:27EE       __unlink
 04CE:2502       __write
 04CE:5EB6       __wrt2err
 4562:B208       ___aDBexit
 4562:B206       ___aDBrterr
 4562:B204       ___aDBswpchk
 4562:B202       ___aDBswpflg
 4562:2C7E       ___argc
 4562:2C80       ___argv
 4562:B200       ___qczrinit
 04CE:1ED8       ___tzset

  Address         Publics by Value

 0000:0000       _main
 0000:0000  Abs  _FAST_MODE
 0000:0000  Abs  PnPSTR
 0000:0001  Abs  _SLOW_MODE
 0000:0002  Abs  _SCRUP_MODE
 0000:0002  Abs  PSP_STOR_MAX
 0000:0003  Abs  BINVERS_TU
 0000:0003  Abs  VERL
 0000:0008  Abs  BINVERS_H
 0000:0008  Abs  VERH
 0000:000C  Abs  __AHSHIFT
 0000:0020  Abs  VERSLTR1
 0000:002C  Abs  PSP_ENVIR_PTR
 0000:0030  Abs  VERS_T
 0000:0030  Abs  BETA_T
 0000:0030  Abs  BETA_H
 0000:0033  Abs  VERS_U
 0000:0034  Abs  BETA_U
 0000:0038  Abs  VERS_H
 0000:0066  Abs  INFOSIZE
 0000:0066  Abs  _INFOSIZE
 0000:0080  Abs  PSP_PARM_COUNT
 0000:0081  Abs  PSP_PARM_STRING
 0000:00CD  Abs  VERSLTR2
 0000:00E0  Abs  HPFNS
 0000:00E0  Abs  _HPFNS
 0000:02A4       _sayHello
 0000:0323  Abs  VER
 0000:036A       _paintback
 0000:0396       _report_update
 0000:0440       _doEval
 0000:05F4       _reportEval
 0000:0632  Abs  FISRQQ
 0000:0648       _setOptions
 0000:0803  Abs  VERS_HTU
 0000:0926       _setColors
 0000:0934       _grab_mem
 0000:0A28       _write_text
 0000:0C22       _mem_alloc
 0000:0C26       _mem_lock
 0000:0C2A       _mem_unlock
 0000:0C2E       _mem_realloc
 0000:0C32       _mem_clone
 0000:0C36       _mem_grow
 0000:0C3A       _mem_free
 0000:0C3C       _mem_setname
 0000:0C3E       _mem_report
 0000:0C40       _errmsg
 00C6:0004       _setupRecommend
 00C6:0112       _setupTuning
 0000:0E32  Abs  FICRQQ
 0000:1000  Abs  __AHINCR
 00C6:04BC       _loadMultHelp
 015A:0002       _doPrintCallback
 0000:1632  Abs  FIERQQ
 015A:044C       _killPrinting
 015A:047E       _sayPage
 015A:04B2       _sayPrinting
 015A:05D0       _dumpLine
 015A:0962       _myPrint
 015A:09FA       _doHeader
 015A:0C04       _printHelp
 015A:0D18       _printAllHelp
 015A:0DB1       _printThisContext
 015A:0FAA       _printEditor
 015A:1075       _printWindow
 015A:1142       _printAllData
 015A:134A       _printFile
 015A:143E       _printTitle
 015A:1523       _printInfo
 02C7:0008       _adf_spec
 030A:000A       _asq
 0389:000E       _snapClear
 0389:0074       _snapLoad
 0389:049A       _snapSave
 0389:055C       _askSnapShot
 0389:0962       _showSnapText
 0389:09F6       _snapDesc
 0448:0008       _abortprep
 0448:005A       _readProfile
 044D:000E       _presentData
 044D:0504       _quickShowData
 04CE:0014       __astart
 04CE:00E9       __cintDIV
 04CE:00F8       __amsg_exit
 04CE:0124       __dataseg
 04CE:0126       __cinit
 04CE:01EF       _exit
 04CE:01F6       __exit
 04CE:01FE       __cexit
 04CE:0208       __c_exit
 04CE:0276       __ctermsub
 04CE:02A2       __FF_MSGBANNER
 04CE:02C4       __fptrap
 04CE:02CA       __chkstk
 04CE:02CA       __aFchkstk
 04CE:02EE       __nullcheck
 04CE:0312       __setargv
 04CE:04BA       __setenvp
 04CE:055A       __NMSG_TEXT
 04CE:0585       __NMSG_WRITE
 04CE:05BC       __myalloc
 04CE:05E2       __dosret0
 04CE:05EA       __dosreturn
 04CE:05F7       __dosretax
 04CE:0604       __maperror
 04CE:0638       __farstub
 04CE:063A       _fclose
 04CE:0708       __fsopen
 04CE:073C       _fopen
 04CE:0758       _fprintf
 04CE:0798       _fwrite
 04CE:0930       _printf
 04CE:0974       __endstdio
 04CE:098A       __filbuf
 04CE:0A26       __flsbuf
 04CE:0B12       __freebuf
 04CE:0B4A       __getbuf
 04CE:0B96       __openfile
 04CE:0CD2       __stbuf
 04CE:0D53       __ftbuf
 04CE:0D9A       _fflush
 04CE:0DF2       __flush
 04CE:0E72       __flushall
 04CE:0EF6       __output
 04CE:13E0       __getstream
 04CE:142E       __fputchar
 04CE:142E       _putchar
 04CE:1436       _putc
 04CE:1436       _fputc
 04CE:145E       __close
 04CE:147E       __lseek
 04CE:1500       __sopen
 04CE:151A       __open
 04CE:16BB       __cXENIXtoDOSmode
 04CE:16CC       __read
 04CE:17CA       __ffree
 04CE:17DD       __fmalloc
 04CE:1876       __initseg
 04CE:18AA       __linkseg
 04CE:18E0       __searchseg
 04CE:195C       __growseg
 04CE:19EB       __incseg
 04CE:1A3C       __findlast
 04CE:1A5C       __newseg
 04CE:1AA0       _strcat
 04CE:1AF4       _strcpy
 04CE:1B30       _strlen
 04CE:1B4A       _strncpy
 04CE:1B74       _strncmp
 04CE:1BB0       _atol
 04CE:1BB4       __catox
 04CE:1C0A       __itoa
 04CE:1C26       _getenv
 04CE:1CBC       __fcloseall
 04CE:1CE2       _fgets
 04CE:1D5C       _fputs
 04CE:1DBE       _sprintf
 04CE:1E28       __commit
 04CE:1E82       _time
 04CE:1ED8       ___tzset
 04CE:1EEA       __tzset
 04CE:2034       __isindst
 04CE:2102       __dostotime_t
 04CE:21FA       _strchr
 04CE:222C       _memcpy
 04CE:228A       _memset
 04CE:22D2       __cltoasub
 04CE:22DF       __cxtoa
 04CE:2336       __bios_printer
 04CE:234A       __dos_commit
 04CE:2358       __dos_findnext
 04CE:2363       __dos_findfirst
 04CE:2396       __aFldiv
 04CE:2430       __aFlmul
 04CE:2430       __aFulmul
 04CE:2462       __aFlrem
 04CE:2502       __write
 04CE:2662       __stackavail
 04CE:2676       __frealloc
 04CE:26FC       __resize
 04CE:27C4       __findseg
 04CE:27EE       __unlink
 04CE:27EE       _remove
 04CE:27FE       _fread
 04CE:2972       _fscanf
 04CE:2992       __fgetchar
 04CE:2992       _getchar
 04CE:299A       _fgetc
 04CE:299A       _getc
 04CE:29BC       _ungetc
 04CE:2A2C       _strcmp
 04CE:2A56       __ltoa
 04CE:2A60       __toupper
 04CE:2A6C       _toupper
 04CE:2A82       __getche
 04CE:2A86       __getch
 04CE:2AAE       _fseek
 04CE:2B2E       _ftell
 04CE:2CCE       _sscanf
 04CE:2D1A       _tmpnam
 04CE:2DDC       _tmpfile
 04CE:2E4C       _vprintf
 04CE:2E90       _vsprintf
 04CE:2EF8       __creat
 04CE:2F14       _calloc
 04CE:2F42       __bdos
 04CE:2F54       __int86x
 04CE:2FF0       __intdos
 04CE:3042       __segread
 04CE:3062       __inp
 04CE:3070       __outp
 04CE:307E       __putch
 04CE:309C       _localtime
 04CE:31C2       _clock
 04CE:3210       __inittime
 04CE:321E       __strcmpi
 04CE:321E       __stricmp
 04CE:3264       _strrchr
 04CE:3298       __strupr
 04CE:32BC       _strtok
 04CE:3364       _strstr
 04CE:33D0       _memmove
 04CE:349A       __memicmp
 04CE:3520       _abs
 04CE:352E       _qsort
 04CE:3744       __splitpath
 04CE:3900       __searchenv
 04CE:3A26       __makepath
 04CE:3B18       __execv
 04CE:3B38       __access
 04CE:3C3E       __stat
 04CE:3E28       __dos_close
 04CE:3E36       __dos_open
 04CE:3E50       __dos_read
 04CE:3E57       __dos_write
 04CE:3E80       __aFlshl
 04CE:3E8C       __aFuldiv
 04CE:3EEC       __aFulshr
 04CE:3EF8       __fmemcmp
 04CE:3F54       __fmemcpy
 04CE:3FB2       __fstricmp
 04CE:3FF8       __fstrncpy
 04CE:4022       __fstrlen
 04CE:403C       __fstrcpy
 04CE:4078       __fmemset
 04CE:40C0       __aFftol
 04CE:40C0       __ftol
 04CE:4108       __input
 04CE:4A78       __aFahdiff
 04CE:4AA4       __intdosx
 04CE:4B06       __ftime
 0000:9876  Abs  __fltused
 0000:9876  Abs  __acrtused
 0000:9876  Abs  __execmsg
 0000:9876  Abs  __acrtmsg
 04CE:4C18       _gmtime
 04CE:4DB8       _strpbrk
 04CE:4E16       __getpath
 04CE:5088       __execve
 04CE:5226       __getdrive
 04CE:522E       __chdrive
 04CE:524A       __getcwd
 04CE:5262       __getdcwd
 04CE:5386       __fullpath
 04CE:56C4       __forcdecpt
 04CE:5732       __cropzeros
 04CE:57AC       __positive
 04CE:57DA       __fassign
 04CE:582C       __cftoe
 04CE:59E4       __cftof
 04CE:5B68       __cftog
 04CE:5C3C       __cfltcvt
 04CE:5CCE       __fpsignal
 04CE:5D12       _atof
 04CE:5D6A       __fptostr
 04CE:5E12       __DOSDEVCONFIG
 04CE:5E29       __DOSGETMACHINEMODE
 04CE:5E3E       __DOSSETVEC
 04CE:5E47       __DOSCREATECSALIAS
 04CE:5E5D       __DOSFREESEG
 04CE:5E66       __DOSWRITE
 04CE:5E80       __rmtmp
 04CE:5EB6       __wrt2err
 04CE:5ED2       __cenvarg
 04CE:6230       __doexec
 04CE:65BC       __dos_getdate
 04CE:65D8       __dos_gettime
 04CE:65F4       __aFFalmul
 04CE:65F4       __aFFaulmul
 04CE:6616       __fltout
 04CE:66B0       $i8_output
 04CE:67F6       __fltin
 04CE:69CC       $i8_tpwr10
 04CE:6A0A       __STRINGTOD
 04CE:6A72       __STRINGTOLD
 04CE:6F92       __LD12MULTTENPOWER
 04CE:7067       __LD12MULT
 04CE:71EC       __MANTOLD12
 04CE:72A6       FILEOPEN
 04CE:72C3       FILECLOSE
 04CE:72D7       FILEREAD
 04CE:72F8       FILESEEK
 04CE:731C       __fstrdup
 04CE:7354       _memcmp
 04CE:73B0       __mkdir
 04CE:73B7       __chdir
 04CE:73C6       __rmdir
 04CE:73F0       __dos_getftime
 04CE:740C       __dos_setftime
 04CE:7420       __fstrchr
 04CE:7452       __fstrncmp
 04CE:748E       __fstrcat
 04CE:74E2       __fstrstr
 0C23:0000       __EmDataSeg
 0C23:0010       __fpemulatorbegin
 0C23:003A       __fpmath
 0C23:02DE       __FPEXCEPTION87
 0C23:0873       __fpemulator
 0000:D6D6  Abs  __aDBdoswp
 0C23:2668       __fpemulatorend
 0C23:267A       __FPINSTALL87
 0C23:26A9       __FPTERMINATE87
 0E92:0000       HELPOPEN
 0E92:0105       OPENCORE
 0E92:033F       HELPCLOSE
 0E92:0354       HELPSHRINK
 0E92:035F       CLOSESHRINK
 0E92:0430       HELPNCCMP
 0E92:0606       HELPNC
 0E92:0628       HELPNCCB
 0E92:0655       HELPLOOK
 0E92:0776       HELPDECOMP
 0E92:08E6       HELPNCNEXT
 0E92:08FC       HELPNCPREV
 0E92:0912       HELPNCUNIQ
 0E92:095A       NEXTPREV
 0E92:0B13       HELPSZCONTEXT
 0E92:0C99       LOADPORTION
 0E92:0DD8       SIZEPOS
 0E92:0F54       MAPCONTEXTTOTOPIC
 0E92:0FC1       MAPTOPICTOCONTEXT
 0E92:1065       LOADFDB
 0E92:10A4       PUTFDB
 0E92:10EA       MALOCATE
 0E92:1204       HELPCLINES
 0E92:121A       HELPGETCELLS
 0E92:1394       HLP_LOCATE
 0E92:1424       HELPGETLINE
 0E92:14AC       DECOMP
 0E92:158A       HELPCMPSZ
 0E92:1594       HELPCMP
 0E92:1613       HFSTRLEN
 0E92:162A       HFSTRCPY
 0E92:1647       HFSTRCHR
 0E92:1668       HFMEMZER
 0E92:167D       NCTOFO
 0E92:168C       COMBINENC
 0E92:16A6       TOUPR
 0E92:16B4       KWPTRBUILD
 0E92:16DE       HELPNCRECORD
 0E92:173F       HELPNCBACK
 0E92:179C       HELPGETLINEATTR
 0E92:1866       HELPHLNEXT
 0E92:1A06       HELPXREF
 1038:0006       _arg_concat
 1038:00C4       _arg_token
 1038:015C       _arg_gettoken
 1038:0560       _arg_ungettoken
 1038:0570       _arg_argument
 1038:0578       _arg_getopt
 10A5:0000       _showBList
 10A5:008C       _showBLItem
 10A5:017E       _testBLItem
 10A5:02F6       _turnBListOff
 10A5:0368       _sendBLItem
 10F5:0002       _box
 1116:0002       _findThisButton
 1116:003A       _addButton
 1116:018E       _dropButton
 1116:0268       _blastButtons
 1116:02AA       _setButtonData
 1116:02E4       _adjustButtons
 1116:039E       _showAllButtons
 1116:03D6       _setButtonFocus
 1116:0470       _noDefaultButton
 1116:0498       _testButton
 1116:0748       _testButtonClick
 1116:0850       _disableButton
 1116:08E4       _disableButtonHelp
 1116:0916       _setButtonText
 1116:0966       _setCurrentButton
 1116:09C4       _pushButton
 1116:0A16       _showButton
 1116:0CCC       _saveButtons
 1116:0DB8       _restoreButtons
 11FD:0002       _chkabort
 1203:0000       _setLibColors
 1220:000C       _display_criterr
 1252:0002       _datestr
 1252:00A0       _timestr
 1252:0186       _timedatefmt
 127E:000E       __dmalloc
 127E:004F       __drealloc
 127E:009C       __dfree
 127E:00CE       _GETXMS_VEC
 128E:0002       _errorMessage
 12B7:0008       _set_exename
 12B7:003E       _get_exename
 12B7:0046       _get_exepath
 12C3:000A       _askFileName
 12F4:0004       _showFldEdit
 12F4:0156       _killFldEdit
 12F4:018E       _hideFldText
 12F4:01AE       _showFldText
 12F4:035C       _sendFldEditClick
 12F4:0460       _sendFldEditKey
 12F4:0964       _killBlock
 12F4:0A36       _putBlock
 13A0:0006       OPENFILEONPATH
 13A0:0046       HELPCLOSEFILE
 13A0:0058       READHELPFILE
 13A0:00C6       HELPALLOC
 13A0:0144       HELPLOCK
 13A0:0180       HELPUNLOCK
 13A0:0184       HELPDEALLOC
 13A0:01CA       _freeCallbackHelp
 13C2:0004       _init_input
 13C2:0044       _end_input
 13C2:004A       _get_input
 13C2:0102       _visible_mouse
 13FE:001C       IDATASEG
 13FE:001E       _inst2324
 13FE:0099       _done2324
 13FE:00D2       _enable23
 13FE:00DD       _disable23
 13FE:00E8       INT23
 13FE:0146       INT24
 13FE:0242       _enable29
 13FE:0249       _disable29
 13FE:0250       INT1B
 13FE:026E       INT29
 13FE:0284       _set24_resp
 1427:0000       SET_HOOK9
 1427:0041       CLR_HOOK9
 1427:004F       GET_CODE9
 142D:000E       _intmsg_setup
 142D:00D8       _intmsg_save
 142D:00DA       _intmsg_restore
 142D:00FA       _intmsg_clear
 142D:0154       _intmsg_indent
 142D:0170       _do_intmsg
 1497:0006       _justifyString
 1497:00A6       _keyboard_id
 14AB:0008       _init_keyboard
 14AB:005C       _end_keyboard
 14AB:006A       _get_key
 14AB:0094       _get_extkey
 14AB:025A       _translate_altKey
 14D3:0004       _showLogo
 14D3:052E       _wcenter
 14D3:05BC       _qlogo
 14D3:0816       _set_vmode
 14D3:0886       _paint_text
 14D3:08D4       _wait_retrace
 1562:0002       _showMenu
 1562:012C       _showMenuItem
 1562:0322       _hideMenu
 1562:03B6       _menuClick
 1562:04CE       _menuKey
 1562:057E       _testMenu
 1562:05EE       _askMenu
 1562:0D62       _menuNextActive
 1562:0DA6       _menuPrevActive
 1641:0002       _askMessage
 1641:034C       _findMessage
 167D:000C       _init_mouse
 167D:003C       _show_mouse
 167D:0050       _hide_mouse
 167D:0064       _get_mouse
 167D:00DE       _set_mouse_pos
 167D:0100       _nomem_bailout
 167D:016E       _prerror
 1697:000C       _startHelp
 1697:020A       _endHelp
 1697:0228       _showHelp
 1697:0852       _loadHelp
 1697:0BAA       _showQuickHelp
 1697:0D72       _showDataHelp
 1697:0F34       _loadText
 1697:1092       _showText
 1697:1184       _setHelpArgs
 1697:11AA       _help_argsubs
 1697:139A       _setHotButton
 1697:1636       _specialHelp
 1697:1884       _setHelp
 1697:18D6       _contextHelp
 1697:1B0C       _nextContextHelp
 1697:1B50       _getHelpLine
 1697:1BAA       _freeHelp
 1855:000E       _decrypt_serialno
 1855:0080       _sleep
 1855:00D4       _vWin_get_cursor
 1855:00E0       _vWin_set_cursor
 1855:0102       _vWin_show_cursor
 1855:0120       _vWin_hide_cursor
 1855:013E       _vWin_updateCursor
 1870:000A       _vWin_create
 1870:0200       _vWin_destroy
 1870:024C       _resizeVWin
 1870:02DA       _vWin_setDelay
 1870:0304       _vWin_forceCurrent
 1870:0348       _vWinPut_c
 1870:03E6       _vWinPut_ca
 1870:046C       _vWinPut_sa
 1870:04FC       _vWinPut_sca
 1870:05A2       _vWin_put_c
 1870:063C       _vWin_put_a
 1870:06D6       _vWin_put_s
 1870:076C       _vWin_put_sca
 1870:080A       _vWinGet_s
 1870:0862       _vWin_insertChar
 1870:091E       _vWin_deleteChar
 1870:09CC       _vWin_show
 1870:0B02       _vWin_clearBottom
 1870:0B5C       _vWin_ask
 1870:0E6E       _vWin_key
 1870:0FDC       _vWin_mouse
 1870:109C       _testScroll
 1870:130C       _paintScrollBar
 19BC:000C       _trim
 19BC:00C0       _ntrim
 19BC:00EE       _trnbln
 19D0:0002       _initializeScreenInfo
 19D0:0096       _paintBackgroundScreen
 19D0:0106       _pressAnyKey
 19D0:01B4       _shadowWindow
 19D0:0258       _dumpShadow
 19D0:02EA       _halfShadow
 19D0:04D8       _beep
 1A1E:0004       _get_video_parm
 1A1E:00E2       _set_video_mode
 1A1E:00F0       _hide_cursor
 1A1E:0120       _show_cursor
 1A1E:015C       _get_cursor
 1A1E:016A       _set_cursor
 1A1E:01AA       _fat_cursor
 1A1E:01FC       _thin_cursor
 1A1E:024E       _move_cursor
 1A1E:0278       _push_cursor
 1A1E:02A2       _pop_cursor
 1A4D:0002       VIDEOID
 1A4D:006D       FindPS2
 1A4D:00BD       FindEGA
 1A4D:00F1       FindCGA
 1A4D:0101       FindMono
 1A4D:0143       Find6845
 1A4D:015D       FindActive
 1A4D:0193       FoundDevice
 1A67:0000       _sayWait
 1A67:00EC       _killWait
 1A67:012C       _sayWaitWindow
 1A8B:0006       _wput_c
 1A8B:001D       _WPUT_C_FAST
 1A8B:0022       _WPUT_C_SLOW
 1A8B:0031       _wput_a
 1A8B:0049       _WPUT_A_FAST
 1A8B:004E       _WPUT_A_SLOW
 1A8B:005D       _wput_sc
 1A8B:0075       _WPUT_SC_FAST
 1A8B:007D       _WPUT_SC_SLOW
 1A8B:0091       _wput_sa
 1A8B:00A9       _WPUT_SA_FAST
 1A8B:00B1       _WPUT_SA_SLOW
 1A8B:00C5       _wput_ca
 1A8B:00DD       _WPUT_CA_FAST
 1A8B:00E0       _WPUT_CA_SLOW
 1A8B:00EE       _wput_sca
 1A8B:0106       _WPUT_SCA_FAST
 1A8B:010C       _WPUT_SCA_SLOW
 1A8B:011D       _wput_csa
 1A8B:0135       _WPUT_CSA_FAST
 1A8B:013D       _WPUT_CSA_SLOW
 1A8B:014F       _WPUT_COM
 1A8B:0259       _wget_c
 1A8B:0271       _WGET_C_FAST
 1A8B:0276       _WGET_C_SLOW
 1A8B:0285       _wget_a
 1A8B:029D       _WGET_A_FAST
 1A8B:02A2       _WGET_A_SLOW
 1A8B:02B1       _wget_ca
 1A8B:02C9       _WGET_COM
 1A8B:03D3       _VERT_WAIT
 1A8B:03F5       _set_mode
 1A8B:0459       _reset_mode
 1A8B:0494       _izitega
 1A8B:04C0       _izitpgc
 1A8B:04F4       _izit3270
 1ADC:0008       _win_save
 1ADC:00E4       _win_restore
 1ADC:012A       _win_version
 1ADC:0168       _wordset
 1ADC:0190       _wordcpy
 1ADC:01C2       _wordrcpy
 1AFB:0006       _wrapString
 1AFB:0318       _wrapStrlen
 1B42:00FA       _vWin_edit_ask
 1B42:0DAA       _display_status
 1B42:0E80       _clear
 1B42:0EE6       _lnbc
 1B42:0F14       _LoadScreen
 1B42:102C       _vWinPut_s
 1B42:10B2       _vWinPut_a
 1B42:110C       _SaveLine
 1B42:125C       _vNew_mouse
 1B42:133C       _NewScroll
 1B42:15BE       _tWin_show
 1B42:17E4       _zWin_show
 1B42:19BC       _locate_cursor
 1B42:1A1C       _locate_display
 1B42:1A6C       _vNew_key
 1B42:1B1E       _tWinPut_c
 1B42:1BBC       _fixup_corner
 1B42:1BF6       _cursor4b
 1D41:000C       _fileEdit
 1D41:0462       _getLineLength
 1D41:0486       _vWinTitle
 1D41:05FC       _fileLoad
 1D41:0736       _fileSave
 1D41:07D2       _fileOpen
 1D41:0A68       _CreateEditWindow
 1D41:0A8A       _salloc
 1D41:0AFA       _checkFileName
 1D41:0BCC       _tablen
 1D41:0C02       _ttWinPut_c
 1E0A:000A       _doPrint
 1E0A:0870       _showPrintText
 1E0A:092E       _print_argsubs
 1EB7:000A       _adf_setup
 1EB7:0134       _adf_read
 1F41:0000       BIOS_ID
 1F41:00D6       GET_SYSID
 1F50:000C       _Config_Summary
 1F50:04D8       _Config_CONFIG_SYS
 1F50:0550       _Config_AUTOEXEC_BAT
 1F50:05C8       _Config_386MAX_PRO
 1F50:061E       _Config_ExtraDOS_PRO
 1F50:0674       _Config_SYSINI
 1F50:0AF6       _Config_Qualitas
 1F50:0DDA       _Config_Windows
 1F50:0EAA       _Config_Snapshot
 2064:000A       _cpu_textof
 2064:00A2       _fpu_textof
 2072:000E       _engine_control
 20D2:0004       _glist_init
 20D2:004C       _glist_alloc
 20D2:00B6       _glist_tail
 20D2:00FA       _glist_new
 20D2:02FA       _glist_insert
 20D2:04B8       _glist_delete
 20D2:062A       _glist_purge
 20D2:06AC       _glist_sort
 20D2:06E0       _glist_array
 20D2:07A4       _glist_linked
 20D2:0820       _glist_next
 20D2:0862       _glist_prev
 20D2:089A       _glist_lookup
 2163:0004       _Hardware_Summary
 2163:0EE8       _Hardware_Video
 2163:1118       _Hardware_Drives
 2163:12EA       _Hardware_Ports
 2163:1400       _Hardware_BIOS_Detail
 2163:194E       _Hardware_CMOS_Detail
 2163:1D6A       _bios_item
 2163:1E6E       _vga_memsize
 2163:1EB2       _disp_pnp_small
 2163:214C       _memory_bits
 2163:21CE       _disp_pnp_large
 2163:22E8       _decode_eisa
 2163:235E       _disp_pnp
 23E7:0008       _info_setbuf
 23E7:0034       _info_init
 23E7:00C8       _info_finish
 23E7:0114       _info_purge
 23E7:012A       _info_seek
 23E7:01A4       _info_fetch
 23E7:0248       _iprintf
 23E7:027A       _iputs
 23E7:0352       _info_length
 23E7:038E       _info_width
 23E7:03CA       _info_color
 23E7:0414       _info_format
 23E7:045E       _iwraptext
 23E7:04A2       _ictrtext
 2436:0000       _make_umap
 2436:0724       _map_lowmem
 2436:090C       _map_highmem
 2436:0AEC       _map_video
 2436:0C8C       _map_roms
 2436:0DC0       _map_flexroms
 2436:0EF2       _find_holes
 2436:118E       _map_holes
 2436:131A       _map_extra
 2436:144A       _map_dd
 2436:17A4       _map_dosdata
 2436:1964       _map_ints
 2436:1A3E       _map_zeroes
 2436:1A9C       _map_shortitems
 2436:1C56       _umcmp
 2436:1CF2       _fix_overlap
 2436:1E62       _item_overlap
 2436:2018       _bits_on
 263F:0002       _Memory_Summary
 263F:0AB2       _Memory_Low_DOS
 263F:0C32       _Memory_High_DOS
 263F:0D1C       _Memory_ROM_Scan
 263F:0F56       _Memory_Interrupts
 263F:127A       _Memory_Extended
 263F:13C2       _Memory_Expanded
 263F:16E4       _Memory_EMS_Usage
 263F:1B9E       _Memory_XMS
 263F:1E26       _Memory_Timing
 263F:2010       _simple_summ
 263F:2062       _program_summ
 263F:21A4       _use_summ
 263F:22DA       _comma_num
 2873:0004       MULTIME
 2873:0101       SETUP_TIMER
 2873:0115       GET_TIMER
 2885:0002       _read_profile
 2917:000E       _qtas_init
 2982:000A       QTAS_MAC
 2982:0084       IZITLSEG
 2982:00A5       DO_MAC
 2982:034C       SAVE_NAME
 2982:036D       SAVE_CHARDEV
 2982:03A7       SAVE_BLKDEV
 2982:03F0       DISP_TEXT
 29C5:0004       _sysinfo_read
 29C5:0A42       _sysinfo_look
 2CCF:0002       _sysbuf_alloc
 2CCF:004C       _sysbuf_realloc
 2CCF:00D0       _sysbuf_free
 2CCF:0108       _sysbuf_avail
 2CCF:0130       _sysbuf_store
 2CCF:01BA       _sysbuf_append
 2CCF:0278       _sysbuf_ptr
 2CCF:0292       _sysbuf_glist
 2CFE:0006       _sysinfo_preinit
 2CFE:00A4       _sysinfo_refresh
 2CFE:00C4       _sysinfo_init
 2CFE:09F2       _sysinfo_purge
 2CFE:0AD2       _get_curtime
 2CFE:0B5A       _get_bootdrv
 2CFE:0C1E       _get_cmos
 2CFE:0C54       _get_bios_mfr
 2CFE:0EC8       _mfr_test
 2CFE:0F2A       _get_basemem
 2CFE:0F72       _get_extfree
 2CFE:0FA6       _get_ems
 2CFE:10F0       _get_xms
 2CFE:1144       _alloc_ems_xms
 2CFE:125A       _alloc_xms
 2CFE:12BE       _free_xms
 2CFE:12F4       _alloc_ems
 2CFE:1362       _free_ems
 2CFE:1398       _get_dpmi
 2CFE:13D6       _get_video_info
 2CFE:1834       _fixup_video
 2CFE:188C       _aox_check
 2CFE:18C2       _lcl_get_mouse
 2CFE:1952       _get_drives
 2CFE:1A58       _get_parttable
 2CFE:1AE8       _get_driveparm
 2CFE:1D78       _get_listlist
 2CFE:1DBA       _get_dosnames
 2CFE:1F00       _get_dosaddrs
 2CFE:20C6       _get_ddlist
 2CFE:21CC       _gcp_callback
 2CFE:2338       _get_config_parms
 2CFE:257E       _get_windows_data
 2CFE:275A       _get_roms
 2CFE:27D0       _find_video_rom
 2CFE:297A       _find_disk_rom
 2CFE:2B24       _rom_find
 2CFE:2BF2       _get_envstrs
 2CFE:2DFA       _get_timelist
 2CFE:3026       _get_open_files
 2CFE:3270       _get_dosdata
 2CFE:3786       _find_3x_stacks
 2CFE:396C       _get_4xdata
 2CFE:3B54       _count_4x_fcbs
 2CFE:3BD6       _get_adf
 2CFE:3C4A       _get_cpuclock
 2CFE:3E90       _get_profile
 2CFE:3FE4       _get_disk_file
 2CFE:4162       _add_filename
 2CFE:427A       _fixtabs
 2CFE:42EE       _dosdatcmp
 2CFE:4340       _get_file_stats
 2CFE:4436       _read_maxbst
 2CFE:4548       _get_qualitas_data
 2CFE:46B4       _GetPnPData
 2CFE:4A06       _get_cdrom
 31A3:0004       TESTMEM_SUB
 31A3:009E       TESTMEM
 31A3:0102       TIME_MEM
 31A3:0161       TIMER_SETUP
 31A3:0183       TIMER_RESTORE
 31A3:01A5       TIMER_READ
 31C0:007E       _sysinfo_write
 3380:0000       XMSPARM
 3380:0105       UMBALLOC
 3380:011E       UMBTAVAIL
 3380:0189       UMBFREE
 3380:0199       EMBALLOC
 3380:01B2       EMBFREE
 3380:01C2       SETA20
 339E:0002       GET_FLEXROMS
 339E:00DC       MAX_PRESENT
 33B3:000A       IS_EISA
 33B3:0027       CHECK_AMI
 33B3:003F       IS_PCI
 33B3:00B2       IZIT_PnP
 33B3:0122       IS_PNP
 33B3:012B       PNP_VM
 33B3:0162       PNP_BIOS_STR
 33CA:0000       GETFILEVERSIONINFOSIZE
 33CA:008D       GETFILEVERSIONINFO
 33CA:00BF       VERQUERYVALUE
 33ED:0000       GETFILERESOURCESIZE
 33ED:0083       GETFILERESOURCE
 3428:0008       LSTRLEN
 3428:0026       LSTRCMPI
 3428:0070       REPEATMOVE
 3428:014B       GETENVVAR
 3428:01C2       FINDFILEONPATHS
 3428:03D7       FILEINUSE
 3428:041E       MAKEFILENAME
 3428:0546       GETWINDOWSDIR
 3428:05AB       GETSYSTEMDIR
 3428:06DD       VERFINDFILE
 3428:098F       VERLANGUAGENAME
 34C8:000A       _bcd_num
 34C8:004C       _CALC_SUM
 34C8:0080       _CALC_CRC
 34C8:00BF       _Get_BIOSCRC
 34DF:0002       CHECK_CHIPSET
 34DF:00A3       READ_CHIPSET
 34EA:0006       IZIT_CPUID
 34EA:002F       CHECK_CPU
 34EA:02C9       CHECK_CPUSX
 3519:0008       _Oldint8
 3519:000C       _Oldint13
 3519:0010       _Oldboot13
 3519:0014       _Oldint23
 3519:0018       _Oldint24
 3519:001C       _Int13hit
 3519:001E       _Result
 3519:0020       _dcache_cnt
 3519:0022       _dcache_spincnt
 3519:0023       _last_i13_drv
 3519:0024       _GET_CVID
 3519:0039       _SET_CVID
 3519:0057       _our_int13
 3519:006D       _our_boot13
 3519:0077       _our_int8
 3519:00E1       _our_int23
 3519:00E2       _our_int24
 3519:00E5       _READ_BUFF
 3519:0119       _save_dcvid
 3519:0128       _rest_dcvid
 3519:0137       _start_twirly
 3519:0175       _end_twirly
 3519:01A6       _dcache_active
 3519:038C       _DCA_CLEANUP
 3558:000C       EMSPARM
 3558:00D5       EMSHAND
 3558:00ED       EMSMAP
 3558:0107       EMSHSIZE
 3558:0121       EMSALLOC
 3558:0139       EMSFREE
 3558:0150       _GP_PrevInt08
 3558:0154       _GP_CountDown
 3558:0156       _GP_Int08
 3558:016A       _GameCount_sub
 3558:01CA       _GameCount
 3575:000E       _launder_string
 3578:000C       __farfopen
 3578:003A       __dstrdup
 3578:007E       _fnDOS
 3578:00E4       _fnShell
 3578:0504       _fnMenuItem
 3578:071E       _find_sect
 3578:0772       _find_ownsect
 3578:079C       _is_menusect
 3578:07FC       _order_menus
 3578:0900       _create_line
 3578:094C       _dup_line
 3578:09C8       _find_first
 3578:0A2A       _check_reloc
 3578:0AC8       _config_free
 3578:0B52       _read_config
 3578:0DF2       _menu_parse
 3578:10B0       _check_include
 3578:1378       _check_common
 3578:160E       _config_parse
 3578:186E       _set_current
 3704:0002       MCA_POS
 3704:0032       READID
 3704:00AA       _pos_test
 3714:0002       _qmaxpres
 3714:009A       _qmovpres
 372E:0004       _MARK_XT
 372E:0020       _CHECK_MODEL
 372E:007D       _OUTCMOS
 372E:008C       _CLR_PARITY
 372E:00A1       _ENABLE_NMI
 372E:00B6       _DISABLE_NMI
 372E:00C8       _FLUSH_CACHE
 372E:00EA       _CHECK_RAM
 372E:0146       _MAXPRES
 372E:01AE       _Get_BIOS_Start
 372E:01C7       _EMM2_VXD_Call
 372E:021F       _Get_CMOS_POS
 3755:0002       _adf_dir
 3755:00A0       _check_adf_files
 3755:00E2       _save_adf_files
 37B7:0000       _SVGA_ISVGA
 37B7:0023       _SVGA_ACTIVEROM
 37B7:003F       _SVGA_VENDOR
 37B7:04D5       _SVGA_VENDORID
 37B7:0500       _ATI_CHECKMODE
 37B7:0518       _SVGA_MODEL
 37B7:05F3       _PARADISE_EXIT
 37B7:068A       _SVGA_MODELID
 37B7:06E9       _SVGA_MEMSIZE
 37B7:0719       _SAVE_SVGA
 37B7:07D4       _REST_SVGA
 37B7:0898       _TRIDENT_MEMSIZE
 37B7:091F       _CHIPS_MEMSIZE
 37B7:0952       _GENOA_MEMSIZE
 37B7:0957       _PARADISE_MEMSIZE
 37B7:09BC       _TSENG_MEMSIZE
 37B7:09BE       _MODECHG_MEMSIZE
 37B7:09F8       _VIDEO7_MEMSIZE
 37B7:0A11       _AHEAD_MEMSIZE
 37B7:0A15       _S3_MEMSIZE
 37B7:0A19       _SRCHSTR
 385C:0002       _Is_VM
 385C:001A       _Is_MCA
 385C:005F       _Is_IBM
 385C:008E       _Is_BCF
 3869:0006       _orcopy
 3869:0202       _copy
 388A:000C       _sstor_ioctl
 388A:004E       _sstor_drive
 388A:00AC       _sstor_mapping
 388A:00F4       _stacked_drive
 388A:015E       _swap_logic
 388A:01F6       _check_swap
 38C4:000E       _truename_fn
 38C4:0038       _truename
 38C4:0070       _truename_cmp
 38C4:00CE       _truedir
 38D8:0002       PM_IRETD0
 38D8:0006       PM_IRETD1
 38D8:000A       PM_IRETD2
 38D8:000E       PM_IRETD3
 38D8:0012       PM_IRETD4
 38D8:0016       PM_IRETD5
 38D8:001A       PM_IRETD6
 38D8:001E       PM_IRETD7
 38D8:0022       PM_IRETD8
 38D8:0026       PM_IRETD9
 38D8:002A       PM_IRETD10
 38D8:002E       PM_IRETD11
 38D8:0032       PM_IRETD12
 38D8:0036       PM_IRETD13
 38D8:003A       PM_IRETD14
 38D8:003E       PM_IRETD15
 38D8:0042       PM_IRETD16
 38D8:0046       PM_IRETD17
 38D8:004A       PM_IRETD18
 38D8:004E       PM_IRETD19
 38D8:0052       PM_IRETD20
 38D8:0056       PM_IRETD21
 38D8:005A       PM_IRETD22
 38D8:005E       PM_IRETD23
 38D8:0062       PM_IRETD24
 38D8:0066       PM_IRETD25
 38D8:006A       PM_IRETD26
 38D8:006E       PM_IRETD27
 38D8:0072       PM_IRETD28
 38D8:0076       PM_IRETD29
 38D8:007A       PM_IRETD30
 38D8:007E       PM_IRETD31
 38D8:0082       LCLINT67
 38D8:0083       _GETBCRC
 38D8:01F5       GETBCRC_PMON
 38D8:02F9       GETBCRC_PMOFF
 38D8:0315       LIN2SEG
 38D8:0321       SEG2LIN
 38D8:0333       SETUP_GDT
 38D8:03AC       SETUP_TSS
 38D8:03C8       SETUP_EPM
 38D8:04A6       SET_GDT
 38D8:04FA       SETUP_PMI
 392F:000E       _stacker_present
 3935:0000       _HelpNames
 42F9:0169       __fptaskdata
 4310:0000       FIND_CONFIG
 4310:003D       COPY_ACTIVE
 4310:005C       WALK_MAC
 4310:0083       MbootActive
 4310:0117       CURRENTMBOOT
 4310:015B       CONFIGSIG
 4310:0162       ACTIVECONFIG
 4310:01E3       ConfigPtr
 4562:0042       __anullsize
 4562:0044       _GrabFile
 4562:0092       _ReadFile
 4562:00E0       _WriteFile
 4562:012E       _TextFile
 4562:017C       _HelpInfo
 4562:0908       _tutorWorkSpace
 4562:090C       _AsqButtons
 4562:09BC       _SnapMenu
 4562:0B52       _MemoryMenu
 4562:0E2C       _ConfigMenu
 4562:10D0       _HardMenu
 4562:1266       _LearnMenu
 4562:1540       _AsqHelpMenu
 4562:1742       _AsqTopMenu
 4562:18A2       _AsqNameWin
 4562:18AE       _WhichLogo
 4562:18B2       _DefaultGrabFile
 4562:1A76       _DataInfo
 4562:1B12       _Error
 4562:1B1A       _Message
 4562:1B24       _Printing
 4562:1B5E       _PRINTTYPETEXT
 4562:1B72       _PrintPageTitle
 4562:1B80       _PrintPage
 4562:1B8A       _FilePrompt
 4562:1B92       _Arrows
 4562:1B9A       _Enter
 4562:1BA0       _PrintingButtons
 4562:1BCC       _DefaultSnapShot
 4562:1BDA       _SaveTitle
 4562:1BEA       _SnapSearchSpec
 4562:1BF0       _SnapInParens
 4562:1BFC       _SnapDir
 4562:1C1E       _SnapDesc
 4562:1C38       _SnapButtons
 4562:1CE8       _SnapLoadButton
 4562:1D14       _SnapFileMenuInfo
 4562:1D30       _SnapMenuItems
 4562:1DD2       _NoneText
 4562:1DD8       _SnapDescColon
 4562:1E10       _UtilDataError
 4562:1E2C       _AsqDataError
 4562:1EF0       _AdfSpecText
 4562:1EF4       _EvalFmt
 4562:2118       _EvalText
 4562:21E0       _Loading
 4562:21F4       _Hardware
 4562:21FE       _WriteSnap
 4562:222E       _SnapMallocErr
 4562:2246       _SnapSysinfoErr
 4562:2260       _SnapWriteErr
 4562:227C       _SnapWriting
 4562:22AA       _SnapADFQuery
 4562:22BE       _SnapADFDefault
 4562:22C2       _AutoexecName
 4562:2312       _ConfigName
 4562:2326       _MAXName
 4562:2376       _ExtraDOSName
 4562:23C6       _SYSININame
 4562:2416       _fromQshell
 4562:2418       _bootDrive
 4562:241C       _snapDescText
 4562:2420       _doCmdThenExit
 4562:249A       _TheseNums
 4562:261A       _currentTitle
 4562:264E       _ASQVER_MAJOR
 4562:264F       _ASQVER_MINOR
 4562:2650       _AsqName
 4562:2696       _MsgLogoText
 4562:26AE       _HelpString
 4562:2C1C       __atopsp
 4562:2C1E       __aexit_rtn
 4562:2C20       __asizds
 4562:2C22       __nheap_desc
 4562:2C36       __aseghi
 4562:2C38       __aseglo
 4562:2C3A       __fDosExt
 4562:2C3C       __acfinfo
 4562:2C4A       __aintdiv
 4562:2C4E       __fac
 4562:2C58       _errno
 4562:2C5A       __umaskval
 4562:2C5C       __pspadr
 4562:2C5E       __psp
 4562:2C60       __osminor
 4562:2C60       __osver
 4562:2C61       __osmajor
 4562:2C62       __osversion
 4562:2C64       __osmode
 4562:2C65       __cpumode
 4562:2C66       __oserr
 4562:2C66       __doserrno
 4562:2C68       __nfile
 4562:2C6A       __osfile
 4562:2C7E       ___argc
 4562:2C80       ___argv
 4562:2C84       __environ
 4562:2C88       __pgmptr
 4562:2C8D       __child
 4562:2C8F       __ovlflag
 4562:2C90       __intno
 4562:2C91       __ovlvec
 4562:2C95       __exitflag
 4562:2C96       __adbgmsg
 4562:2C9A       __aaltstkovr
 4562:2C9E       _STKHQQ
 4562:2CBC       __cflush
 4562:2CBE       __iob
 4562:2DAE       __iob2
 4562:2E9E       __lastiob
 4562:2F10       __fmode
 4562:2F10       __iomode
 4562:2F12       __commode
 4562:2F14       __lseekchk
 4562:2F16       __pnhFarHeap
 4562:2F1A       __fheap
 4562:2F28       __amblksiz
 4562:2F2A       __cfltcvt_tab
 4562:2F46       __sigintseg
 4562:2F48       __sigintoff
 4562:2F4A       __asizeC
 4562:2F4B       __asizeD
 4562:2F4C       __ctype
 4562:2F4C       __ctype_
 4562:304E       __lpdays
 4562:3068       __days
 4562:3086       __timezone
 4562:308A       __daylight
 4562:3094       __tzname
 4562:309C       _tbmhFdb
 4562:3166       _szNil
 4562:3168       _cBack
 4562:316A       _optind
 4562:316C       _optfile
 4562:3170       _lastopt
 4562:3174       _ungetptr
 4562:31A2       _singleBoxChars
 4562:31A8       _doubleBoxChars
 4562:31B0       _savedCount
 4562:31B2       _buttonCount
 4562:31B4       _buttonDefault
 4562:31B6       _buttonCurrent
 4562:31B8       _buttonHasFocus
 4562:3206       _ExeName
 4562:327A       _cutSize
 4562:32CC       DEVHDR_VEC
 4562:32D0       DEVDRVNO
 4562:33C8       DRVMSG
 4562:33CE       INT24_MSGS
 4562:33E8       CALLER_STACK
 4562:33EC       ARIMSG
 4562:341C       INT24_RESP
 4562:350E       _ScreenSize
 4562:3512       _ScreenSet
 4562:3674       _HelpTitles
 4562:3818       _HelpArgCnt
 4562:381A       _HelpTopicCnt
 4562:389A       _LogoAddress
 4562:38C2       _HelpFileName
 4562:38D2       _HelpContents
 4562:38DE       _HelpIndex
 4562:38E6       _MainButtons
 4562:396A       _BottomTitle
 4562:3986       _PrintTitle
 4562:398E       _PrintFileName
 4562:3998       _PrintOutput
 4562:39A8       _PrintWhat
 4562:39B6       _PrintButtons
 4562:3A66       _HelpCurrentDoc
 4562:3A78       _HelpForBrowser
 4562:3A90       _HelpForAll
 4562:3AA4       _P_Browser
 4562:3AF4       _HelpForEditor
 4562:3B0C       _P_Editor
 4562:3B5C       _P_OEditor
 4562:3B98       _CurrentGlossDisplay
 4562:3BB0       _AllGlossDisplay
 4562:3BC8       _P_Gloss
 4562:3C04       _HelpForTopic
 4562:3C1C       _P_Help
 4562:3C58       _CurrentDisplay
 4562:3C6E       _AllDisplay
 4562:3C84       _P_Menu
 4562:3CE8       _CurrentTutorDisplay
 4562:3D00       _AllTutorDisplay
 4562:3D18       _P_Tutor
 4562:3D54       _ToPrinter
 4562:3D60       _ToDisk
 4562:3D6E       _AppendToFile
 4562:3D84       _WherePrintList
 4562:3DD4       _PrintOptions
 4562:3DF4       _MessageButtons
 4562:3E20       _YesNoButtons
 4562:3E78       _YesNoEscButtons
 4562:3EFC       _ArfButtons
 4562:3F80       _UpdateButtons
 4562:4084       _TypeMessage
 4562:46C0       _msgs
 4562:4998       _PressAnyKeyData
 4562:49E8       _HelpButtons
 4562:4B1C       _QuickReference
 4562:4B2C       _FileNameButtons
 4562:4BDC       _ButtonStart
 4562:4BDE       _ButtonStop
 4562:4BE0       _MenuEsc
 4562:4BEA       _DoneEsc
 4562:4C8E       _IntMsgStrList
 4562:4CE6       _Saving
 4562:4CF0       _DataButtons
 4562:4D48       _HelpBottomTitle
 4562:4D62       _LicensedTo
 4562:4D70       _CompanyName
 4562:4D7E       _LicColon
 4562:4D8A       _AltLogoCorners
 4562:4DB6       _AltLogoText
 4562:4DC6       _MsgFileErr
 4562:4E16       _MsgFDMallocErr
 4562:4E66       _MsgChgsMade
 4562:4EB6       _MsgAddLine
 4562:4F06       _MsgDelLine
 4562:4F56       _MsgSameLine
 4562:4FAC       _AmPm
 4562:4FD0       _Daysofwk
 4562:5042       _Monthsofyr
 4562:5082       _ValPathTerms
 4562:5086       _SnapshotOnly
 4562:5092       _CfgKeywordSeps
 4562:509E       _ProKeywordSeps
 4562:50A2       _QComments
 4562:50F2       _TimeoutInput
 4562:50F4       _TimeoutDelay
 4562:50F8       _TimeoutKey
 4562:50FA       _BLANKSTRING
 4562:50FC       _compBuffer
 4562:5100       _decompBuffer
 4562:5104       _keepIt
 4562:5106       _thisContext
 4562:510A       _prevStop
 4562:510E       _nextStop
 4562:5112       _lastHelpTopic
 4562:5116       _backCount
 4562:5118       _lastBackContext
 4562:511C       _lastHelpType
 4562:511E       _Pattern
 4562:52D8       _HRCNT
 4562:52DA       _VRCNT_A
 4562:52DC       _VRCNT_B
 4562:52DE       _VRCNT_C
 4562:52E0       _VRCNT_D
 4562:52E2       _VRCNT_E
 4562:52E4       _REGH_SIZ
 4562:52E6       _NSCR_COLS
 4562:52E8       _NSCR_ROWS
 4562:52EA       _DISP_PAGE
 4562:52EB       _CRT_MODE
 4562:52EC       _GRF_MODE
 4562:5344       _altPageOK
 4562:5346       _EditButtons
 4562:539E       _TabStop
 4562:53A0       _EditorLine
 4562:53A4       _MsgFileCol
 4562:53AC       _CB_option_editor
 4562:53B0       _CB_option_replace
 4562:53B4       _CB_option_insert
 4562:53B8       _highlight_areaCB
 4562:53BC       _save_changesCB
 4562:53C0       _cursor3CB
 4562:53C4       _cursor4CB
 4562:53C8       _cursor5CB
 4562:53CC       _askFileNameCB
 4562:53D0       _get_pathCB
 4562:53D4       _SpecialSearchStr
 4562:5560       _CfgFmt1a
 4562:5578       _CfgFmt1b
 4562:5586       _CfgFmt1c
 4562:5598       _CfgFmt1d
 4562:55A6       _CfgFmt1e
 4562:55B4       _CfgFmt1f
 4562:55C0       _CfgFmt2
 4562:55CA       _CfgFmt3a
 4562:55DC       _CfgFmt3b
 4562:55EA       _CfgFmt4a
 4562:55F8       _CfgFmt4b
 4562:5604       _CfgFmt4c
 4562:5610       _CfgFmt5a
 4562:561E       _CfgFmt7a
 4562:5630       _CfgFmt7b
 4562:564A       _CfgFmt7c
 4562:5674       _CfgFmt7d
 4562:5696       _CfgFmt7dl
 4562:61CE       _HdwFmt1a
 4562:61DE       _HdwFmt1b
 4562:61EE       _HdwFmt1c
 4562:61FC       _HdwFmt1d
 4562:620E       _HdwFmt1e
 4562:621E       _HdwFmt1f
 4562:622E       _HdwFmt1g
 4562:6240       _HdwFmt1v
 4562:6252       _HdwFmt2a
 4562:6264       _HdwFmt2b
 4562:6278       _HdwFmt2c
 4562:6290       _HdwFmt2d
 4562:629A       _HdwFmt2pa
 4562:62A2       _HdwFmt2pb
 4562:62AE       _HdwFmt2pc
 4562:62BC       _HdwFmt3a
 4562:62D0       _HdwFmt3b
 4562:62FE       _HdwFmt4
 4562:630E       _HdwFmt5
 4562:6324       _HdwFmt6
 4562:6344       _HdwFmt7
 4562:6350       _HdwFmt8
 4562:6374       _HdwFmt9
 4562:70A4       _InfoScratchBuf
 4562:70A8       _InfoScratchSize
 4562:7612       _IntTitles
 4562:787E       _AltTitles
 4562:789A       _MemFmt1
 4562:78B2       _MemFmt2
 4562:78CA       _MemFmt3
 4562:7904       _MemFmt4
 4562:7916       _MemFmt5a
 4562:7920       _MemFmt5b
 4562:7940       _MemFmt6
 4562:7952       _MemFmt7
 4562:7970       _MemFmt8
 4562:7982       _MemFmt9a
 4562:7996       _MemFmt9b
 4562:79A6       _MemFmt9c
 4562:79B4       _MemFmt9d
 4562:79CA       _MemFmt10
 4562:79DE       _MemFmt11
 4562:79EC       _MemFmt12a
 4562:79FE       _MemFmt12b
 4562:7A1A       _MemFmt12c
 4562:7A2E       _MemFmt13a
 4562:7A40       _MemFmt13b
 4562:7A4E       _MemFmt13c
 4562:7A5C       _MemFmt13d
 4562:7A76       _MemFmt14
 4562:7A96       _MemFmt14b
 4562:8158       _ProfileOpts
 4562:8220       LCLITEM
 4562:86DA       _MfrList1
 4562:8B00       _MfrList2
 4562:8CA0       _SysInfo
 4562:8CA4       _SysInfoBuf
 4562:8CA8       _NoTestMem
 4562:8CAA       _NoTestEMS
 4562:8CAC       _NoTestDiskCache
 4562:8CAE       _NoTestVGA
 4562:8CB0       _GraphicsLogo
 4562:8CB2       _SnowControl
 4562:8CB4       _BootOverride
 4562:8CB6       _NoTestGamePort
 4562:8CBA       _DisketteParms
 4562:8DAC       _MaxFspecs
 4562:8E4E       _WindowsFspecs
 4562:9160       SCANDONE
 4562:9161       TESTMEM_MAP
 4562:91C1       TESTMEM_LASTSEG
 4562:91C3       TESTMEM_LASTRES
 4562:94AE       _RwKeyword
 4562:9C64       DEVNAME_MAX
 4562:9C6D       DEV_HNDL
 4562:9C6F       PORT67
 4562:9C72       INFO_CTL
 4562:9C73       INFO
 4562:9CDA       MOVPCI
 4562:9CE0       AMIBIOS
 4562:9CED       PnP_SEG
 4562:9CEF       PnP_NodeSize
 4562:9CF1       PnP_NumNodes
 4562:9CF3       PnP_Node
 4562:9CF5       PnP_CTL
 4562:9CF7       PnP_PRODID
 4562:9CFB       PnP_PRODNO
 4562:9CFF       PnP_Message
 4562:9D01       PnP_MinESCDSize
 4562:9D03       PnP_ESCDSize
 4562:9D05       PnP_NVStorageBase
 4562:9D09       PnP_APMSize
 4562:9D0B       OffPnP_RMVEC
 4562:9D0F       OffPnP_PMCS
 4562:9D13       OffPnP_PMOFF
 4562:9D18       __chbuf
 4562:9D64       __tmpoff
 4562:9D66       __tempoff
 4562:9D68       __old_pfxlen
 4562:9D7C       __citime
 4562:9DCC       __p_overlay
 4562:9DFE       __fileinfo
 4562:A1BE       _FIXBUF
 4562:A1CE       _XORLIST
 4562:A3CE       CPU_TYPE
 4562:A3D0       VIR_FLAG
 4562:A3D2       FPU_TYPE
 4562:A3D4       FPU_BUG
 4562:A3D6       WEI_FLAG
 4562:A3D8       VCPI_VER
 4562:A3DA       WIN_VER
 4562:A3DC       CPUID_FEAT
 4562:A3E0       CPUID_ID
 4562:A3E4       CPUID_VID
 4562:A3F0       CPUID_SUP
 4562:A410       _Fhandle
 4562:A412       _Memhandle
 4562:A414       _dcache_dly
 4562:A416       _dcache_spin
 4562:A41A       _dcache_spinptr
 4562:A41C       _Orig_page
 4562:A41D       _Orig_chr
 4562:A41E       _Orig_csr
 4562:A420       _Save_csr
 4562:A422       _Save_page
 4562:A423       _Twirly_active
 4562:A424       _InWindows
 4562:A425       _Twirly_page
 4562:A426       _Twirly_csr
 4562:A432       _SectCount
 4562:A43C       _DefSect
 4562:A44A       _FirstSect
 4562:A4A0       _StartupBat
 4562:A4B2       _ConfigSys
 4562:A4B6       _ActiveOwner
 4562:A4B7       _CommonOwner
 4562:A4B8       _Parsed4DOS
 4562:A4BA       _Cfg
 4562:A598       _Keywords
 4562:A66E       MCAID
 4562:A6B6       POSBASE
 4562:A6CA       _INFO_CTL
 4562:A6CB       _MAXINFO
 4562:A6D1       _MAXINFOVER
 4562:A6EF       _PORT67
 4562:A6FD       _LCL_FLAG
 4562:A705       _POVR_MAC
 4562:A719       _MAXROM
 4562:A745       _PaSYSROM
 4562:A747       _CMPROM
 4562:A749       _MAXVER
 4562:A74C       _NMIPORT
 4562:A74E       _NMIENA
 4562:A74F       _NMIDIS
 4562:A750       _NMIMASK
 4562:A751       _LCLMEM
 4562:A951       _MAXdNAME
 4562:A95A       _WINVXD_VEC
 4562:A9F4       _ID_TAB
 4562:AA6C       _MODEL_JMP
 4562:AA8A       _VGASAVEP
 4562:AA8C       _VGASAVED
 4562:AA8D       _VGAROWS
 4562:AA8E       _VGACURSHAPE
 4562:AA90       _VGACURPOS
 4562:AA92       _NORESTORE
 4562:AA93       _PREVMODE
 4562:AA94       _PREVPAGE
 4562:AA95       _VESA_MODECNT
 4562:AA97       _UNK_ID
 4562:AAA1       _ATI_ID
 4562:AAA5       _ATI_SIG
 4562:AAAE       _TRIDENT_ID
 4562:AAB6       _TRIDENT_SIG
 4562:AACA       _VIDEO7_ID
 4562:AAD2       _PARADISE_ID
 4562:AADE       _PARADISE_SIG
 4562:AAE2       _TSENG_ID
 4562:AAED       _CHIPS_ID
 4562:AB02       _GENOA_ID
 4562:AB08       _GENOA_SIG
 4562:AB09       _GENOA_MODBYTE
 4562:AB0C       _VESA_ID
 4562:AB11       _AHEAD_ID
 4562:AB17       _AHEAD_SIG
 4562:AB1C       _ORCHID_ID
 4562:AB2E       _CIRRUS_ID
 4562:AB35       _S3_ID
 4562:AB3E       _DIAMOND_ID
 4562:AB46       _DIAMOND_SIG
 4562:AB50       _STB_ID
 4562:AB54       _STB_ETID
 4562:AB5A       _STB_S3ID
 4562:AB5E       _MID_TAB
 4562:AB5E       _ATI_MID_TAB
 4562:AB62       _TRIDENT_MID_TAB
 4562:AB66       _VIDEO7_MID_TAB
 4562:AB6E       _PARADISE_MID_TAB
 4562:AB76       _TSENG_MID_TAB
 4562:AB7A       _CHIPS_MID_TAB
 4562:AB84       _GENOA_MID_TAB
 4562:AB88       _VESA_MID_TAB
 4562:AB88       _AHEAD_MID_TAB
 4562:AB8C       _ORCHID_MID_TAB
 4562:AB8C       _S3_MID_TAB
 4562:AB8E       _DIAMOND_MID_TAB
 4562:AB90       _STB_MID_TAB
 4562:AB90       _ATI_18800_ID
 4562:AB96       _ATI_28800_ID
 4562:AB9C       _ATI_EXT
 4562:AB9E       _TRIDENT_8800_ID
 4562:ABA3       _TRIDENT_8900_ID
 4562:ABA8       _VIDEO7_VEGA_ID
 4562:ABB1       _VIDEO7_FASTWRITE_ID
 4562:ABC1       _VIDEO7_V7VGAV5_ID
 4562:ABCD       _VIDEO7_1024i_ID
 4562:ABD3       _PARADISE_PVGA1a_ID
 4562:ABDB       _PARADISE_WD90C00_ID
 4562:ABE4       _PARADISE_WD90C10_ID
 4562:ABED       _PARADISE_WD90C11_ID
 4562:ABF6       _TSENG_ET3000_ID
 4562:ABFE       _TSENG_ET4000_ID
 4562:AC06       _CHIPS_82C451_ID
 4562:AC14       _CHIPS_82C452_ID
 4562:AC22       _CHIPS_82C453_ID
 4562:AC30       _CHIPS_82C455_ID
 4562:AC3E       _CHIPS_82C456_ID
 4562:AC4C       _GENOA_5000_ID
 4562:AC51       _GENOA_GVGA_ID
 4562:AC56       _AHEAD_A_ID
 4562:AC5D       _AHEAD_B_ID
 4562:AC64       _S3_86C911_ID
 4562:AC6C       _FUN_TAB
 4562:AC6C       _ATI_FUN_TAB
 4562:AC6E       _TRIDENT_FUN_TAB
 4562:AC70       _VIDEO7_FUN_TAB
 4562:AC72       _PARADISE_FUN_TAB
 4562:AC74       _TSENG_FUN_TAB
 4562:AC76       _CHIPS_FUN_TAB
 4562:AC78       _GENOA_FUN_TAB
 4562:AC7A       _AHEAD_FUN_TAB
 4562:AC7C       _ORCHID_FUN_TAB
 4562:AC7C       _S3_FUN_TAB
 4562:AC7E       _SVENDOR
 4562:AC80       _VMODEL
 4562:AC82       _SMODEL
 4562:AC84       _SMEMORY
 4562:AC86       _VESA_OEMP
 4562:AC8A       _VESA_MODES
 4562:AC8E       _SUB_FLAG
 4562:AC90       _SwappedDrive
 4562:AC92       _MaxConfig
 4562:AC93       _ActualBoot
 4562:AC94       _CopyBoot
 4562:AC95       _CopyMax1
 4562:AC96       _CopyMax2
 4562:AC98       _AdvancedOpts
 4562:ACA4       _stackinfo
 4562:ACB0       BIOS_FIXBUF
 4562:ACC2       _PMI_SEG
 4562:ACC6       CRC_CNT
 4562:ACCA       CRC_SEG
 4562:ACCC       CON4K
 4562:ACD0       CON64K
 4562:ACD4       CON1M
 4562:ACD8       LCLGDT
 4562:AD18       VCPGDT
 4562:AE40       LCLIDT
 4562:AF40       EPMTAB
 4562:AF56       LCLTSS
 4562:AFBE       LaCODE
 4562:AFC2       LaDATA
 4562:AFC6       LaCR3
 4562:AFCA       LaPTE
 4562:AFCE       LaBIOS
 4562:AFD2       RaCR3
 4562:AFD6       RaPTE
 4562:AFDA       PaCR3
 4562:AFDE       EMS_PRES
 4562:AFE0       PMI_FWD
 4562:AFE6       PMI_ERR
 4562:AFE8       OLDESP
 4562:AFEC       CODESEG
 4562:AFEE       DSEG
 4562:AFF0       NEXTPTE
 4562:AFF2       FRSTPTE
 4562:AFF4       BCRC
 4562:AFF6       PMSTK
 4562:B1F6       PMSTKZ
 4562:B1F6       PMSTK_FVEC
 4562:B1FC       NEXTLOC
 4562:B200       ___qczrinit
 4562:B202       ___aDBswpflg
 4562:B204       ___aDBswpchk
 4562:B206       ___aDBrterr
 4562:B208       ___aDBexit
 4562:B210       __fpinit
 4562:B528       PIDENT
 4562:B52C       _edata
 4562:B52C       __edata
 4562:C2E0       _duffer
 4562:C2E4       _buffer
 4562:C2E8       _ButtonDisabledColor
 4562:C2EA       _HelpTextWin
 4562:C326       _ButtonHotColor
 4562:C328       _SAVEON
 4562:C32A       _ButtonChevColor
 4562:C32C       _buff
 4562:C714       _LogoColor
 4562:C715       _ShadowColor
 4562:C716       _CurSect
 4562:C71A       _messageText
 4562:C76A       _duffrows
 4562:C76C       _buffrows
 4562:C76E       _LocalLine
 4562:C86E       _markon
 4562:C870       _HelpWinDesc
 4562:C878       _HelpArgNum
 4562:C898       _reserve
 4562:C89C       _ScreenType
 4562:C89E       _MenuDisableColor
 4562:C89F       _ButtonActiveColor
 4562:C8A0       _ErrorBorderColor
 4562:C8A2       _EditWin
 4562:C8AA       _DataWin
 4562:C8B2       _ProgramNameAttr
 4562:C8B4       _compSize
 4562:C8B6       _ActiveColor
 4562:C8B7       _TriggerColor
 4562:C8B8       _SolidBlackColor
 4562:C8BA       _CurLine
 4562:C8BE       _HelpQuickRefColor
 4562:C8C0       _PrintProgramName
 4562:C8C4       _SwapTable
 4562:C8DE       _BackScreenColor
 4562:C8E0       _HelpWinType
 4562:C8E2       _decompSize
 4562:C8E4       _buttonList
 4562:CADE       _EditorDataColor
 4562:CAE0       _RawInfo
 4562:CAE8       _OptionTextColor
 4562:CAE9       _MenuItemTriggerColor
 4562:CAEA       _HelpColors
 4562:CAF2       _PrevSect
 4562:CAF6       _optfbuff
 4562:CBF6       _Callback
 4562:CBFA       _PrintFile
 4562:CC3A       _HelpHotSpot
 4562:CC44       _EditorFileName
 4562:CC48       _BROWSE
 4562:CC4A       _MenuOrder
 4562:CC4C       _arg_argptr
 4562:CC50       _NorDlgColors
 4562:CC54       _IncLine
 4562:CC58       _HelpArgFrom
 4562:CC5C       _HelpArgTo
 4562:CC60       _AdapterType
 4562:CC62       _HdataColors
 4562:CC6A       _MenuItemDisabled
 4562:CC6C       _helpSystem
 4562:CC6E       _OptionHighColor
 4562:CC6F       _EditorHighColor
 4562:CC70       _PressAnyKeyColor
 4562:CC71       _DataColor
 4562:CC72       _PrintableHelp
 4562:CC74       _EditInvColor
 4562:CC75       _DefOwner
 4562:CC76       _cutBlock
 4562:CCC6       _NextLine
 4562:CCCA       _HelpCurContext
 4562:CCCB       _DisableColor
 4562:CCCC       _EditColor
 4562:CCCE       _markWasOn
 4562:CCD0       _BaseColor
 4562:CCD2       _RecallString
 4562:CCD6       _NormalColor
 4562:CCD8       _globalReserve
 4562:CCDC       _QuickBackColor
 4562:CCDE       _SHIFT
 4562:CCE0       _ButtonPushedColor
 4562:CCE2       _ErrDlgColors
 4562:CCE6       _MaxMESSAGEWIDTH
 4562:CCE8       _DataContinueColor
 4562:CCEA       _prevNextFlag
 4562:CCEC       _INSERT
 4562:CCEE       _VIEW
 4562:CCF0       _DELETE_BLOCK_EXISTS
 4562:CCF2       __mbac
 4562:CCFA       _mark
 4562:CD12       _FileChanged
 4562:CD14       _LineChanged
 4562:CD78       _EditorLines
 4562:CD7A       _saveStack
 4562:CDCE       _EditorMarkColor
 4562:CDCF       _HelpColor
 4562:CDD0       _DataYellowColor
 4562:CDD1       _AltLogoColor
 4562:CDD2       _QuickWin
 4562:CDDA       _QHelpColors
 4562:CDE2       _BLOCK_EXISTS
 4562:CDE4       _LastButton
 4562:CDE8       _WaitColor
 4562:CDEA       _PrevLine
 4562:CDEE       _MenuCount
 4562:CDF0       _ErrorColor
 4562:CDF2       _added
 4562:CDF4       _PageChanged
 4562:CDF6       _optfbptr
 4562:CE00       _end
 4562:CE00       __end
 0000:4000  Abs  FJARQQ
 0000:5C32  Abs  FIDRQQ
 0000:8000  Abs  FJSRQQ
 0000:A23D  Abs  FIWRQQ
 0000:C000  Abs  FJCRQQ
 0000:FE32  Abs  FIARQQ

Line numbers for reb\amain.obj(amain.c) segment AMAIN_TEXT

    99 0000:0000   100 0000:0007   102 0000:000c   110 0000:0015
   112 0000:0026   113 0000:003d   115 0000:004d   117 0000:0057
   120 0000:006f   122 0000:0084   124 0000:009c   127 0000:00ab
   128 0000:00c0   130 0000:00dc   131 0000:00ed   135 0000:00fc
   137 0000:0101   141 0000:0106   142 0000:010b   146 0000:0110
   147 0000:0121   149 0000:0132   150 0000:013c   152 0000:0140
   153 0000:014c   155 0000:015e   156 0000:0163   163 0000:016f
   166 0000:0175   167 0000:0187   170 0000:019c   171 0000:01a3
   177 0000:01b0   178 0000:01b7   181 0000:01bc   183 0000:01d3
   189 0000:01d9   195 0000:01de   196 0000:01e3   198 0000:01e8
   204 0000:01f4   205 0000:0206   206 0000:020d   207 0000:0215
   208 0000:021d   211 0000:0222   212 0000:0234   213 0000:023b
   214 0000:024d   216 0000:0261   217 0000:0266   221 0000:0279
   223 0000:0292   225 0000:029e     0 0000:02a3   232 0000:02a4
   237 0000:02ac   239 0000:02c1   241 0000:02cb   242 0000:02d4
   247 0000:02de   250 0000:0308   251 0000:030d   252 0000:0314
   253 0000:0322   255 0000:0324   256 0000:0326   258 0000:0336
   261 0000:033b   263 0000:0361   264 0000:0363     0 0000:0369
   269 0000:036a   270 0000:036f   271 0000:0388     0 0000:0395
   276 0000:0396   280 0000:039c   282 0000:03b0   283 0000:03c2
   284 0000:03d5   285 0000:03dd   286 0000:03f0   287 0000:03f7
   288 0000:03ff   289 0000:0412   290 0000:0419   291 0000:0421
   292 0000:0434   294 0000:043b     0 0000:043f   303 0000:0440
   306 0000:0448   308 0000:0452   309 0000:0459   312 0000:0463
   316 0000:0475   321 0000:047c   322 0000:0496   324 0000:049e
   326 0000:04a8   330 0000:04bc   332 0000:04cc   333 0000:04d6
   335 0000:04e7   336 0000:0500   338 0000:050a   340 0000:0510
   341 0000:0512   342 0000:0519   345 0000:052d   346 0000:0548
   350 0000:0552   351 0000:0559   353 0000:056b   354 0000:0574
   355 0000:058b   356 0000:059b   360 0000:05a3   361 0000:05bd
   364 0000:05c7   367 0000:05cc   368 0000:05d3   371 0000:05e8
   373 0000:05ec   374 0000:05ee     0 0000:05f3   396 0000:05f4
   397 0000:05fe   399 0000:061f   400 0000:0626   403 0000:0634
   408 0000:0643     0 0000:0647   431 0000:0648   437 0000:064f
   441 0000:0657   443 0000:0676   445 0000:067e   446 0000:0684
   447 0000:068a   451 0000:068c   456 0000:0694   457 0000:06a6
   458 0000:06c1   459 0000:06c9   467 0000:06d7   468 0000:0711
   471 0000:0727   475 0000:072a   476 0000:0739   479 0000:073e
   486 0000:0748   487 0000:0757   490 0000:0763   495 0000:0769
   496 0000:076f   500 0000:0772   501 0000:0781   504 0000:0786
   510 0000:0790   511 0000:0796   514 0000:0799   515 0000:079f
   519 0000:07a2   520 0000:07b4   524 0000:07c5   525 0000:07ca
   529 0000:07cd   530 0000:07d3   534 0000:07d6   535 0000:0807
   539 0000:080d   541 0000:0812   544 0000:081a   546 0000:0823
   550 0000:0826   551 0000:0835   552 0000:0850   553 0000:085b
   557 0000:086e   578 0000:0871   580 0000:0878   565 0000:08ce
   570 0000:08db   572 0000:08e9   575 0000:08ef   583 0000:08f1
   585 0000:0915   586 0000:091f     0 0000:0925   611 0000:0926
   612 0000:092f   613 0000:0932     0 0000:0933   622 0000:0934
   631 0000:093f   644 0000:094f   641 0000:0959   642 0000:0961
   643 0000:096b   637 0000:096d   633 0000:0979   634 0000:0981
   646 0000:098c   647 0000:09a1   649 0000:09bb   651 0000:09cf
   655 0000:09e7   657 0000:0a1a   658 0000:0a21     0 0000:0a27
   676 0000:0a28   682 0000:0a31   683 0000:0a4d   684 0000:0a57
   690 0000:0a5a   693 0000:0a6e   694 0000:0a84   695 0000:0a9b
   696 0000:0ab2   697 0000:0ac9   700 0000:0ae0   704 0000:0af5
   709 0000:0b11   710 0000:0b16   712 0000:0b20   718 0000:0b3a
   719 0000:0b58   724 0000:0b5a   725 0000:0b5e   726 0000:0b83
   728 0000:0b9e   729 0000:0bb5   700 0000:0bca   705 0000:0bdc
   706 0000:0bef   713 0000:0bf1   714 0000:0c0d   732 0000:0c0f
   733 0000:0c1b     0 0000:0c21   750 0000:0c22   751 0000:0c24
     0 0000:0c25   757 0000:0c26     0 0000:0c29   764 0000:0c2a
     0 0000:0c2d   773 0000:0c2e   774 0000:0c30     0 0000:0c31
   780 0000:0c32   781 0000:0c34     0 0000:0c35   789 0000:0c36
   790 0000:0c38     0 0000:0c39   796 0000:0c3a     0 0000:0c3b
   804 0000:0c3c     0 0000:0c3d   810 0000:0c3e     0 0000:0c3f
   835 0000:0c40   836 0000:0c43   837 0000:0c55   838 0000:0c5f
     0 0000:0c63

Line numbers for reb\ahelp.obj(ahelp.c) segment AHELP_TEXT

    44 00c6:0004    47 00c6:000a    51 00c6:001e    53 00c6:002a
    70 00c6:002d    66 00c6:0034    67 00c6:003a    60 00c6:004b
    61 00c6:0051    62 00c6:0060    72 00c6:0078    73 00c6:0082
    75 00c6:0096    77 00c6:00a0    88 00c6:00a3    86 00c6:00aa
    79 00c6:00b2    82 00c6:00ba    91 00c6:00c4    93 00c6:00dd
   103 00c6:010d     0 00c6:0111   108 00c6:0112   110 00c6:0119
   112 00c6:0121   116 00c6:0135   118 00c6:013b   120 00c6:0147
   121 00c6:014e   123 00c6:015a   124 00c6:0160   126 00c6:0174
   128 00c6:0182   130 00c6:0192   131 00c6:019e   133 00c6:01ae
   134 00c6:01ba   136 00c6:01ca   137 00c6:01db   140 00c6:01eb
   141 00c6:01fd   143 00c6:020d   144 00c6:0213   146 00c6:0223
   147 00c6:0229   149 00c6:0239   150 00c6:0255   151 00c6:025f
   152 00c6:0269   154 00c6:027e   155 00c6:0290   156 00c6:029a
   157 00c6:02a4   159 00c6:02b1   160 00c6:02c5   161 00c6:02cf
   162 00c6:02d9   164 00c6:02e6   165 00c6:02fa   166 00c6:0304
   167 00c6:030e   169 00c6:031b   170 00c6:032f   171 00c6:0339
   172 00c6:0343   174 00c6:0350   175 00c6:0364   176 00c6:036e
   177 00c6:0378   179 00c6:0385   180 00c6:0399   181 00c6:03a3
   182 00c6:03ad   184 00c6:03ba   185 00c6:03ce   186 00c6:03d8
   187 00c6:03e2   189 00c6:03ef   190 00c6:0403   191 00c6:040d
   192 00c6:0417   194 00c6:0424   195 00c6:044f   196 00c6:0459
   197 00c6:0463   200 00c6:046d   202 00c6:0486   212 00c6:04b6
     0 00c6:04bb   239 00c6:04bc   251 00c6:04c5   253 00c6:04cb
   254 00c6:04d3   257 00c6:04d9   260 00c6:04f0   261 00c6:04ff
   262 00c6:0505   278 00c6:0512   279 00c6:0527   280 00c6:0535
   284 00c6:0540   288 00c6:055a   290 00c6:056f   292 00c6:0592
   294 00c6:059c   300 00c6:05a5   301 00c6:05d0   303 00c6:05da
   304 00c6:05fb   305 00c6:060e   306 00c6:062e   307 00c6:0641
   308 00c6:065a   309 00c6:066f   310 00c6:0684   311 00c6:069d
   312 00c6:069f   317 00c6:06ad   327 00c6:06b5   328 00c6:06ca
   329 00c6:06cf   331 00c6:06d6   332 00c6:06e0   333 00c6:06e5
   334 00c6:06ea   335 00c6:06ee   321 00c6:06f2   349 00c6:0725
   350 00c6:0735   351 00c6:073d   352 00c6:074d   353 00c6:0755
   263 00c6:0765   264 00c6:0773   270 00c6:0782   272 00c6:079c
   273 00c6:07aa   274 00c6:07b5   275 00c6:07bb   338 00c6:07be
   339 00c6:07c5   340 00c6:07e3   343 00c6:07ed   345 00c6:0807
   346 00c6:0816   348 00c6:081a   355 00c6:081d   367 00c6:0833
   371 00c6:0868   373 00c6:086e   374 00c6:087d   378 00c6:088d
   379 00c6:08a1   380 00c6:08a5   381 00c6:08ae   383 00c6:08b6
   385 00c6:08d2   386 00c6:08d6   387 00c6:08e0   390 00c6:08ee
   391 00c6:08f7   392 00c6:0907   393 00c6:0910   397 00c6:0920
   398 00c6:0928   399 00c6:092e   400 00c6:0938   401 00c6:093c
     0 00c6:0941

Line numbers for reb\asqprint.obj(asqprint.c) segment ASQPRINT_TEXT

    97 015a:0002    98 015a:0008   103 015a:000d   106 015a:0016
   110 015a:001d   112 015a:0034   113 015a:0042   119 015a:0048
   120 015a:006d   122 015a:0080   127 015a:0090   129 015a:0094
   132 015a:009a   134 015a:00a1   135 015a:00a9   138 015a:00b4
   140 015a:00c4   149 015a:00cc   152 015a:00dc   154 015a:00e9
   156 015a:00fc   158 015a:010f   161 015a:0121   143 015a:0124
   146 015a:012b   163 015a:0132   165 015a:0139   166 015a:0141
   168 015a:0157   170 015a:016c   172 015a:017f   176 015a:0189
   178 015a:0190   179 015a:0198   181 015a:01ae   184 015a:01c2
   191 015a:01d3   193 015a:01da   195 015a:01e2   199 015a:01f7
   201 015a:0208   203 015a:0215   205 015a:021c   207 015a:0229
   209 015a:0241   215 015a:0252   217 015a:025c   218 015a:0264
   219 015a:027b   223 015a:027e   225 015a:0283   227 015a:0288
   228 015a:028d   230 015a:028f   233 015a:02a2   236 015a:02ad
   237 015a:02b2   239 015a:02b4   240 015a:02b9   242 015a:02bb
   243 015a:02c0   245 015a:02c2   248 015a:02cd   251 015a:02d8
   252 015a:02dd   254 015a:02e2   260 015a:0310   262 015a:0323
   267 015a:032d   269 015a:0334   270 015a:033c   273 015a:0347
   275 015a:0357   284 015a:035f   287 015a:036f   289 015a:037c
   291 015a:038f   278 015a:039d   281 015a:03a4   299 015a:03ab
   301 015a:03b8   303 015a:03cb   311 015a:03f6   314 015a:03fc
   315 015a:0400   316 015a:0404   320 015a:0414   323 015a:041b
   330 015a:0442   332 015a:0446   334 015a:0448     0 015a:044b
   341 015a:044c   342 015a:0455   343 015a:045a   344 015a:0463
   346 015a:0477   347 015a:047c     0 015a:047d   350 015a:047e
   353 015a:0484   354 015a:049a   356 015a:04ae     0 015a:04b1
   361 015a:04b2   362 015a:04b7   364 015a:04bc   365 015a:04ca
   366 015a:04d8   367 015a:04de   369 015a:04e4   370 015a:04fc
   371 015a:0504   372 015a:0509   375 015a:050c   376 015a:0515
   381 015a:0527   382 015a:053b   383 015a:0548   386 015a:0569
   387 015a:056d   388 015a:0572   389 015a:0577   391 015a:057c
   393 015a:0580   394 015a:058c   396 015a:059a   397 015a:05af
   398 015a:05b4   401 015a:05c4   403 015a:05ce     0 015a:05cf
   434 015a:05d0   436 015a:05d7   437 015a:05e5   442 015a:05f1
   443 015a:0607   444 015a:060e   445 015a:0621   447 015a:0626
   452 015a:063c   454 015a:0643   457 015a:0651   459 015a:0655
   462 015a:0660   464 015a:066d   542 015a:0748   543 015a:0756
   467 015a:0758   545 015a:0764   546 015a:0768   473 015a:076b
   474 015a:077f   475 015a:0794   476 015a:0799   478 015a:079b
   479 015a:07af   480 015a:07c4   481 015a:07c9   483 015a:07cb
   484 015a:07d7   486 015a:07d9   487 015a:07e5   492 015a:07e8
   493 015a:07f4   498 015a:07f7   499 015a:0803   508 015a:0806
   509 015a:0812   518 015a:0815   519 015a:0821   521 015a:0824
   522 015a:0830   470 015a:0833   471 015a:083f   527 015a:0842
   528 015a:084e   489 015a:0851   490 015a:085d   533 015a:0860
   534 015a:086c   536 015a:086f   537 015a:087b   539 015a:087e
   540 015a:088a   548 015a:088d   549 015a:0895   550 015a:0897
   552 015a:089c   553 015a:08aa   554 015a:08b1   555 015a:08bd
   557 015a:08bf   558 015a:08cf   559 015a:08d3   562 015a:08dd
   563 015a:08ec   566 015a:08fb   568 015a:0923   572 015a:093b
   578 015a:095b   579 015a:095e     0 015a:0961   604 015a:0962
   607 015a:096b   608 015a:0978   610 015a:0980   611 015a:0985
   617 015a:098e   619 015a:09a3   620 015a:09c7   622 015a:09ca
   624 015a:09d3   625 015a:09df   626 015a:09e8   629 015a:09ee
   630 015a:09f4     0 015a:09f9   656 015a:09fa   658 015a:0a03
   659 015a:0a08   660 015a:0a0d   662 015a:0a1d   664 015a:0a23
   666 015a:0a28   668 015a:0a32   669 015a:0a36   670 015a:0a3a
   671 015a:0a58   676 015a:0a5b   677 015a:0a68   681 015a:0a82
   682 015a:0a97   683 015a:0aae   687 015a:0ad5   688 015a:0ade
   689 015a:0b12   690 015a:0b2b   691 015a:0b2f   692 015a:0b45
   694 015a:0b63   696 015a:0b75   697 015a:0b8a   698 015a:0b9f
   699 015a:0bb4   701 015a:0bd2   702 015a:0be7   704 015a:0beb
   705 015a:0bfe     0 015a:0c03   732 015a:0c04   737 015a:0c0d
   739 015a:0c23   742 015a:0c2c   743 015a:0c60   745 015a:0c65
   746 015a:0c71   749 015a:0c93   750 015a:0ca4   753 015a:0ca7
   754 015a:0cc0   755 015a:0cc3   756 015a:0ccc   757 015a:0cdd
   758 015a:0cf8   760 015a:0cfd   762 015a:0d06   765 015a:0d0c
   766 015a:0d12     0 015a:0d17   790 015a:0d18   794 015a:0d21
   795 015a:0d32   797 015a:0d35   800 015a:0d4b   801 015a:0d57
   802 015a:0d70   803 015a:0d73   804 015a:0d84   806 015a:0d9f
   808 015a:0da5   809 015a:0dab     0 015a:0db0   831 015a:0db1
   841 015a:0dba   842 015a:0dd9   843 015a:0df5   844 015a:0df8
   845 015a:0dfb   847 015a:0e08   848 015a:0e14   849 015a:0e1c
   850 015a:0e2a   853 015a:0e34   854 015a:0e45   855 015a:0e52
   856 015a:0e6b   857 015a:0e83   858 015a:0ea6   859 015a:0eb0
   861 015a:0ebd   862 015a:0ed7   864 015a:0eda   865 015a:0eee
   866 015a:0f07   868 015a:0f0a   870 015a:0f0d   871 015a:0f12
   873 015a:0f15   874 015a:0f18   875 015a:0f3b   876 015a:0f45
   878 015a:0f52   879 015a:0f6c   881 015a:0f6f   882 015a:0f88
   884 015a:0f8b   886 015a:0f8e   889 015a:0f93   891 015a:0f99
   892 015a:0f9e   894 015a:0fa4     0 015a:0fa9   915 015a:0faa
   918 015a:0fb3   919 015a:0fc4   921 015a:0fc7   923 015a:0fe8
   924 015a:0ffe   925 015a:1015   926 015a:103a   927 015a:1040
   928 015a:1043   929 015a:105a   930 015a:1060   933 015a:1063
   935 015a:1069   937 015a:106f     0 015a:1074   960 015a:1075
   964 015a:107e   965 015a:108f   967 015a:1092   968 015a:109b
   971 015a:10ca   972 015a:10e4   973 015a:10fa   974 015a:1111
   975 015a:112a   976 015a:112d   978 015a:1130   980 015a:1136
   983 015a:113c     0 015a:1141  1004 015a:1142  1017 015a:114b
  1019 015a:1280  1020 015a:128a  1021 015a:12a2  1029 015a:12a8
  1030 015a:1338  1032 015a:133e  1033 015a:1344     0 015a:1349
  1054 015a:134a  1059 015a:1353  1060 015a:1365  1061 015a:1368
  1062 015a:1382  1064 015a:1385  1065 015a:139e  1066 015a:13a9
  1067 015a:13b3  1070 015a:13b6  1071 015a:13d5  1072 015a:13e2
  1073 015a:13e5  1074 015a:13f8  1075 015a:1403  1077 015a:140c
  1078 015a:1426  1080 015a:1429  1081 015a:142c  1083 015a:1432
  1084 015a:1438     0 015a:143d  1105 015a:143e  1109 015a:1447
  1111 015a:1459  1112 015a:146f  1113 015a:1486  1116 015a:149c
  1118 015a:14a9  1119 015a:14c8  1120 015a:14cc  1122 015a:14cf
  1123 015a:14e6  1125 015a:14e9  1126 015a:1502  1128 015a:1505
  1131 015a:1517  1132 015a:151d     0 015a:1522  1159 015a:1523
  1164 015a:152c  1166 015a:1535  1167 015a:154d  1168 015a:1550
  1170 015a:156e  1174 015a:159e  1176 015a:15da  1177 015a:15e4
  1179 015a:15ea  1180 015a:15ef  1182 015a:15f9  1184 015a:1616
  1185 015a:1625  1186 015a:1631  1188 015a:1638  1196 015a:163e
  1197 015a:164c  1199 015a:1659  1200 015a:1666  1201 015a:166e
  1202 015a:1672  1203 015a:1675  1205 015a:1678  1206 015a:1693
  1208 015a:16a9  1209 015a:16c3  1210 015a:16c9  1211 015a:16cc
  1212 015a:16d2     0 015a:16d7

Line numbers for reb\ADFSPEC.obj(adfspec.c) segment ADFSPEC_TEXT

    52 02c7:0008    53 02c7:0014    66 02c7:0019    67 02c7:001d
    70 02c7:0027    72 02c7:0034    73 02c7:0038    75 02c7:004c
    78 02c7:006a    79 02c7:0078    82 02c7:0099    86 02c7:00c1
    87 02c7:00d5    76 02c7:00f0    91 02c7:00fc    94 02c7:010e
    99 02c7:0114   103 02c7:012a   104 02c7:013a   105 02c7:0148
   106 02c7:014b   108 02c7:0150   113 02c7:0159   114 02c7:0174
   120 02c7:017c   121 02c7:0190   122 02c7:019d   127 02c7:01bb
   128 02c7:01db   132 02c7:01e7   134 02c7:0201   137 02c7:020d
   140 02c7:0221   142 02c7:024c   147 02c7:0260   149 02c7:026f
   150 02c7:0284   151 02c7:0294   156 02c7:029c   157 02c7:02b1
   159 02c7:02ba   160 02c7:02be   165 02c7:02d1   163 02c7:02db
   164 02c7:02ec   169 02c7:02ee   180 02c7:02fd   181 02c7:031e
   199 02c7:0330   200 02c7:0337   201 02c7:0351   202 02c7:0354
   185 02c7:035d   186 02c7:0372   171 02c7:037a   172 02c7:0389
   193 02c7:038c   206 02c7:03a5   207 02c7:03ac   209 02c7:03c6
   210 02c7:03d5   217 02c7:03de   218 02c7:03e3   219 02c7:03f5
   221 02c7:03fa   222 02c7:0404   223 02c7:041c   224 02c7:0424
   226 02c7:042c   227 02c7:0430   228 02c7:0432     0 02c7:0439

Line numbers for reb\asq.obj(asq.c) segment ASQ_TEXT

    57 030a:000a    59 030a:0011    61 030a:0016    64 030a:0022
    65 030a:0035    69 030a:003a    72 030a:003f    73 030a:004c
    75 030a:0054    76 030a:0061    78 030a:0069    79 030a:0076
    81 030a:007e    82 030a:008a    83 030a:009b    86 030a:00b0
    89 030a:00b6    90 030a:00de    91 030a:00e8    92 030a:0101
    93 030a:0107    94 030a:010d    95 030a:0112    98 030a:0115
   100 030a:0122   101 030a:012c   102 030a:0145   105 030a:014f
   106 030a:0160   108 030a:016b   505 030a:0184   113 030a:0187
   114 030a:018d   115 030a:01a6   116 030a:01b7   119 030a:01bc
   123 030a:01c2   125 030a:01c9   127 030a:01db   128 030a:01e0
   129 030a:01e5   130 030a:01ea   132 030a:01ed   133 030a:01f2
   134 030a:01f7   136 030a:01fa   137 030a:0210   139 030a:0213
   147 030a:021a   150 030a:0226   153 030a:0232   156 030a:023e
   159 030a:024a   162 030a:0256   165 030a:0262   168 030a:026e
   171 030a:027a   174 030a:0287   178 030a:0294   181 030a:02a1
   182 030a:02a7   183 030a:02ae   185 030a:02b5   189 030a:02cc
   192 030a:02e3   193 030a:02e9   195 030a:02ec   196 030a:02f2
   197 030a:02f9   199 030a:0300   188 030a:0321   203 030a:0323
   208 030a:0330   209 030a:0336   210 030a:033d   212 030a:0344
   216 030a:035a   221 030a:0368   222 030a:036e   223 030a:0375
   224 030a:037c   228 030a:0392   233 030a:03a0   234 030a:03a6
   235 030a:03ad   236 030a:03b7   240 030a:03d7   245 030a:03e5
   249 030a:03f2   253 030a:03ff   257 030a:040c   260 030a:0419
   263 030a:0426   266 030a:0433   269 030a:0440   272 030a:044d
   273 030a:0452   275 030a:0454   276 030a:0459   278 030a:045b
   279 030a:0460   281 030a:0462   282 030a:0467   284 030a:0469
   285 030a:046e   287 030a:0470   288 030a:0475   290 030a:0477
   291 030a:047c   293 030a:047e   294 030a:0483   296 030a:0485
   297 030a:048a   299 030a:048c   300 030a:0491   302 030a:0493
   303 030a:0498   305 030a:049a   306 030a:049f   308 030a:04a1
   309 030a:04a6   311 030a:04a8   312 030a:04ad   314 030a:04af
   315 030a:04b4   317 030a:04b6   319 030a:04bb   323 030a:0540
   333 030a:0551   337 030a:0573   338 030a:057c   339 030a:0582
   340 030a:0588   342 030a:058b   343 030a:0591   344 030a:0597
   347 030a:059c   348 030a:05a2   349 030a:05a8   352 030a:05ad
   353 030a:05b3   354 030a:05b9   357 030a:05be   358 030a:05c4
   359 030a:05ca   362 030a:05cf   363 030a:05d5   364 030a:05db
   367 030a:05e0   368 030a:05e6   369 030a:05ec   372 030a:05f1
   373 030a:05f7   374 030a:05fd   377 030a:0602   378 030a:0608
   379 030a:060e   382 030a:0614   383 030a:061a   384 030a:0620
   387 030a:0626   388 030a:062c   389 030a:0632   393 030a:0638
   394 030a:0641   403 030a:0647   413 030a:064d   414 030a:0653
   416 030a:0659   427 030a:065f   428 030a:0665   432 030a:066b
   433 030a:0670   434 030a:0677   419 030a:0686   420 030a:068b
   421 030a:0692   405 030a:06a1   406 030a:06a6   407 030a:06ad
   398 030a:06bc   399 030a:06c1   400 030a:06c7   401 030a:06cd
   440 030a:06d9   441 030a:06df   445 030a:06e5   446 030a:06ea
   447 030a:06f0   448 030a:06f6   451 030a:06fc   452 030a:0702
   453 030a:0708   456 030a:070e   457 030a:0714   458 030a:071a
   461 030a:0720   462 030a:0726   463 030a:072c   466 030a:0732
   467 030a:0738   468 030a:073e   472 030a:0744   473 030a:074d
   476 030a:0753   477 030a:0759   478 030a:075f   488 030a:0765
   489 030a:076c   490 030a:077b   482 030a:077e   483 030a:0783
   484 030a:0789   485 030a:078f   495 030a:079b   496 030a:07a1
   499 030a:07e7   501 030a:07f0   507 030a:07f3   511 030a:07f8
     0 030a:07fd

Line numbers for reb\snap.obj(snap.c) segment SNAP_TEXT

    66 0389:000e    68 0389:000f    69 0389:0014    70 0389:0023
    71 0389:002d    72 0389:003f    73 0389:0059    74 0389:005e
    75 0389:0062    76 0389:006c    77 0389:0072     0 0389:0073
    98 0389:0074   105 0389:007d   111 0389:0085   116 0389:0098
   117 0389:00ac   118 0389:00b6   121 0389:00b9   122 0389:00be
   123 0389:00c9   128 0389:00d2   130 0389:00f3   133 0389:0103
   138 0389:010f   139 0389:012e   144 0389:0137   145 0389:0142
   146 0389:0152   147 0389:0159   148 0389:016b   149 0389:016f
   152 0389:0183   153 0389:0189   155 0389:0194   156 0389:01a4
   158 0389:01a8   159 0389:01b3   160 0389:01bd   161 0389:01c6
   164 0389:01c9   167 0389:01e7   169 0389:01f4   170 0389:01f9
   171 0389:01fe   172 0389:0213   173 0389:0228   177 0389:0233
   179 0389:0246   182 0389:0249   204 0389:025c   206 0389:0266
   207 0389:0277   208 0389:0288   210 0389:0298   212 0389:02a8
   213 0389:02b9   214 0389:02ca   216 0389:02da   217 0389:02e3
   243 0389:02fb   184 0389:0303   195 0389:0306   197 0389:0316
   198 0389:0324   248 0389:032b   249 0389:033e   251 0389:0352
   253 0389:0367   265 0389:0382   186 0389:0398   187 0389:03a2
   188 0389:03ba   219 0389:03bd   223 0389:03dc   224 0389:03e8
   226 0389:03f5   228 0389:040a   229 0389:0425   230 0389:042a
   242 0389:042d   236 0389:0439   237 0389:0443   239 0389:0446
   240 0389:0449   190 0389:044e   260 0389:0455   261 0389:045f
   263 0389:0461   233 0389:0466   234 0389:046c   268 0389:046e
   271 0389:0472   272 0389:0478   275 0389:047d   276 0389:0485
   277 0389:0493     0 0389:0499   296 0389:049a   297 0389:04a1
   298 0389:04b5   300 0389:04c7   309 0389:04c9   312 0389:04df
   316 0389:04ee   317 0389:04fb   318 0389:050f   319 0389:0525
   320 0389:052a   321 0389:052e   322 0389:0538   302 0389:0551
   325 0389:0556     0 0389:055b   346 0389:055c   350 0389:0564
   351 0389:0569   356 0389:056c   357 0389:0571   360 0389:0576
   368 0389:059c   370 0389:05b7   374 0389:05c0   375 0389:05d7
   376 0389:05e4   378 0389:0602   380 0389:0615   383 0389:062f
   385 0389:065e   386 0389:0671   389 0389:0675   390 0389:06a1
   393 0389:06b5   395 0389:06c1   396 0389:06d6   397 0389:06e6
   400 0389:06ee   401 0389:06f0   402 0389:0705   403 0389:070b
   417 0389:0721   490 0389:0723   491 0389:0727   503 0389:0729
   406 0389:073f   407 0389:0755   408 0389:0758   411 0389:075a
   412 0389:0772   415 0389:0775   474 0389:0778   455 0389:0792
   466 0389:07a5   467 0389:07af   468 0389:07c1   469 0389:07c5
   458 0389:07cd   465 0389:07cf   460 0389:07d8   461 0389:07e9
   463 0389:07ec   477 0389:07f7   487 0389:07fa   479 0389:0812
   480 0389:0821   423 0389:0824   436 0389:0826   428 0389:0836
   429 0389:0839   431 0389:083c   439 0389:0857   452 0389:0859
   447 0389:0869   493 0389:0884   494 0389:0894   495 0389:08a8
   497 0389:08aa   498 0389:08bd   501 0389:08c9   504 0389:08d7
   516 0389:08d9   506 0389:08e6   507 0389:08f9   510 0389:0903
   511 0389:0914   514 0389:091e   485 0389:092d   486 0389:0930
   482 0389:0932   524 0389:0935   526 0389:093a   527 0389:0942
   528 0389:0954   529 0389:0959   530 0389:095b     0 0389:0961
   553 0389:0962   555 0389:096b   556 0389:097a   557 0389:0980
   559 0389:0985   562 0389:098e   565 0389:09ab   583 0389:09ae
   572 0389:09b7   575 0389:09cb   581 0389:09d4   584 0389:09f2
     0 0389:09f5   603 0389:09f6   613 0389:09fe   621 0389:0a24
   623 0389:0a41   624 0389:0a4a   625 0389:0a56   629 0389:0a59
   630 0389:0a6d   631 0389:0a7a   633 0389:0a9b   634 0389:0aad
   635 0389:0ab0   636 0389:0ab4   637 0389:0ab8   641 0389:0acf
   644 0389:0ae3   645 0389:0b0e   647 0389:0b15   649 0389:0b27
   650 0389:0b2a   651 0389:0b41   652 0389:0b49   654 0389:0b57
   655 0389:0b6c   656 0389:0b71   659 0389:0b84   662 0389:0b86
   671 0389:0b95   667 0389:0b9f   668 0389:0bae   661 0389:0bc3
   672 0389:0bc9   676 0389:0bde   677 0389:0be3   678 0389:0bf3
     0 0389:0bf7

Line numbers for reb\abort.obj(abort.c) segment ABORT_TEXT

    18 0448:0008    19 0448:000d    20 0448:001e    21 0448:0023
    24 0448:002f    25 0448:0043    26 0448:0054     0 0448:0059

Line numbers for reb\readprof.obj(readprof.c) segment READPROF_TEXT

   119 0448:005a   121 0448:005c     0 0448:005d

Line numbers for reb\asqdata.obj(asqdata.c) segment ASQDATA_TEXT

    57 044d:000e    61 044d:0017    62 044d:001c    63 044d:0024
    68 044d:0035    70 044d:003a    71 044d:0046    73 044d:004c
    76 044d:0059    78 044d:0074    83 044d:0079    86 044d:008d
    91 044d:00a1    92 044d:00aa    93 044d:00bc    99 044d:00c1
   117 044d:00f5   118 044d:0165   119 044d:016c   120 044d:0180
   121 044d:018b   123 044d:019d   127 044d:01a0   128 044d:01b7
   131 044d:01c7   133 044d:01ec   134 044d:01f3   135 044d:0203
   136 044d:020c   139 044d:0222   140 044d:0235   141 044d:023a
   142 044d:0244   149 044d:025f   150 044d:0262   152 044d:026a
   153 044d:0276   156 044d:027f   161 044d:0286   162 044d:029b
   166 044d:029e   168 044d:02a2   169 044d:02b0   171 044d:02b2
   175 044d:02b9   178 044d:02d0   182 044d:02df   183 044d:02e3
   184 044d:02e6   185 044d:0302   188 044d:0305   193 044d:030c
   194 044d:0326   197 044d:0329   198 044d:0342   199 044d:035d
   202 044d:0371   203 044d:0377   204 044d:037c   208 044d:0381
   209 044d:0396   210 044d:03ab   218 044d:03b6   246 044d:03c7
   221 044d:03d5   222 044d:03df   236 044d:03e2   224 044d:03fd
   225 044d:0409   227 044d:040b   228 044d:0421   230 044d:0423
   234 044d:042c   235 044d:0432   101 044d:0434   251 044d:043e
   252 044d:0444   255 044d:0449   256 044d:0451   258 044d:045e
   260 044d:046f   261 044d:0477   265 044d:0488   268 044d:049c
   270 044d:04b7   272 044d:04cb   274 044d:04e6   277 044d:04fa
   278 044d:04fd     0 044d:0503   332 044d:0504   334 044d:0510
   338 044d:0516   339 044d:0522   345 044d:0534   353 044d:0563
   354 044d:057d   357 044d:0591   359 044d:05b6   360 044d:05bd
   361 044d:05cd   362 044d:05d6   365 044d:05ec   366 044d:0606
   367 044d:061a   368 044d:061f   370 044d:0629   372 044d:064f
   377 044d:0657   378 044d:065a   379 044d:0661   380 044d:0668
   381 044d:067c   382 044d:0689   385 044d:0691   390 044d:0698
   391 044d:06b1   395 044d:06b4   397 044d:06ba   398 044d:06c8
   400 044d:06cb   404 044d:06d3   407 044d:06ea   411 044d:06f6
   412 044d:06fa   413 044d:06fd   414 044d:0707   415 044d:0710
   416 044d:0725   419 044d:0728   424 044d:0730   425 044d:0735
   426 044d:0747   427 044d:0758   430 044d:075b   431 044d:076c
   432 044d:0777   433 044d:0780   434 044d:0793   435 044d:07ae
   437 044d:07c2   438 044d:07c8   440 044d:07ce   441 044d:07de
   443 044d:07f2   347 044d:0804   447 044d:080e     0 044d:0813

Program entry point at 04CE:0014

Line numbers for R:\MAX\lib\Lquilibr.lib(argstr.c) segment ARGSTR_TEXT

    30 1038:0006    31 1038:000e    32 1038:0015    35 1038:0025
    36 1038:0036    38 1038:0050    39 1038:006a    40 1038:0080
    41 1038:009a    32 1038:00b1    43 1038:00bd     0 1038:00c3
    49 1038:00c4    53 1038:00cf    58 1038:00ea    61 1038:00f8
    62 1038:00ff    64 1038:0105    65 1038:010c    67 1038:010d
    69 1038:010f    70 1038:0115    72 1038:0126    74 1038:012d
    75 1038:013f    76 1038:0152    77 1038:0155     0 1038:015b
    91 1038:015c    95 1038:0164   147 1038:0170   149 1038:0179
   150 1038:0187   154 1038:018f   156 1038:01a0   159 1038:01cc
   160 1038:0206   161 1038:020f   164 1038:0239   166 1038:0242
   167 1038:026a   168 1038:0271   170 1038:0283   176 1038:02b1
   171 1038:02e3   172 1038:02ea   173 1038:030b   182 1038:030e
   183 1038:0322   184 1038:034a   185 1038:0363   186 1038:036b
   190 1038:037e    97 1038:03a4    98 1038:03cd   100 1038:03da
   102 1038:03f0   104 1038:03f6   105 1038:0418   106 1038:0425
   107 1038:0444   108 1038:044a   112 1038:0451   113 1038:045f
   114 1038:046f   121 1038:047a   122 1038:0494   126 1038:04b2
   128 1038:04d9   130 1038:04dd   131 1038:04fe   132 1038:0505
   137 1038:050d   139 1038:050f   140 1038:0529   141 1038:0547
   196 1038:0553   198 1038:055a     0 1038:055f   206 1038:0560
   207 1038:056e     0 1038:056f   215 1038:0570     0 1038:0577
   232 1038:0578   238 1038:0581   241 1038:0589   242 1038:05a1
   243 1038:05a5   245 1038:05b3   247 1038:05cf   250 1038:05ee
   251 1038:0621   253 1038:062b   255 1038:0632   256 1038:063c
   259 1038:0647   263 1038:0649   269 1038:067b   275 1038:0685
   264 1038:0687   265 1038:068b   268 1038:068f   275 1038:0691
   276 1038:069b   280 1038:06a6   281 1038:06ad   284 1038:06ba
   289 1038:06bf   290 1038:06c3   296 1038:06c7   298 1038:06ca
     0 1038:06cf

Line numbers for R:\MAX\lib\Lquilibr.lib(blist.c) segment BLIST_TEXT

    51 10a5:0000    56 10a5:000b    57 10a5:0028    60 10a5:0036
    62 10a5:0049    63 10a5:0068    65 10a5:0083    66 10a5:0085
     0 10a5:008b    88 10a5:008c    89 10a5:0097    92 10a5:00ac
    95 10a5:00bc    96 10a5:00c3    97 10a5:00c9    98 10a5:00cf
   100 10a5:00d4   101 10a5:00da   105 10a5:00df   106 10a5:00fb
   109 10a5:0102   116 10a5:0133   120 10a5:014f   122 10a5:0176
   123 10a5:0178     0 10a5:017d   152 10a5:017e   154 10a5:018c
   155 10a5:0196   156 10a5:019d   161 10a5:01b8   163 10a5:01c2
   164 10a5:01d5   165 10a5:01e6   166 10a5:01e9   171 10a5:01fc
   172 10a5:0220   160 10a5:0227   175 10a5:022c   160 10a5:0238
   176 10a5:0255   184 10a5:025f   185 10a5:0265   187 10a5:0273
   188 10a5:027d   189 10a5:028c   191 10a5:028e   194 10a5:02b3
   195 10a5:02c5   196 10a5:02cc   200 10a5:02d6   202 10a5:02e6
   181 10a5:02eb   203 10a5:02ee     0 10a5:02f5   226 10a5:02f6
   235 10a5:0301   238 10a5:0315   241 10a5:031a   242 10a5:031c
   243 10a5:032c   244 10a5:0330   246 10a5:0333   247 10a5:033c
   248 10a5:0340   250 10a5:0343   251 10a5:0347   235 10a5:0355
   253 10a5:0362     0 10a5:0367   284 10a5:0368   289 10a5:0373
   290 10a5:0395   291 10a5:0399   294 10a5:03a9   340 10a5:03ac
   331 10a5:03e4   332 10a5:0403   333 10a5:0415   332 10a5:041a
   331 10a5:0422   334 10a5:043e   335 10a5:0448   320 10a5:044b
   321 10a5:0450   322 10a5:0457   310 10a5:045a   313 10a5:046e
   316 10a5:047b   317 10a5:0488   318 10a5:04a4   304 10a5:04a6
   305 10a5:04af   295 10a5:04b1   296 10a5:04b4   297 10a5:04bb
   298 10a5:04bf   306 10a5:04c1   307 10a5:04c4   299 10a5:04cc
   300 10a5:04cf   301 10a5:04da   343 10a5:04de   344 10a5:04ef
   346 10a5:04fc     0 10a5:0501

Line numbers for R:\MAX\lib\Lquilibr.lib(box.c) segment BOX_TEXT

    31 10f5:0002    39 10f5:0010    41 10f5:001f    44 10f5:0033
    45 10f5:004b    48 10f5:006a    49 10f5:006d    50 10f5:0079
    51 10f5:007e    53 10f5:0097    54 10f5:009e    55 10f5:00ad
    56 10f5:00c1    60 10f5:00d2    61 10f5:00d8    62 10f5:00dd
    65 10f5:00f7    66 10f5:0101    67 10f5:010a    69 10f5:0111
    70 10f5:012b    71 10f5:0131    74 10f5:014b    75 10f5:0157
    76 10f5:015c    77 10f5:0163    80 10f5:017d    81 10f5:0180
    82 10f5:018c    84 10f5:01a6    85 10f5:01ae    86 10f5:01bf
    87 10f5:01d3    91 10f5:01e6    92 10f5:01ec    93 10f5:01f1
    95 10f5:020b     0 10f5:0211

Line numbers for R:\MAX\lib\Lquilibr.lib(button.c) segment BUTTON_TEXT

   101 1116:0002   105 1116:0006   106 1116:001a   105 1116:0020
   107 1116:002c   109 1116:0032   110 1116:0035     0 1116:0039
   138 1116:003a   140 1116:0045   142 1116:0054   143 1116:005b
   146 1116:0064   147 1116:0070   149 1116:0076   150 1116:0086
   151 1116:0099   152 1116:00ad   153 1116:00c6   154 1116:00e3
   155 1116:00f1   156 1116:00ff   157 1116:0118   158 1116:0131
   159 1116:013f   160 1116:014d   161 1116:015b   149 1116:0169
   164 1116:0177   165 1116:017e   166 1116:0186   167 1116:0188
     0 1116:018d   191 1116:018e   196 1116:0198   198 1116:01a7
   202 1116:01af   204 1116:01bd   202 1116:01db   206 1116:01ea
   209 1116:01f8   210 1116:01ff   212 1116:0204   213 1116:020a
   214 1116:020e   217 1116:0219   219 1116:0222   221 1116:0242
   196 1116:0246   227 1116:0252   228 1116:0258   229 1116:0260
   230 1116:0262     0 1116:0267   251 1116:0268   254 1116:0270
   255 1116:027b   256 1116:0280   257 1116:0285   258 1116:0289
   254 1116:0294   261 1116:029e   262 1116:02a4     0 1116:02a9
   281 1116:02aa   284 1116:02ad   285 1116:02b6   287 1116:02bc
   288 1116:02c7   287 1116:02cc   289 1116:02d8   294 1116:02e0
     0 1116:02e3   322 1116:02e4   329 1116:02ea   331 1116:02f4
   332 1116:030e   333 1116:0317   341 1116:0322   343 1116:0344
   344 1116:034f   346 1116:0356   347 1116:0370   348 1116:037f
   349 1116:0386   350 1116:038f   352 1116:039a     0 1116:039d
   375 1116:039e   378 1116:03a6   379 1116:03b1   380 1116:03b6
   381 1116:03ba   383 1116:03cf     0 1116:03d5   406 1116:03d6
   407 1116:03dd   408 1116:03e3   409 1116:03e9   410 1116:03ed
   411 1116:03f3   413 1116:03f5   414 1116:03fa   417 1116:0405
   418 1116:0414   419 1116:0419   420 1116:041b   414 1116:041d
   423 1116:0427   425 1116:042c   426 1116:0433   427 1116:0437
   428 1116:0439   430 1116:043d   431 1116:0453   432 1116:046b
     0 1116:046f   453 1116:0470   454 1116:0471   455 1116:0474
   456 1116:047a   457 1116:0480   458 1116:0495     0 1116:0497
   483 1116:0498   486 1116:04a3   487 1116:04a9   488 1116:04b3
   489 1116:04be   492 1116:04d4   493 1116:04e3   494 1116:04e8
   495 1116:04ea   489 1116:04ec   499 1116:04f9   596 1116:04fc
   573 1116:0511   574 1116:0526   575 1116:0538   574 1116:0540
   573 1116:0548   531 1116:055c   532 1116:0566   533 1116:056e
   534 1116:0575   535 1116:0578   538 1116:057e   541 1116:0596
   538 1116:05a5   542 1116:05af   547 1116:05b3   548 1116:05c9
   549 1116:05ce   550 1116:05d4   551 1116:05ec   553 1116:05f2
   554 1116:05f8   555 1116:0610   561 1116:0615   563 1116:061f
   566 1116:0636   567 1116:063c   568 1116:0643   501 1116:0649
   502 1116:0653   503 1116:065b   504 1116:0662   505 1116:0666
   508 1116:066c   511 1116:0683   508 1116:0692   512 1116:069c
   516 1116:06a0   517 1116:06b6   577 1116:06c4   579 1116:06d5
   580 1116:06db   582 1116:06e1   583 1116:06e5   584 1116:06ef
   586 1116:06fc   587 1116:0700   588 1116:0706   589 1116:071d
   591 1116:0735   597 1116:073e   598 1116:0741     0 1116:0747
   623 1116:0748   625 1116:0753   630 1116:075b   636 1116:0777
   638 1116:0788   642 1116:078f   643 1116:07a4   644 1116:07a8
   645 1116:07ab   650 1116:07b3   636 1116:07cb   652 1116:07e1
   653 1116:07e7   655 1116:07ed   656 1116:07f1   657 1116:07fb
   659 1116:0808   660 1116:080c   661 1116:0810   662 1116:0825
   664 1116:083d   632 1116:0846   668 1116:0848     0 1116:084f
   693 1116:0850   698 1116:0858   699 1116:0887   700 1116:089a
   701 1116:08b4   703 1116:08c0   706 1116:08dc     0 1116:08e3
   733 1116:08e4   734 1116:08e8   737 1116:08ec   738 1116:0900
   739 1116:090d   740 1116:0911     0 1116:0915   765 1116:0916
   768 1116:091e   769 1116:093f   770 1116:0948   771 1116:095f
     0 1116:0965   794 1116:0966   795 1116:096d   798 1116:0971
   800 1116:098b   801 1116:0995   803 1116:09a7   804 1116:09ad
   805 1116:09bf     0 1116:09c3   827 1116:09c4   829 1116:09ce
   830 1116:09dd   831 1116:09e4   832 1116:09e8   833 1116:09f3
   834 1116:0a01   835 1116:0a05   837 1116:0a10     0 1116:0a15
   861 1116:0a16   868 1116:0a1e   869 1116:0a34   873 1116:0a3a
   882 1116:0a62   883 1116:0a6e   884 1116:0a7d   890 1116:0a82
   891 1116:0a96   892 1116:0ab2   894 1116:0ab8   897 1116:0ac3
   900 1116:0ad3   903 1116:0ae5   904 1116:0b07   905 1116:0b0c
   906 1116:0b0e   908 1116:0b14   911 1116:0b2a   912 1116:0b3d
   913 1116:0b47   915 1116:0b54   917 1116:0b5b   918 1116:0b60
   919 1116:0b72   920 1116:0b81   925 1116:0b93   926 1116:0b96
   927 1116:0bad   928 1116:0bb6   930 1116:0bb9   931 1116:0bbf
   932 1116:0bc6   936 1116:0bcc   937 1116:0bd0   939 1116:0be2
   940 1116:0bec   941 1116:0bfc   942 1116:0bff   944 1116:0c06
   946 1116:0c19   947 1116:0c22   948 1116:0c28   949 1116:0c2d
   950 1116:0c3d   951 1116:0c43   953 1116:0c53   955 1116:0c5c
   956 1116:0c69   957 1116:0c88   958 1116:0c8d   959 1116:0c96
   960 1116:0c9b   961 1116:0ca4   962 1116:0ca7   964 1116:0cbb
   968 1116:0cc5     0 1116:0ccb   993 1116:0ccc   994 1116:0cd4
   998 1116:0cde   999 1116:0d01  1000 1116:0d18  1002 1116:0d26
  1003 1116:0d2f  1008 1116:0d36  1009 1116:0d53  1010 1116:0d63
  1011 1116:0d6b  1012 1116:0d73  1014 1116:0d7b  1018 1116:0d7f
  1019 1116:0d88  1020 1116:0d8d  1021 1116:0d91  1028 1116:0da6
  1026 1116:0dad  1029 1116:0db0     0 1116:0db7  1051 1116:0db8
  1052 1116:0dba  1055 1116:0dc4  1059 1116:0dc8  1060 1116:0ddd
  1061 1116:0de5  1062 1116:0ded  1066 1116:0df5  1069 1116:0e10
  1070 1116:0e17  1073 1116:0e30  1077 1116:0e43  1080 1116:0e52
  1085 1116:0e67  1083 1116:0e6c  1086 1116:0e6f     0 1116:0e71

Line numbers for R:\MAX\lib\Lquilibr.lib(chkabort.c) segment CHKABORT_TEXT

    29 11fd:0002    31 11fd:000c    33 11fd:001f    35 11fd:0024
    37 11fd:0033    38 11fd:003c    41 11fd:0046    42 11fd:004b
    44 11fd:005a     0 11fd:005f

Line numbers for R:\MAX\lib\Lquilibr.lib(colors.c) segment COLORS_TEXT

    17 1203:0000    18 1203:0003    27 1203:000c    35 1203:0011
    36 1203:001c    37 1203:0021    45 1203:0029    46 1203:0037
    47 1203:003f    48 1203:004d    53 1203:0055    54 1203:005a
    57 1203:0068    59 1203:006d    67 1203:0072    71 1203:0077
    72 1203:007c    77 1203:0087    81 1203:008f    82 1203:00a3
    86 1203:00ab    88 1203:00bf    91 1203:00d3    93 1203:00f0
    94 1203:00fe   105 1203:0109   113 1203:0111   115 1203:0119
   157 1203:011e   170 1203:0126   175 1203:014c   176 1203:01ba
   178 1203:01da     0 1203:01db

Line numbers for R:\MAX\lib\Lquilibr.lib(criterr.c) segment CRITERR_TEXT

    33 1220:000c    44 1220:0014    45 1220:0024    47 1220:0029
    48 1220:002e    52 1220:0033    53 1220:0054    54 1220:005a
    55 1220:0063    56 1220:0065    58 1220:006e    59 1220:007e
    62 1220:0087    63 1220:0095    64 1220:009a    65 1220:00a5
    66 1220:00a8    68 1220:00aa    69 1220:00ac    72 1220:00b5
    73 1220:00cb    77 1220:00d7    78 1220:00ea    79 1220:00f8
    80 1220:00fb    86 1220:0101    87 1220:011c    88 1220:0125
    89 1220:0135    90 1220:013d    94 1220:0154    96 1220:015d
    97 1220:0165    99 1220:0177   102 1220:017c   103 1220:0185
   105 1220:0196   108 1220:019b   109 1220:01af   110 1220:01bc
   113 1220:01e8   114 1220:01eb   115 1220:01ef   116 1220:01f3
   119 1220:01f7   121 1220:0214   123 1220:0226   125 1220:0234
   126 1220:0246   128 1220:0259   129 1220:026b   131 1220:027e
   132 1220:0299   133 1220:02a2   140 1220:02aa   141 1220:02bb
   174 1220:02ca   175 1220:02cf   176 1220:02d6   178 1220:02e6
   181 1220:02eb   182 1220:02f4   184 1220:0305   185 1220:030a
   187 1220:0319   188 1220:031b     0 1220:0321

Line numbers for R:\MAX\lib\Lquilibr.lib(datestr.c) segment DATESTR_TEXT

    25 1252:0002    32 1252:0010    40 1252:0021    41 1252:003b
    42 1252:005b    43 1252:0087    45 1252:0095    46 1252:009a
     0 1252:009f    50 1252:00a0    58 1252:00ab    59 1252:00b0
    60 1252:00b3    62 1252:00b7    63 1252:00bd    67 1252:00c5
    69 1252:00e0    70 1252:00fa    71 1252:011b    72 1252:0125
    73 1252:0129     0 1252:012f    77 1252:0130    81 1252:0135
    83 1252:013b    84 1252:014a    88 1252:0158    89 1252:0167
    90 1252:016e    91 1252:0172    92 1252:017d    96 1252:017f
     0 1252:0185   112 1252:0186   115 1252:018e   116 1252:01a1
   124 1252:01aa   133 1252:01b3   136 1252:01e6   140 1252:020c
   129 1252:0211   131 1252:0250   140 1252:0252   141 1252:0255
   143 1252:025c   144 1252:0262   151 1252:027a   155 1252:02c7
     0 1252:02cd

Line numbers for R:\MAX\lib\Lquilibr.lib(DMALLOC.asm) segment DMALLOC_TEXT

    45 127e:000e    64 127e:000e    65 127e:000f    67 127e:0011
    68 127e:0014    70 127e:0015    71 127e:0019    73 127e:001b
    74 127e:001d    75 127e:0020    77 127e:0022    78 127e:0024
    84 127e:0026    85 127e:0029    87 127e:002b    89 127e:002c
    90 127e:002e    91 127e:0030    92 127e:0034    93 127e:0035
    95 127e:0038    97 127e:0039   100 127e:003b   101 127e:003f
   104 127e:0041   105 127e:0043   106 127e:0045   109 127e:0047
   112 127e:004c   114 127e:004d   116 127e:004e   122 127e:004f
   141 127e:004f   142 127e:0050   144 127e:0052   145 127e:0055
   146 127e:0057   148 127e:0059   149 127e:005c   150 127e:005f
   151 127e:0061   152 127e:0063   153 127e:0066   155 127e:0069
   156 127e:006c   158 127e:006e   159 127e:0070   160 127e:0072
   161 127e:0073   162 127e:0077   163 127e:0078   164 127e:007b
   167 127e:007d   169 127e:0081   170 127e:0084   171 127e:0086
   173 127e:0088   174 127e:008a   177 127e:008c   178 127e:008f
   179 127e:0092   180 127e:0095   183 127e:009a   185 127e:009b
   191 127e:009c   211 127e:009c   212 127e:009d   214 127e:009f
   215 127e:00a2   216 127e:00a4   218 127e:00a6   219 127e:00a9
   221 127e:00ab   222 127e:00ad   223 127e:00af   224 127e:00b3
   225 127e:00b6   228 127e:00b8   229 127e:00bc   232 127e:00be
   233 127e:00c1   234 127e:00c4   235 127e:00c9   238 127e:00cc
   240 127e:00cd   246 127e:00ce   256 127e:00ce   258 127e:00d3
   259 127e:00d6   260 127e:00da   262 127e:00dc   263 127e:00df
   264 127e:00e1   265 127e:00e3   267 127e:00e5   268 127e:00e8
   271 127e:00ea   272 127e:00ec   273 127e:00ee   276 127e:00f0
   277 127e:00f4   280 127e:00f8   283 127e:00fa   285 127e:00fb
   287 127e:0100

Line numbers for R:\MAX\lib\Lquilibr.lib(error.c) segment ERROR_TEXT

    52 128e:0002    59 128e:000a    69 128e:0010    70 128e:0015
    73 128e:001a    75 128e:0028    76 128e:002f    77 128e:0046
    80 128e:0049    81 128e:005b    85 128e:0063    86 128e:0073
    87 128e:0081    88 128e:0084    94 128e:0089    95 128e:00a6
    96 128e:00af    97 128e:00bf    98 128e:00c7   103 128e:00dd
   116 128e:00ed   117 128e:0100   118 128e:010d   121 128e:0139
   122 128e:013c   124 128e:0140   127 128e:0144   128 128e:0148
   130 128e:0165   131 128e:0176   132 128e:0180   133 128e:0193
   134 128e:0195   135 128e:01a8   136 128e:01ba   138 128e:01cd
   139 128e:01e5   140 128e:01f5   143 128e:01fd   146 128e:01ff
   155 128e:020e   151 128e:0218   152 128e:0227   145 128e:023c
   156 128e:0242   161 128e:0257   162 128e:025c   163 128e:0263
   164 128e:0273   168 128e:0278   169 128e:0281   171 128e:0292
     0 128e:0297

Line numbers for R:\MAX\lib\Lquilibr.lib(exename.c) segment EXENAME_TEXT

    20 12b7:0008    21 12b7:000e    25 12b7:001e    23 12b7:0028
    26 12b7:0035    27 12b7:003c     0 12b7:003d    31 12b7:003e
     0 12b7:0045    35 12b7:0046    40 12b7:004e    41 12b7:0069
    44 12b7:006b    48 12b7:008a    49 12b7:009e    50 12b7:00a5
    51 12b7:00ba    53 12b7:00bc    54 12b7:00c3     0 12b7:00c9

Line numbers for R:\MAX\lib\Lquilibr.lib(filename.c) segment FILENAME_TEXT

    50 12c3:000a    51 12c3:0013    61 12c3:0018    62 12c3:0026
    63 12c3:0034    64 12c3:0039    66 12c3:003e    67 12c3:0047
    71 12c3:004c    75 12c3:0067    76 12c3:007b    77 12c3:0088
    82 12c3:00a6    83 12c3:00c7    86 12c3:00d3    88 12c3:00f2
    90 12c3:00fb    93 12c3:010f    95 12c3:013a    98 12c3:014e
   100 12c3:015a   101 12c3:016f   102 12c3:017f   106 12c3:0187
   107 12c3:019c   109 12c3:01a5   110 12c3:01a9   115 12c3:01bc
   113 12c3:01c6   114 12c3:01d7   119 12c3:01d9   130 12c3:01e8
   131 12c3:0209   149 12c3:021b   150 12c3:0222   151 12c3:0241
   152 12c3:0244   135 12c3:024e   136 12c3:0263   121 12c3:026b
   122 12c3:027a   143 12c3:027d   156 12c3:0296   157 12c3:029d
   159 12c3:02bc   160 12c3:02cb   167 12c3:02d4   168 12c3:02d9
   169 12c3:02eb   171 12c3:02f0   172 12c3:02f7   173 12c3:030b
   175 12c3:030e     0 12c3:0313

Line numbers for R:\MAX\lib\Lquilibr.lib(fldedit.c) segment FLDEDIT_TEXT

    73 12f4:0004    74 12f4:000f    76 12f4:0022    77 12f4:0028
    78 12f4:0044    79 12f4:004c    82 12f4:0052    83 12f4:0066
    84 12f4:006c    86 12f4:007a    88 12f4:008d    89 12f4:009e
    90 12f4:00ad    91 12f4:00b2    92 12f4:00c4    93 12f4:00d3
    94 12f4:00e5    95 12f4:00ec    98 12f4:00f1    99 12f4:00fb
   100 12f4:0102   101 12f4:0109   102 12f4:0117   105 12f4:0128
   106 12f4:0134   107 12f4:0138   110 12f4:013c   112 12f4:014d
   113 12f4:014f     0 12f4:0155   135 12f4:0156   136 12f4:0160
   137 12f4:0175   138 12f4:0187   139 12f4:0189     0 12f4:018d
   158 12f4:018e   159 12f4:0195   160 12f4:01a9     0 12f4:01ad
   186 12f4:01ae   189 12f4:01b6   190 12f4:01d8   192 12f4:01ed
   193 12f4:01f3   197 12f4:020a   200 12f4:0214   203 12f4:0231
   204 12f4:0237   207 12f4:024a   208 12f4:0252   210 12f4:0255
   211 12f4:0266   213 12f4:0279   214 12f4:0285   215 12f4:0288
   216 12f4:0291   217 12f4:02a2   222 12f4:02b2   229 12f4:02d9
   230 12f4:02e3   231 12f4:02e9   232 12f4:02ed   233 12f4:02ef
   234 12f4:02f5   238 12f4:02f9   239 12f4:0306   240 12f4:030b
   242 12f4:031a   243 12f4:0325   245 12f4:0331   246 12f4:0339
   247 12f4:0340   249 12f4:0345   251 12f4:0356     0 12f4:035b
   274 12f4:035c   277 12f4:036a   278 12f4:0373   283 12f4:037d
   285 12f4:03a0   300 12f4:03a7   286 12f4:03b4   288 12f4:03b6
   289 12f4:03c8   290 12f4:03de   291 12f4:03ee   293 12f4:0401
   294 12f4:0403   295 12f4:0405   296 12f4:0417   297 12f4:042d
   298 12f4:0440   301 12f4:0450   303 12f4:0454   304 12f4:0459
     0 12f4:045f   329 12f4:0460   330 12f4:046b   331 12f4:0481
   332 12f4:048a   334 12f4:048f   335 12f4:049b   338 12f4:04a0
   515 12f4:04a3   465 12f4:04f9   467 12f4:0502   468 12f4:050a
   469 12f4:0511   470 12f4:051e   473 12f4:0533   474 12f4:053c
   475 12f4:0540   476 12f4:0550   478 12f4:0557   480 12f4:055e
   482 12f4:056a   483 12f4:0572   484 12f4:0577   487 12f4:0583
   488 12f4:0588   489 12f4:059c   490 12f4:05ab   492 12f4:05b9
   493 12f4:05c5   494 12f4:05cc   495 12f4:05dd   496 12f4:05e4
   501 12f4:05e9   502 12f4:05ee   503 12f4:05f2   504 12f4:05f7
   505 12f4:0601   506 12f4:0605   507 12f4:0616   508 12f4:061a
   509 12f4:061f   512 12f4:0624   514 12f4:0627   444 12f4:062d
   445 12f4:0634   446 12f4:0641   447 12f4:064f   451 12f4:0658
   452 12f4:065c   454 12f4:0675   457 12f4:0690   458 12f4:069d
   459 12f4:06a1   460 12f4:06a6   340 12f4:06a9   341 12f4:06b7
   343 12f4:06d4   344 12f4:06f0   345 12f4:06f5   347 12f4:06fb
   348 12f4:0700   351 12f4:0712   352 12f4:0718   353 12f4:071f
   354 12f4:072f   355 12f4:0738   358 12f4:0743   359 12f4:0750
   362 12f4:0758   382 12f4:0774   383 12f4:077a   384 12f4:0781
   385 12f4:0791   387 12f4:079a   388 12f4:07a5   391 12f4:07aa
   392 12f4:07b1   393 12f4:07b5   400 12f4:07c5   401 12f4:07cb
   402 12f4:07d2   403 12f4:07e2   405 12f4:07eb   406 12f4:07f6
   409 12f4:07fb   410 12f4:0804   411 12f4:0808   412 12f4:0816
   366 12f4:0820   367 12f4:0826   368 12f4:082d   369 12f4:083d
   370 12f4:0846   372 12f4:0851   373 12f4:0857   374 12f4:085e
   378 12f4:0864   418 12f4:087e   419 12f4:0884   425 12f4:088d
   433 12f4:08b4   434 12f4:08bb   435 12f4:08c8   436 12f4:08d6
   438 12f4:08f5   439 12f4:0910   429 12f4:0913   517 12f4:0921
   518 12f4:0927   520 12f4:0937   521 12f4:095b   522 12f4:095d
     0 12f4:0963   543 12f4:0964   547 12f4:096f   549 12f4:0979
   550 12f4:0983   551 12f4:0985   553 12f4:098b   554 12f4:098f
   557 12f4:0992   559 12f4:09bd   560 12f4:09c9   562 12f4:09e6
   563 12f4:09ec   564 12f4:0a0a   565 12f4:0a11   571 12f4:0a16
   572 12f4:0a1c   573 12f4:0a21   575 12f4:0a2f     0 12f4:0a35
   579 12f4:0a36   580 12f4:0a41   583 12f4:0a57   584 12f4:0a63
   585 12f4:0a69   587 12f4:0a6d   590 12f4:0a71   591 12f4:0a93
   592 12f4:0ab2   594 12f4:0ac0     0 12f4:0ac5

Line numbers for R:\MAX\lib\Lquilibr.lib(helpback.c) segment HELPBACK_TEXT

    55 13a0:0006    60 13a0:000c    61 13a0:001f    63 13a0:0040
     0 13a0:0045    80 13a0:0046    81 13a0:0049    82 13a0:0052
     0 13a0:0057   110 13a0:0058   114 13a0:005f   115 13a0:0067
   117 13a0:007b   118 13a0:007e   120 13a0:009f   122 13a0:00bf
     0 13a0:00c5   140 13a0:00c6   143 13a0:00ca   144 13a0:00d1
   145 13a0:00e5   149 13a0:00eb   150 13a0:00f0   151 13a0:0103
   152 13a0:011a   154 13a0:0122   156 13a0:012c   160 13a0:0131
   161 13a0:013b   162 13a0:013d     0 13a0:0143   166 13a0:0144
   167 13a0:014b   169 13a0:0156   171 13a0:015c   173 13a0:0166
   167 13a0:0176   174 13a0:0179     0 13a0:017f   180 13a0:0180
     0 13a0:0183   184 13a0:0184   185 13a0:018e   186 13a0:0198
   187 13a0:01ac   188 13a0:01b9   191 13a0:01c3     0 13a0:01c9
   194 13a0:01ca   199 13a0:01d4   200 13a0:01db   201 13a0:01e8
   198 13a0:01ef   206 13a0:01f8     0 13a0:01fd   212 13a0:01fe
   216 13a0:0204   217 13a0:0206   218 13a0:0209   219 13a0:020c
   220 13a0:020f   221 13a0:0212   222 13a0:0214   223 13a0:0217
   225 13a0:021a   226 13a0:0220     0 13a0:0223

Line numbers for R:\MAX\lib\Lquilibr.lib(input.c) segment INPUT_TEXT

    56 13c2:0004    60 13c2:000e    61 13c2:001b    62 13c2:0028
    63 13c2:002f    64 13c2:0038    66 13c2:003f     0 13c2:0043
    70 13c2:0044     0 13c2:0049    77 13c2:004a    84 13c2:0055
    85 13c2:005e    86 13c2:0063    87 13c2:006f    90 13c2:007a
    92 13c2:008b    94 13c2:009c    95 13c2:00ad   101 13c2:00c7
    96 13c2:00db    97 13c2:00e4    98 13c2:00ea   102 13c2:00ed
   103 13c2:00f9   104 13c2:00fb     0 13c2:0101   108 13c2:0102
   110 13c2:0105   111 13c2:0114   112 13c2:011b     0 13c2:011f
   117 13c2:0120   122 13c2:012b   124 13c2:014e   125 13c2:015b
   127 13c2:0162   128 13c2:0168   130 13c2:016f   131 13c2:017a
   132 13c2:0190   133 13c2:0199   135 13c2:01a1   136 13c2:01a3
   137 13c2:01ac   140 13c2:01b9   142 13c2:01bb   145 13c2:01c1
   146 13c2:01c7   148 13c2:01d1   149 13c2:01dc   150 13c2:01f2
   151 13c2:01fb   153 13c2:0203   154 13c2:0205   155 13c2:020e
   158 13c2:021b   160 13c2:021d   163 13c2:0223   164 13c2:0229
   166 13c2:0233   167 13c2:023e   168 13c2:0254   169 13c2:025d
   171 13c2:0265   172 13c2:0267   173 13c2:0270   176 13c2:027d
   178 13c2:027f   182 13c2:0285   183 13c2:028f   184 13c2:0296
   185 13c2:029d   187 13c2:02a5   188 13c2:02a7   190 13c2:02c0
   191 13c2:02c7   193 13c2:02cd   194 13c2:02d4   196 13c2:02da
   197 13c2:02e1   199 13c2:02e7   200 13c2:02ee   201 13c2:02f5
   203 13c2:02f8   204 13c2:02fc   205 13c2:02fe     0 13c2:0303
   210 13c2:0304   219 13c2:030c   221 13c2:031b   222 13c2:0323
   224 13c2:032d   225 13c2:0333   226 13c2:0337   228 13c2:033d
   229 13c2:0341   230 13c2:0347   243 13c2:034b   234 13c2:034f
   235 13c2:0355   236 13c2:0359   237 13c2:0362   238 13c2:036a
   239 13c2:036e   242 13c2:0373   245 13c2:0379   247 13c2:037d
   248 13c2:0387   249 13c2:0395   250 13c2:03a4   255 13c2:03af
   256 13c2:03b8   258 13c2:03bf   260 13c2:03c5     0 13c2:03cb

Line numbers for R:\MAX\lib\Lquilibr.lib(INST2324.asm) segment INST2324_TEXT

   232 13fe:001e   236 13fe:0023   237 13fe:0025   240 13fe:0029
   241 13fe:002e   243 13fe:0033   244 13fe:0035   247 13fe:0039
   248 13fe:003e   250 13fe:0043   251 13fe:0045   254 13fe:0049
   255 13fe:004e   257 13fe:0053   258 13fe:0055   261 13fe:0059
   262 13fe:005e   264 13fe:0063   268 13fe:0069   269 13fe:006a
   272 13fe:006b   273 13fe:006d   275 13fe:0075   276 13fe:0077
   278 13fe:007f   279 13fe:0081   281 13fe:0089   282 13fe:008b
   284 13fe:0093   287 13fe:0098   301 13fe:0099   305 13fe:009e
   306 13fe:009f   309 13fe:00a0   310 13fe:00a2   311 13fe:00a7
   313 13fe:00ab   314 13fe:00ad   315 13fe:00b2   317 13fe:00b6
   318 13fe:00b8   319 13fe:00bd   321 13fe:00c1   322 13fe:00c3
   323 13fe:00c8   325 13fe:00cc   328 13fe:00d1   342 13fe:00d2
   344 13fe:00d4   346 13fe:00da   348 13fe:00dc   362 13fe:00dd
   364 13fe:00df   366 13fe:00e5   368 13fe:00e7   382 13fe:00e8
   384 13fe:00f0   389 13fe:00f5   391 13fe:00fb   392 13fe:0100
   395 13fe:0102   399 13fe:011b   400 13fe:0121   401 13fe:0126
   403 13fe:012c   405 13fe:012f   409 13fe:0139   412 13fe:0141
   414 13fe:0143   415 13fe:0144   418 13fe:0145   450 13fe:0146
   451 13fe:0147   453 13fe:0149   455 13fe:0150   456 13fe:0151
   458 13fe:0152   461 13fe:0157   464 13fe:015c   465 13fe:015f
   466 13fe:0163   467 13fe:0166   469 13fe:016a   472 13fe:0170
   474 13fe:0189   475 13fe:018d   477 13fe:018f   478 13fe:0192
   480 13fe:0194   482 13fe:0197   484 13fe:019b   486 13fe:019f
   487 13fe:01a2   488 13fe:01a3   490 13fe:01a5   492 13fe:01aa
   494 13fe:01ab   497 13fe:01af   498 13fe:01b4   500 13fe:01b6
   501 13fe:01b9   503 13fe:01bc   505 13fe:01be   508 13fe:01bf
   509 13fe:01c2   514 13fe:01c4   517 13fe:01c5   518 13fe:01c9
   519 13fe:01cc   520 13fe:01ce   521 13fe:01d1   522 13fe:01d3
   523 13fe:01d4   527 13fe:01d7   528 13fe:01d9   529 13fe:01da
   530 13fe:01dc   531 13fe:01dd   532 13fe:01df   538 13fe:01e0
   539 13fe:01e1   541 13fe:01e3   542 13fe:01e6   544 13fe:01e7
   545 13fe:01eb   547 13fe:01ec   549 13fe:01ed   550 13fe:01f0
   551 13fe:01f2   553 13fe:01f4   558 13fe:01f9   559 13fe:01fb
   565 13fe:01fc   566 13fe:01fe   568 13fe:0200   569 13fe:0202
   571 13fe:0204   572 13fe:0206   574 13fe:0208   577 13fe:020c
   578 13fe:020d   580 13fe:020f   581 13fe:0212   583 13fe:0213
   585 13fe:0218   586 13fe:021a   588 13fe:021b   590 13fe:021d
   593 13fe:021f   595 13fe:0221   598 13fe:0223   600 13fe:0225
   603 13fe:0227   605 13fe:0229   607 13fe:0233   609 13fe:0239
   612 13fe:0240   614 13fe:0241   629 13fe:0242   630 13fe:0248
   645 13fe:0249   646 13fe:024f   662 13fe:0250   664 13fe:0252
   669 13fe:0257   670 13fe:025d   672 13fe:025f   674 13fe:0265
   675 13fe:0266   678 13fe:026b   681 13fe:026d   694 13fe:026e
   696 13fe:026f   701 13fe:0274   702 13fe:027a   705 13fe:027c
   708 13fe:027d   711 13fe:0282   714 13fe:0283   739 13fe:0284
   740 13fe:0285   742 13fe:0287   743 13fe:028a   745 13fe:028d
   747 13fe:028e

Line numbers for R:\MAX\lib\Lquilibr.lib(INT9HOOK.asm) segment INT9HOOK_TEXT

    22 1427:0000    23 1427:0000    24 1427:0003    25 1427:0005
    26 1427:0009    28 1427:000d    29 1427:000e    30 1427:0011
    31 1427:0012    32 1427:0013    33 1427:0016    34 1427:0017
    35 1427:0019    36 1427:001a    37 1427:001b    40 1427:001c
    41 1427:001d    42 1427:001e    43 1427:001f    44 1427:0022
    45 1427:0024    46 1427:0026    47 1427:0029    48 1427:002d
    49 1427:002f    50 1427:0033    51 1427:0038    52 1427:0039
    53 1427:003d    54 1427:003e    55 1427:003f    56 1427:0040
    60 1427:0041    61 1427:0041    62 1427:0042    63 1427:0046
    64 1427:0049    65 1427:004a    66 1427:004c    67 1427:004d
    68 1427:004e    71 1427:004f    72 1427:004f    73 1427:0052
    74 1427:0055    75 1427:0057    76 1427:005b    77 1427:005e
    78 1427:0060    79 1427:0062    80 1427:0066    81 1427:006b
    83 1427:006d

Line numbers for R:\MAX\lib\Lquilibr.lib(intmsg.c) segment INTMSG_TEXT

    57 142d:000e    60 142d:0015    61 142d:001e    62 142d:0022
    63 142d:0024    66 142d:002a    74 142d:0038    75 142d:003e
    77 142d:0044    78 142d:006a    79 142d:007b    81 142d:008c
    82 142d:0096    83 142d:009f    86 142d:00a9    87 142d:00b1
    88 142d:00bb    89 142d:00d3     0 142d:00d7    96 142d:00d8
     0 142d:00d9   103 142d:00da   104 142d:00e3   106 142d:00f8
     0 142d:00f9   112 142d:00fa   113 142d:0111   114 142d:011a
   115 142d:012a   117 142d:0132   118 142d:013b   119 142d:014b
     0 142d:0153   126 142d:0154   127 142d:015a   128 142d:0161
   129 142d:016a   130 142d:016e     0 142d:016f   135 142d:0170
   143 142d:0178   145 142d:0181   146 142d:0188   147 142d:0198
   150 142d:019b   154 142d:01b3   155 142d:01d3   158 142d:01dd
   161 142d:01ff   163 142d:0211   166 142d:0222   172 142d:0242
   173 142d:0298   163 142d:02ad   175 142d:02c0   176 142d:02c7
   177 142d:02d1   178 142d:02d7   184 142d:02df   186 142d:02f4
   189 142d:02fe   190 142d:0311   191 142d:0323   192 142d:0332
   193 142d:0338   194 142d:034f   196 142d:0357   197 142d:036c
   198 142d:0373   202 142d:0380   203 142d:038e   207 142d:03a4
   211 142d:03b9   213 142d:03be   214 142d:03d6   216 142d:03db
     0 142d:03e1   223 142d:03e2   229 142d:03ed   230 142d:03f5
   231 142d:03fb   232 142d:041a   235 142d:0426   236 142d:042f
   237 142d:0432   256 142d:043b   257 142d:044e   259 142d:045f
   260 142d:0487   262 142d:0493   264 142d:04b5   265 142d:04ba
   266 142d:04be   238 142d:04c1   239 142d:04ca   240 142d:04d5
   242 142d:04e4   243 142d:04f0   244 142d:050b   246 142d:0511
   247 142d:0518   248 142d:0536   249 142d:053d   252 142d:0547
   253 142d:054f   255 142d:0555   268 142d:0557   269 142d:055a
   270 142d:0571   271 142d:057e   272 142d:0588   281 142d:0594
   283 142d:059e   284 142d:05aa     0 142d:05af   289 142d:05b0
   294 142d:05bb   295 142d:05c5   297 142d:05d5   302 142d:05e4
   303 142d:05f2   304 142d:05fb   305 142d:0621   306 142d:0632
   310 142d:0649   313 142d:064b   314 142d:0678   316 142d:069f
     0 142d:06a5

Line numbers for R:\MAX\lib\Lquilibr.lib(juststr.c) segment JUSTSTR_TEXT

    55 1497:0006    56 1497:0011    59 1497:0021    60 1497:002a
    61 1497:002f    63 1497:0032    73 1497:0035    65 1497:0041
    68 1497:0047    71 1497:0058    76 1497:0065    78 1497:007c
    79 1497:0082    80 1497:0088    81 1497:008d    84 1497:009f
     0 1497:00a5

Line numbers for R:\MAX\lib\Lquilibr.lib(keybid.c) segment KEYBID_TEXT

    28 1497:00a6    34 1497:00ae    37 1497:00b8    40 1497:00b9
    43 1497:00d9    46 1497:00e5    48 1497:00ea    49 1497:00ed
    50 1497:00f0    51 1497:00f2    52 1497:00f4    53 1497:00f6
    55 1497:00f8    56 1497:00f9    57 1497:00fc    58 1497:00fe
    59 1497:0101    60 1497:0103    62 1497:010b    64 1497:010c
    66 1497:0112    68 1497:011d    73 1497:0121    75 1497:013d
    77 1497:0140     0 1497:0147

Line numbers for R:\MAX\lib\Lquilibr.lib(keyboard.c) segment KEYBOARD_TEXT

    39 14ab:0008    45 14ab:000e    53 14ab:0014    55 14ab:0028
    56 14ab:002f    65 14ab:0034    66 14ab:0037    67 14ab:003b
    68 14ab:003d    70 14ab:003f    71 14ab:0042    72 14ab:0044
    77 14ab:0047    78 14ab:0058     0 14ab:005b    84 14ab:005c
    86 14ab:0068     0 14ab:0069    89 14ab:006a    92 14ab:006e
    93 14ab:0078    94 14ab:0087    96 14ab:008f     0 14ab:0093
   100 14ab:0094   101 14ab:009a   113 14ab:00a2   115 14ab:00a7
   116 14ab:00a9   118 14ab:00ab   121 14ab:00b0   122 14ab:00b3
   123 14ab:00b7   124 14ab:00b9   125 14ab:00bc   127 14ab:00be
   128 14ab:00c1   129 14ab:00c3   131 14ab:00c6   132 14ab:00c9
   133 14ab:00cd   134 14ab:00cf   135 14ab:00d4   136 14ab:00d6
   138 14ab:00d8   140 14ab:00db   142 14ab:00e1   144 14ab:00e8
   146 14ab:00f6   148 14ab:00fc   149 14ab:0102     0 14ab:0105
   154 14ab:0106   155 14ab:0108   161 14ab:010a   232 14ab:0118
   224 14ab:01a7   225 14ab:01b4   179 14ab:01b7   180 14ab:01bc
   167 14ab:01bf   168 14ab:01c4   173 14ab:01c7   174 14ab:01cc
   185 14ab:01ce   186 14ab:01d3   203 14ab:01d5   204 14ab:01da
   197 14ab:01dc   198 14ab:01e1   191 14ab:01e3   192 14ab:01e8
   210 14ab:01ea   211 14ab:01f4   213 14ab:01f6   214 14ab:0200
   227 14ab:0202   228 14ab:020c   230 14ab:020e   231 14ab:0218
   182 14ab:021a   183 14ab:021f   170 14ab:0221   171 14ab:0226
   176 14ab:0228   177 14ab:022d   188 14ab:022f   189 14ab:0234
   206 14ab:0236   207 14ab:023b   200 14ab:023d   201 14ab:0242
   194 14ab:0244   233 14ab:0249   235 14ab:0250   236 14ab:0256
     0 14ab:0259   240 14ab:025a   261 14ab:025e   262 14ab:0266
   263 14ab:0275   264 14ab:027c   265 14ab:027e     0 14ab:0283

Line numbers for R:\MAX\lib\Lquilibr.lib(logo.c) segment LOGO_TEXT

    56 14d3:0004    64 14d3:0010    66 14d3:001e    67 14d3:0038
    68 14d3:0049    72 14d3:0052    74 14d3:0066    78 14d3:0072
    79 14d3:0091    87 14d3:0096    88 14d3:00a8    92 14d3:00bb
   101 14d3:00ff    75 14d3:0112    72 14d3:0116   103 14d3:0162
   104 14d3:0167   113 14d3:0171   115 14d3:017c   116 14d3:018e
   117 14d3:01a0   118 14d3:01a5   119 14d3:01aa   122 14d3:01bb
   123 14d3:01c1   124 14d3:01c8   125 14d3:01d1   126 14d3:01e6
   127 14d3:01f1   128 14d3:0208   129 14d3:0212   130 14d3:022a
   131 14d3:0231   134 14d3:024a   136 14d3:025a   135 14d3:0270
   138 14d3:027a   141 14d3:027f   142 14d3:029d   144 14d3:02bc
   149 14d3:02c7   151 14d3:02db   152 14d3:02ee   153 14d3:02fc
   154 14d3:0314   155 14d3:032c   171 14d3:0339   172 14d3:0343
   157 14d3:034d   158 14d3:035a   159 14d3:0373   160 14d3:0381
   162 14d3:038b   164 14d3:0390   165 14d3:0397   166 14d3:039f
   167 14d3:03a9   168 14d3:03b5   175 14d3:03bf   176 14d3:03c6
   178 14d3:03e3   181 14d3:03ee   182 14d3:03fd   183 14d3:0415
   184 14d3:042d   185 14d3:0440   188 14d3:0456   192 14d3:0472
   193 14d3:0491   194 14d3:04a9   193 14d3:04c1   197 14d3:04d1
   199 14d3:04ea   200 14d3:04f6   204 14d3:051e   205 14d3:0525
     0 14d3:052d   208 14d3:052e   214 14d3:0536   215 14d3:0551
   217 14d3:0567   218 14d3:057a   219 14d3:0580   220 14d3:0585
   221 14d3:0598   223 14d3:059e   224 14d3:05b5     0 14d3:05bb
   244 14d3:05bc   246 14d3:05c3   247 14d3:05cb   248 14d3:05d1
   253 14d3:05d7   255 14d3:05da   256 14d3:05e4   257 14d3:05ee
   259 14d3:05fb   260 14d3:0601   262 14d3:0614   265 14d3:0622
   266 14d3:0628   268 14d3:062c   269 14d3:062f   270 14d3:0632
   273 14d3:0634   274 14d3:0636   276 14d3:063a   277 14d3:063d
   278 14d3:0640   281 14d3:0642   282 14d3:0650   283 14d3:065e
   287 14d3:0661   289 14d3:066e   292 14d3:0679   294 14d3:0693
   296 14d3:06b2   299 14d3:06b8   300 14d3:06ca   301 14d3:06ec
   306 14d3:070b   307 14d3:0722   310 14d3:073c   311 14d3:0759
   314 14d3:077f   315 14d3:0783   317 14d3:078f   318 14d3:0792
   319 14d3:0795   320 14d3:0798   321 14d3:079b   322 14d3:079e
   323 14d3:079f   324 14d3:07a1   325 14d3:07a3   329 14d3:07a4
   330 14d3:07a9   331 14d3:07cc   335 14d3:07d5   336 14d3:07e4
   337 14d3:07fa   338 14d3:0810     0 14d3:0815   343 14d3:0816
   347 14d3:0819   348 14d3:081f   350 14d3:0825   351 14d3:0828
   353 14d3:082a   355 14d3:082f   358 14d3:0833   361 14d3:0839
   362 14d3:083b   363 14d3:083d   364 14d3:083f   367 14d3:0842
   368 14d3:084e   370 14d3:0856   371 14d3:085c   373 14d3:0860
   374 14d3:0862   375 14d3:0864   376 14d3:0866   378 14d3:0868
   379 14d3:086b   380 14d3:086d   384 14d3:086f   385 14d3:0871
   386 14d3:0877   388 14d3:087b   389 14d3:087d   401 14d3:0881
     0 14d3:0885   407 14d3:0886   416 14d3:088c   418 14d3:08a0
   419 14d3:08a7   420 14d3:08b9   421 14d3:08c5   422 14d3:08d0
     0 14d3:08d3   427 14d3:08d4   430 14d3:08d7   431 14d3:08da
   432 14d3:08dc   433 14d3:08e1   435 14d3:08e4   436 14d3:08e5
   437 14d3:08e7   440 14d3:08e9   441 14d3:08ea   442 14d3:08ec
   445 14d3:08ee     0 14d3:08f1

Line numbers for R:\MAX\lib\Lquilibr.lib(menu.c) segment MENU_TEXT

    73 1562:0002    79 1562:000d    81 1562:001a    82 1562:003b
    83 1562:0048    85 1562:004e    88 1562:0062    99 1562:0069
    90 1562:0072    91 1562:007f    93 1562:0081    95 1562:0094
    96 1562:00b4    97 1562:00b7    99 1562:00bd   104 1562:00c0
   105 1562:00d6   106 1562:00db   108 1562:00de   112 1562:00e9
   114 1562:011a   115 1562:0123   116 1562:0125     0 1562:012b
   140 1562:012c   141 1562:013a   143 1562:0150   148 1562:0154
   151 1562:015d   154 1562:0166   169 1562:0168   156 1562:0173
   157 1562:0179   163 1562:017b   166 1562:0184   167 1562:019d
   172 1562:01a2   190 1562:01a9   174 1562:01b2   175 1562:01bf
   176 1562:01c6   181 1562:01cc   184 1562:01e7   187 1562:0209
   188 1562:0217   193 1562:0224   194 1562:0229   195 1562:023f
   196 1562:0242   198 1562:0248   225 1562:024f   208 1562:025b
   209 1562:0261   210 1562:0270   211 1562:0275   212 1562:0279
   214 1562:027d   216 1562:0293   217 1562:02a2   218 1562:02a5
   219 1562:02ad   220 1562:02b2   221 1562:02c4   223 1562:02c7
   200 1562:02c9   201 1562:02dc   204 1562:02de   227 1562:02fa
   228 1562:0300   229 1562:0305   231 1562:031b     0 1562:0321
   252 1562:0322   256 1562:032d   262 1562:0337   263 1562:034c
   264 1562:0359   262 1562:0368   267 1562:037d   268 1562:0387
   270 1562:03a6   271 1562:03af     0 1562:03b5   298 1562:03b6
   303 1562:03be   304 1562:03d3   306 1562:03d9   311 1562:03e6
   313 1562:03f4   316 1562:03fe   317 1562:041b   318 1562:0425
   320 1562:0428   321 1562:0439   323 1562:043f   327 1562:045c
   311 1562:047d   328 1562:0493   329 1562:049c   338 1562:04a3
   336 1562:04b2   331 1562:04b4   333 1562:04b9   335 1562:04be
   342 1562:04c3   345 1562:04c6     0 1562:04cd   370 1562:04ce
   372 1562:04d6   373 1562:04dc   391 1562:04de   403 1562:050b
   404 1562:0522   382 1562:0527   375 1562:052c   377 1562:0531
   379 1562:0536   384 1562:053b   386 1562:0540   388 1562:0545
   390 1562:054a   393 1562:054f   398 1562:0551   397 1562:055b
   405 1562:0560   407 1562:0576     0 1562:057d   433 1562:057e
   435 1562:0588   438 1562:0592   439 1562:05a1   440 1562:05ab
   441 1562:05b8   440 1562:05bd   438 1562:05c8   442 1562:05d8
   443 1562:05e1   448 1562:05e6   449 1562:05e9     0 1562:05ed
   477 1562:05ee   482 1562:05f6   485 1562:05fb   492 1562:0600
   497 1562:0619   498 1562:0626   499 1562:0635   502 1562:0649
   493 1562:0663   494 1562:066d   495 1562:0679   496 1562:067e
   504 1562:0680   505 1562:0686   511 1562:0697   512 1562:06ad
   519 1562:06c0   521 1562:06c6   522 1562:06d0   526 1562:06d7
   527 1562:06eb   530 1562:06fc   532 1562:071d   533 1562:0726
   536 1562:0729   537 1562:0732   539 1562:0735   540 1562:073b
   543 1562:0740   544 1562:0745   548 1562:076d   549 1562:077c
   552 1562:0786   553 1562:07a4   554 1562:07c2   556 1562:07e0
   560 1562:07e5   561 1562:080c   562 1562:0812   567 1562:082a
   568 1562:0867   570 1562:086f   571 1562:0878   572 1562:0892
   574 1562:08a0   581 1562:08ce   582 1562:08d3   586 1562:08e0
   593 1562:08f2   594 1562:090c   595 1562:090f   598 1562:0912
   599 1562:0918   602 1562:0933   603 1562:0947   605 1562:094a
   614 1562:095e   617 1562:0978   622 1562:098c   623 1562:09a4
   625 1562:09b3   629 1562:09c4   633 1562:09cd   635 1562:09d3
   638 1562:09de   639 1562:09f3   640 1562:0a03   642 1562:0a0c
   643 1562:0a0f   645 1562:0a12   646 1562:0a24   649 1562:0a32
   651 1562:0a3a   652 1562:0a3d   653 1562:0a52   654 1562:0a62
   663 1562:0a64   664 1562:0a6e   666 1562:0a78   667 1562:0a84
   668 1562:0a89   669 1562:0a8b   670 1562:0a90   671 1562:0a96
   672 1562:0aa9   673 1562:0aae   674 1562:0ab1   675 1562:0ac0
   680 1562:0ac6   681 1562:0ad0   682 1562:0ad9   683 1562:0ae2
   684 1562:0ae4   685 1562:0aeb   686 1562:0af3   688 1562:0afe
   690 1562:0b0b   691 1562:0b1e   692 1562:0b28   696 1562:0b4a
   697 1562:0b59   698 1562:0b66   699 1562:0b75   700 1562:0b89
   701 1562:0b8e   702 1562:0ba3   705 1562:0bad   706 1562:0bbd
   707 1562:0bc1   708 1562:0bce   709 1562:0bd0   711 1562:0be4
   712 1562:0bf1   713 1562:0c04   714 1562:0c0c   717 1562:0c11
   719 1562:0c26   722 1562:0c2c   723 1562:0c37   726 1562:0c3a
   727 1562:0c47   732 1562:0c4a   746 1562:0c5c   734 1562:0c66
   735 1562:0c70   736 1562:0c82   738 1562:0c85   739 1562:0c8f
   740 1562:0cab   742 1562:0cae   743 1562:0cb8   749 1562:0cc4
   751 1562:0cc9   753 1562:0cd6   754 1562:0cf4   755 1562:0d12
   756 1562:0d30   761 1562:0d57   762 1562:0d5a     0 1562:0d61
   768 1562:0d62   769 1562:0d6d   770 1562:0d72   773 1562:0d74
   774 1562:0d86   775 1562:0d8b   773 1562:0d8e   777 1562:0d9e
   778 1562:0da0     0 1562:0da5   783 1562:0da6   784 1562:0db1
   785 1562:0dbd   788 1562:0dc1   789 1562:0dd3   790 1562:0dd7
   788 1562:0dda   792 1562:0dea   793 1562:0dec     0 1562:0df1

Line numbers for R:\MAX\lib\Lquilibr.lib(message.c) segment MESSAGE_TEXT

    57 1641:0002    70 1641:000a    71 1641:000f    74 1641:0014
    76 1641:0022    77 1641:0028    78 1641:0032    80 1641:0038
    81 1641:0048    85 1641:0054    86 1641:0064    87 1641:0073
    88 1641:0076    94 1641:007c    95 1641:0097    96 1641:00a0
    97 1641:00b0    98 1641:00b8   102 1641:00cf   103 1641:00d8
   104 1641:00e0   106 1641:00f2   109 1641:00f7   110 1641:0100
   111 1641:0111   115 1641:0116   123 1641:0119   124 1641:0143
   125 1641:0153   128 1641:017e   129 1641:0181   130 1641:0185
   131 1641:0189   134 1641:018d   136 1641:01a9   138 1641:01bb
   156 1641:01c2   140 1641:01ce   141 1641:01e1   143 1641:01e4
   144 1641:01f7   145 1641:0209   146 1641:021c   148 1641:021e
   150 1641:0231   151 1641:0243   153 1641:0256   154 1641:0268
   158 1641:027b   159 1641:0296   160 1641:02a6   163 1641:02ae
   166 1641:02b0   175 1641:02bf   171 1641:02c9   172 1641:02d8
   165 1641:02ed   176 1641:02f3   181 1641:0308   182 1641:030d
   183 1641:0314   185 1641:0324   188 1641:0329   189 1641:0332
   191 1641:0343   193 1641:0346     0 1641:034b   217 1641:034c
   223 1641:0356   225 1641:0369   227 1641:037b   229 1641:0381
   230 1641:0385   231 1641:039e   233 1641:03a4   237 1641:03ab
   238 1641:03af   239 1641:03c2   240 1641:03c7     0 1641:03cb

Line numbers for R:\MAX\lib\Lquilibr.lib(mouse.c) segment MOUSE_TEXT

    24 167d:000c    33 167d:0012    34 167d:0015    35 167d:0017
    36 167d:001a    39 167d:001d    40 167d:0023    41 167d:002b
    42 167d:0031    44 167d:0038     0 167d:003b    47 167d:003c
    48 167d:003f    55 167d:0046    56 167d:0049    59 167d:004b
     0 167d:004f    62 167d:0050    63 167d:0053    78 167d:005a
    79 167d:005d    82 167d:005f     0 167d:0063    89 167d:0064
    95 167d:006a   100 167d:0075   101 167d:007b   103 167d:007e
   104 167d:0080   105 167d:0083   106 167d:0086   108 167d:0089
   109 167d:0095   110 167d:009e   112 167d:00a3   113 167d:00b4
   114 167d:00c5   115 167d:00d6   116 167d:00d9     0 167d:00dd
   121 167d:00de   122 167d:00e1   123 167d:00e6   125 167d:00e9
   126 167d:00f0   127 167d:00f3   128 167d:00f6   129 167d:00f9
   131 167d:00fb     0 167d:00ff

Line numbers for R:\MAX\lib\Lquilibr.lib(nomem.c) segment NOMEM_TEXT

    38 167d:0100    44 167d:0109    45 167d:013c    46 167d:014a
    47 167d:0154    48 167d:015d    49 167d:0167     0 167d:016d

Line numbers for R:\MAX\lib\Lquilibr.lib(prerror.c) segment PRERROR_TEXT

    51 167d:016e    52 167d:0175    53 167d:017b    54 167d:017e
    55 167d:0186    56 167d:0189    61 167d:019d    62 167d:01a4
    63 167d:01a6     0 167d:01ab

Line numbers for R:\MAX\lib\Lquilibr.lib(qhelp.c) segment QHELP_TEXT

    97 1697:000c   102 1697:0018   105 1697:0022   110 1697:0031
   111 1697:0043   114 1697:0055   117 1697:0069   118 1697:0073
   122 1697:0079   126 1697:007e   127 1697:00a9   128 1697:00b4
   134 1697:00bd   138 1697:00c9   140 1697:00d0   141 1697:00e3
   144 1697:00f5   146 1697:010a   147 1697:011d   150 1697:012f
   155 1697:0144   157 1697:014c   122 1697:0156   130 1697:0165
   131 1697:017e   161 1697:018b   162 1697:019c   163 1697:01a4
   164 1697:01c0   167 1697:01d3   170 1697:01f2   171 1697:01f7
   161 1697:01fb   183 1697:0201   184 1697:0203     0 1697:0209
   205 1697:020a   206 1697:0213   207 1697:021b   211 1697:0222
     0 1697:0227   237 1697:0228   241 1697:022e   246 1697:0233
   250 1697:0241   252 1697:0247   253 1697:0250   257 1697:0259
   258 1697:027a   259 1697:0284   262 1697:0287   263 1697:0290
   264 1697:02a2   268 1697:02a5   269 1697:02aa   272 1697:02af
   273 1697:02c3   276 1697:02d0   277 1697:02d4   278 1697:02d9
   279 1697:02de   281 1697:02e3   282 1697:02f8   283 1697:02fe
   285 1697:030e   288 1697:031e   291 1697:0344   293 1697:036a
   294 1697:037a   302 1697:037f   303 1697:0395   312 1697:039a
   315 1697:03a4   313 1697:03b1   316 1697:03c3   318 1697:03c9
   319 1697:03d2   320 1697:03d8   321 1697:03e4   324 1697:03ec
   325 1697:03f2   326 1697:03f8   328 1697:0401   329 1697:040a
   330 1697:041a   333 1697:0422   334 1697:042f   335 1697:043e
   347 1697:0449   349 1697:047c   351 1697:0482   356 1697:0489
   357 1697:0491   358 1697:049e   359 1697:04ab   360 1697:04b0
   361 1697:04b6   363 1697:04c5   364 1697:04d5   366 1697:04da
   369 1697:04e5   370 1697:04ea   371 1697:04f3   372 1697:04fc
   375 1697:0529   376 1697:054f   386 1697:0575   387 1697:0588
   388 1697:058f   389 1697:0596   390 1697:059d   393 1697:05a1
   394 1697:05b4   395 1697:05cd   397 1697:05d5   398 1697:05f4
   401 1697:0620   402 1697:063a   405 1697:065c   406 1697:0669
   407 1697:067d   408 1697:0692   410 1697:06ad   457 1697:06b6
   415 1697:06b9   416 1697:06c3   419 1697:06f3   420 1697:0700
   421 1697:0714   422 1697:072a   456 1697:072f   426 1697:0732
   427 1697:073f   428 1697:0753   433 1697:0765   434 1697:0772
   435 1697:0786   436 1697:078b   437 1697:0796   443 1697:079e
   444 1697:07ab   445 1697:07bf   446 1697:07cb   450 1697:07ce
   451 1697:0800   460 1697:0803   461 1697:0810   462 1697:0819
   463 1697:0829   467 1697:0831   468 1697:0836   469 1697:0848
   472 1697:084d     0 1697:0851   517 1697:0852   523 1697:085b
   526 1697:0870   527 1697:0878   531 1697:087e   535 1697:0895
   536 1697:08aa   644 1697:08ad   645 1697:08b6   646 1697:08c6
   647 1697:08d2   651 1697:08e2   541 1697:08f3   543 1697:0901
   544 1697:090f   545 1697:0917   546 1697:091a   549 1697:091c
   550 1697:092f   551 1697:093d   555 1697:0945   558 1697:095d
   559 1697:096a   561 1697:097a   563 1697:099d   565 1697:09a7
   571 1697:09aa   574 1697:09c5   575 1697:09e6   576 1697:09ed
   577 1697:0a0d   578 1697:0a20   579 1697:0a44   580 1697:0a64
   581 1697:0a78   582 1697:0a9c   583 1697:0a9e   599 1697:0aac
   603 1697:0ae2   605 1697:0aea   609 1697:0af5   615 1697:0b19
   617 1697:0b1e   621 1697:0b25   622 1697:0b2d   623 1697:0b36
   628 1697:0b3d   630 1697:0b44   631 1697:0b58   634 1697:0b64
   640 1697:0b7d   605 1697:0b80   648 1697:0b84   655 1697:0b94
   656 1697:0b98   657 1697:0ba2   658 1697:0ba4     0 1697:0ba9
   679 1697:0baa   685 1697:0bb3   688 1697:0bc9   689 1697:0bd1
   692 1697:0bd7   695 1697:0beb   697 1697:0bf9   698 1697:0c07
   702 1697:0c12   703 1697:0c25   704 1697:0c33   707 1697:0c3b
   711 1697:0c53   719 1697:0c67   721 1697:0c89   723 1697:0c8d
   725 1697:0ca5   727 1697:0cb5   733 1697:0cd3   734 1697:0cda
   735 1697:0cef   738 1697:0cf5   742 1697:0d07   743 1697:0d0b
   725 1697:0d27   747 1697:0d38   748 1697:0d41   749 1697:0d51
   750 1697:0d5a   752 1697:0d6a     0 1697:0d71   773 1697:0d72
   782 1697:0d7b   783 1697:0d83   786 1697:0d89   788 1697:0da9
   789 1697:0db7   793 1697:0dc2   794 1697:0dd5   795 1697:0de3
   798 1697:0dee   801 1697:0e06   803 1697:0e1d   805 1697:0e36
   806 1697:0e49   807 1697:0e4c   808 1697:0e5f   810 1697:0e62
   812 1697:0e72   817 1697:0e91   818 1697:0e98   819 1697:0eae
   822 1697:0eb4   826 1697:0ec7   827 1697:0ecb   810 1697:0ee8
   831 1697:0ef9   832 1697:0f02   833 1697:0f12   834 1697:0f1b
   836 1697:0f2b     0 1697:0f33   863 1697:0f34   866 1697:0f3f
   867 1697:0f47   869 1697:0f4a   871 1697:0f5d   872 1697:0f65
   874 1697:0f71   875 1697:0f91   876 1697:0fa4   878 1697:0fbc
   879 1697:0fc5   880 1697:0fc8   881 1697:0fd0   885 1697:0fd3
   888 1697:0fdd   889 1697:0fee   890 1697:0ff1   893 1697:0ff3
   894 1697:1005   895 1697:1017   899 1697:101f   902 1697:103b
   903 1697:1048   906 1697:1061   907 1697:1069   909 1697:1077
   910 1697:107b   911 1697:1085   912 1697:108b     0 1697:1091
   940 1697:1092   945 1697:109b   948 1697:10b0   951 1697:10c8
   955 1697:10e2   958 1697:1106   959 1697:110d   960 1697:1123
   963 1697:1129   965 1697:1133   966 1697:113b   969 1697:1149
   971 1697:115c   974 1697:116b   975 1697:117e     0 1697:1183
  1000 1697:1184  1014 1697:1187  1015 1697:1194  1016 1697:11a1
  1017 1697:11a7     0 1697:11a9  1023 1697:11aa  1028 1697:11b5
  1029 1697:11c7  1030 1697:11d4  1038 1697:11dd  1039 1697:11f0
  1040 1697:11f9  1041 1697:1204  1044 1697:120f  1047 1697:1218
  1050 1697:1224  1051 1697:122c  1053 1697:1235  1054 1697:123b
  1055 1697:1247  1062 1697:1253  1064 1697:126a  1066 1697:1277
  1067 1697:128b  1057 1697:1291  1058 1697:129c  1070 1697:12a3
  1071 1697:12b0  1074 1697:12b8  1075 1697:12c1  1076 1697:12d5
  1075 1697:12f1  1077 1697:12fd  1084 1697:1314  1085 1697:132e
  1086 1697:133e  1088 1697:135d  1090 1697:1365  1091 1697:1373
  1095 1697:1392     0 1697:1399  1118 1697:139a  1119 1697:13a2
  1120 1697:13a7  1123 1697:13b4  1166 1697:13b7  1127 1697:13c7
  1131 1697:13f4  1132 1697:1403  1135 1697:140a  1137 1697:1428
  1138 1697:1432  1140 1697:1439  1141 1697:1457  1144 1697:1466
  1150 1697:1484  1154 1697:14b1  1155 1697:14bd  1157 1697:14c3
  1159 1697:14ca  1160 1697:14e6  1162 1697:14ef  1163 1697:150b
  1168 1697:151f  1170 1697:1526  1171 1697:152e  1175 1697:154c
  1176 1697:1555  1177 1697:1558  1180 1697:156f  1181 1697:157b
  1184 1697:159a  1185 1697:15a3  1186 1697:15a7  1190 1697:15be
  1192 1697:15ca  1193 1697:15d4  1194 1697:15dd  1196 1697:15f2
  1197 1697:1600  1198 1697:160e  1199 1697:161d  1202 1697:162b
  1206 1697:1630     0 1697:1635  1232 1697:1636  1237 1697:1641
  1263 1697:1647  1264 1697:166f  1265 1697:1676  1267 1697:167c
  1270 1697:169e  1273 1697:16bc  1274 1697:16cf  1277 1697:16e5
  1279 1697:16fb  1280 1697:1707  1282 1697:1726  1283 1697:172f
  1284 1697:1733  1288 1697:174a  1289 1697:1757  1290 1697:1760
  1292 1697:177f  1293 1697:1788  1294 1697:178c  1297 1697:17a3
  1302 1697:17aa  1301 1697:17b7  1241 1697:17bd  1242 1697:17c6
  1244 1697:17e5  1245 1697:17ee  1246 1697:17f2  1247 1697:180b
  1249 1697:181c  1251 1697:182d  1252 1697:1840  1253 1697:1851
  1256 1697:1853  1261 1697:1864  1258 1697:1868  1259 1697:1879
  1305 1697:187b     0 1697:1883  1331 1697:1884  1334 1697:188a
  1335 1697:1892  1338 1697:1898  1340 1697:18bc  1344 1697:18d1
     0 1697:18d5  1369 1697:18d6  1373 1697:18df  1374 1697:18e5
  1376 1697:18f3  1377 1697:1901  1381 1697:1909  1382 1697:191c
  1383 1697:192a  1386 1697:1932  1388 1697:194d  1389 1697:195d
  1390 1697:1965  1391 1697:1972  1393 1697:1978  1395 1697:1998
  1397 1697:199f  1403 1697:19a8  1405 1697:19c3  1407 1697:19e1
  1408 1697:19ec  1409 1697:19f4  1410 1697:1a16  1411 1697:1a29
  1413 1697:1a49  1414 1697:1a51  1415 1697:1a71  1416 1697:1a82
  1418 1697:1a9e  1419 1697:1aa0  1422 1697:1ab6  1425 1697:1abe
  1426 1697:1ac7  1427 1697:1ad7  1429 1697:1adf  1430 1697:1ae8
  1431 1697:1af8  1433 1697:1b00  1434 1697:1b03     0 1697:1b0b
  1457 1697:1b0c  1459 1697:1b12  1460 1697:1b27  1461 1697:1b41
  1463 1697:1b46  1464 1697:1b4c     0 1697:1b4f  1487 1697:1b50
  1490 1697:1b54  1491 1697:1b5b  1500 1697:1b5e  1501 1697:1b88
  1504 1697:1ba3  1505 1697:1ba5     0 1697:1ba9  1528 1697:1baa
  1529 1697:1bb3  1530 1697:1bc3  1532 1697:1bcb  1533 1697:1bd4
  1534 1697:1be4  1536 1697:1bec     0 1697:1bed

Line numbers for R:\MAX\lib\Lquilibr.lib(serial.c) segment SERIAL_TEXT

    40 1855:000e    47 1855:0016    48 1855:0018    50 1855:0024
    53 1855:0030    56 1855:003b    57 1855:0042    58 1855:004a
    62 1855:0056    63 1855:0061    64 1855:0074    65 1855:0076
    66 1855:0079     0 1855:007f

Line numbers for R:\MAX\lib\Lquilibr.lib(sleep.c) segment SLEEP_TEXT

    20 1855:0080    25 1855:0086    28 1855:0091    29 1855:00b8
    30 1855:00d0     0 1855:00d3

Line numbers for R:\MAX\lib\Lquilibr.lib(textcur.c) segment TEXTCUR_TEXT

    42 1855:00d4    43 1855:00d7    44 1855:00de     0 1855:00df
    68 1855:00e0    69 1855:00e7    70 1855:00eb    71 1855:00f2
    73 1855:00fb    74 1855:00fd     0 1855:0101    96 1855:0102
    97 1855:0109    98 1855:0112   100 1855:011b     0 1855:011f
   122 1855:0120   123 1855:0127   124 1855:0130   126 1855:0139
     0 1855:013d   148 1855:013e   149 1855:0145   153 1855:0154
   154 1855:017a   156 1855:0184   157 1855:01a8   158 1855:01ad
   163 1855:01af   166 1855:01b4     0 1855:01b9

Line numbers for R:\MAX\lib\Lquilibr.lib(textwin.c) segment TEXTWIN_TEXT

    79 1870:000a    80 1870:0012    82 1870:0027    85 1870:003c
    86 1870:0042    88 1870:005d    89 1870:0063    91 1870:0076
    98 1870:0079    96 1870:0081    93 1870:008d   100 1870:009a
   126 1870:009d   103 1870:00ae   104 1870:00b4   105 1870:00b7
   107 1870:00bb   108 1870:00c1   109 1870:00c4   111 1870:00c8
   114 1870:00ca   121 1870:00e4   122 1870:00e7   123 1870:00ea
   124 1870:00ee   129 1870:00f2   130 1870:00fc   131 1870:0106
   132 1870:010d   133 1870:0113   134 1870:011a   135 1870:0126
   137 1870:012d   138 1870:0133   140 1870:0154   141 1870:0156
   143 1870:015f   144 1870:0165   146 1870:0186   147 1870:0188
   150 1870:0191   154 1870:01ac   155 1870:01b4   161 1870:01d1
   158 1870:01d5   159 1870:01f6   162 1870:01f9     0 1870:01ff
   185 1870:0200   186 1870:0207   187 1870:0214   188 1870:0224
   189 1870:0231   191 1870:0245   192 1870:0247     0 1870:024b
   221 1870:024c   222 1870:025a   224 1870:0264   225 1870:026e
   226 1870:028c   228 1870:0290   229 1870:029a   231 1870:029f
   235 1870:02ab   238 1870:02d1   239 1870:02d3     0 1870:02d9
   264 1870:02da   266 1870:02e1   267 1870:02ef   269 1870:02fc
   270 1870:02fe     0 1870:0303   292 1870:0304   294 1870:030f
   295 1870:0328   296 1870:0333   297 1870:0341     0 1870:0347
   326 1870:0348   330 1870:0356   333 1870:036e   341 1870:037b
   342 1870:0385   334 1870:038b   335 1870:0394   336 1870:03a4
   338 1870:03bc   344 1870:03d1   345 1870:03e0     0 1870:03e5
   375 1870:03e6   379 1870:03f4   382 1870:040c   388 1870:0416
   389 1870:0420   384 1870:042b   385 1870:0444   391 1870:0456
   392 1870:0465     0 1870:046b   421 1870:046c   425 1870:0479
   428 1870:0491   436 1870:049e   437 1870:04a8   429 1870:04ae
   430 1870:04b9   431 1870:04c7   433 1870:04d2   439 1870:04e7
   440 1870:04f6     0 1870:04fb   471 1870:04fc   475 1870:050a
   478 1870:0522   487 1870:052f   488 1870:0539   479 1870:053f
   480 1870:0548   481 1870:0558   482 1870:0562   484 1870:0578
   490 1870:058d   492 1870:059c     0 1870:05a1   520 1870:05a2
   523 1870:05b0   529 1870:05d7   533 1870:060d   534 1870:061c
   535 1870:0623   538 1870:0633   539 1870:0635     0 1870:063b
   566 1870:063c   569 1870:064a   575 1870:0672   579 1870:06a8
   580 1870:06b7   581 1870:06be   584 1870:06ce   585 1870:06d0
     0 1870:06d5   613 1870:06d6   618 1870:06e4   619 1870:0700
   620 1870:0713   619 1870:071c   623 1870:072e   625 1870:074a
   626 1870:0754   628 1870:0758   629 1870:0766     0 1870:076b
   660 1870:076c   665 1870:077a   666 1870:0796   667 1870:07a9
   668 1870:07b2   666 1870:07b9   672 1870:07cb   674 1870:07e7
   675 1870:07f1   677 1870:07f5   678 1870:0803     0 1870:0809
   708 1870:080a   714 1870:0815   716 1870:082b   717 1870:083d
   719 1870:085a   720 1870:085c     0 1870:0861   751 1870:0862
   756 1870:0870   757 1870:088e   758 1870:0898   760 1870:089d
   762 1870:08b9   763 1870:08bf   765 1870:08d8   767 1870:08e1
   769 1870:08fe   770 1870:0905   772 1870:0909   773 1870:0917
     0 1870:091d   799 1870:091e   804 1870:092c   806 1870:094c
   808 1870:0965   809 1870:096d   811 1870:0989   812 1870:0990
   814 1870:09ad   815 1870:09b4   817 1870:09b8   818 1870:09c6
     0 1870:09cb   845 1870:09cc   851 1870:09d7   852 1870:09de
   855 1870:09e5   856 1870:09f0   858 1870:09f4   860 1870:09fa
   861 1870:0a03   864 1870:0a13   866 1870:0a1a   867 1870:0a21
   871 1870:0a33   872 1870:0a3c   874 1870:0a40   876 1870:0a46
   877 1870:0a4f   880 1870:0a5f   882 1870:0a69   883 1870:0a70
   891 1870:0a82   892 1870:0a8f   893 1870:0a9d   894 1870:0aa2
   896 1870:0aa8   897 1870:0ac1   898 1870:0acd   899 1870:0ade
   897 1870:0ae9   901 1870:0af1   902 1870:0afb     0 1870:0b01
   923 1870:0b02   924 1870:0b0a   925 1870:0b17   927 1870:0b2a
   929 1870:0b35   930 1870:0b42   933 1870:0b56     0 1870:0b5b
   958 1870:0b5c   965 1870:0b67   967 1870:0b71   968 1870:0b87
   969 1870:0b8b   970 1870:0b94   974 1870:0ba4   976 1870:0bae
   977 1870:0bcc   979 1870:0bd6   982 1870:0bf4   983 1870:0bfd
   986 1870:0c07   988 1870:0c18   991 1870:0c2d   993 1870:0c35
  1001 1870:0c46  1004 1870:0c52  1005 1870:0c58  1007 1870:0c68
  1077 1870:0c7a  1013 1870:0ce1  1014 1870:0cee  1015 1870:0cf2
  1052 1870:0cf5  1053 1870:0d05  1054 1870:0d0e  1025 1870:0d11
  1026 1870:0d1e  1027 1870:0d22  1021 1870:0d25  1022 1870:0d39
  1023 1870:0d3d  1032 1870:0d40  1033 1870:0d4f  1017 1870:0d51
  1018 1870:0d62  1019 1870:0d66  1058 1870:0d68  1060 1870:0d73
  1038 1870:0d8b  1046 1870:0d98  1048 1870:0da3  1042 1870:0db7
  1043 1870:0dc4  1062 1870:0dcd  1064 1870:0dec  1065 1870:0dfa
  1067 1870:0e0d  1068 1870:0e2b  1070 1870:0e44  1071 1870:0e62
  1080 1870:0e65  1081 1870:0e67     0 1870:0e6d  1105 1870:0e6e
  1108 1870:0e76  1129 1870:0e78  1132 1870:0ec8  1133 1870:0edb
  1134 1870:0eea  1135 1870:0ef3  1136 1870:0ef9  1110 1870:0f07
  1114 1870:0f1a  1116 1870:0f2d  1118 1870:0f40  1119 1870:0f53
  1120 1870:0f56  1123 1870:0f69  1124 1870:0f6c  1127 1870:0f7f
  1128 1870:0f82  1121 1870:0f95  1122 1870:0f98  1125 1870:0fab
  1126 1870:0fae  1112 1870:0fc6  1137 1870:0fd6     0 1870:0fdb
  1162 1870:0fdc  1164 1870:0fe4  1167 1870:0fee  1180 1870:100e
  1187 1870:1035  1188 1870:105c  1169 1870:105e  1179 1870:1062
  1171 1870:1067  1175 1870:106c  1173 1870:1071  1177 1870:1076
  1192 1870:107b  1193 1870:1096     0 1870:109b  1224 1870:109c
  1229 1870:10a7  1230 1870:10b0  1231 1870:10bf  1234 1870:10c4
  1241 1870:10dc  1242 1870:10e9  1245 1870:10f1  1246 1870:10f8
  1247 1870:1102  1248 1870:110c  1249 1870:1114  1252 1870:1118
  1253 1870:1123  1255 1870:1128  1256 1870:112e  1257 1870:1134
  1258 1870:113b  1261 1870:1153  1262 1870:1158  1263 1870:1162
  1267 1870:116c  1268 1870:1175  1269 1870:117c  1270 1870:1185
  1273 1870:118c  1274 1870:1196  1276 1870:119b  1277 1870:119f
  1278 1870:11a5  1279 1870:11ab  1282 1870:11bf  1283 1870:11c4
  1284 1870:11cf  1293 1870:11d4  1297 1870:11dc  1301 1870:11ef
  1303 1870:11fa  1312 1870:1202  1359 1870:1209  1328 1870:1228
  1329 1870:122e  1330 1870:1232  1331 1870:123f  1332 1870:1244
  1333 1870:124a  1334 1870:1254  1335 1870:1263  1336 1870:126c
  1340 1870:1272  1341 1870:1291  1342 1870:1296  1343 1870:129c
  1345 1870:12a1  1347 1870:12a4  1351 1870:12b3  1353 1870:12c8
  1354 1870:12cc  1357 1870:12d0  1313 1870:12d8  1317 1870:12db
  1319 1870:12e0  1325 1870:12f7  1360 1870:12fc  1361 1870:1302
  1362 1870:1305     0 1870:130b  1390 1870:130c  1393 1870:1314
  1394 1870:1329  1396 1870:1333  1398 1870:1349  1401 1870:1355
  1402 1870:135a  1405 1870:135d  1407 1870:136f  1408 1870:1378
  1412 1870:1384  1413 1870:1388  1414 1870:138c  1415 1870:139e
  1416 1870:13a1  1417 1870:13b3  1418 1870:13ba  1419 1870:13cc
  1420 1870:13cf  1421 1870:13e1  1422 1870:1405  1423 1870:140c
  1427 1870:140f  1428 1870:1413  1429 1870:1417  1430 1870:1429
  1431 1870:142c  1432 1870:143e  1433 1870:1445  1434 1870:1457
  1435 1870:145a  1437 1870:146c  1438 1870:1491  1441 1870:1497
  1442 1870:14a8  1443 1870:14ae  1444 1870:14b4  1445 1870:14c6
     0 1870:14cb

Line numbers for R:\MAX\lib\Lquilibr.lib(trim.c) segment TRIM_TEXT

    50 19bc:000c    55 19bc:0014    57 19bc:002d    58 19bc:003e
    62 19bc:0055    63 19bc:005d    67 19bc:0067    68 19bc:006a
    69 19bc:0072    64 19bc:007c    65 19bc:008d    66 19bc:0096
    70 19bc:00a5    71 19bc:00ab    72 19bc:00ac    73 19bc:00b3
    74 19bc:00b6    75 19bc:00b8     0 19bc:00bf    78 19bc:00c0
    79 19bc:00c8    80 19bc:00d1    81 19bc:00de    82 19bc:00e7
     0 19bc:00ed

Line numbers for R:\MAX\lib\Lquilibr.lib(trnbln.c) segment TRNBLN_TEXT

    47 19bc:00ee    52 19bc:00f3    53 19bc:010c    54 19bc:0119
    55 19bc:011d    57 19bc:0123    58 19bc:0130    62 19bc:0135
    63 19bc:013a    64 19bc:013c     0 19bc:0141

Line numbers for R:\MAX\lib\Lquilibr.lib(ui.c) segment UI_TEXT

    54 19d0:0002    57 19d0:0008    59 19d0:0015    60 19d0:001b
    64 19d0:0021    65 19d0:0032    67 19d0:0037    69 19d0:0040
    70 19d0:0047    75 19d0:0052    79 19d0:0062    81 19d0:0068
    83 19d0:006e    84 19d0:0077    85 19d0:0083    86 19d0:0089
    88 19d0:0092     0 19d0:0095   108 19d0:0096   111 19d0:009c
   112 19d0:00b0   114 19d0:00c4   115 19d0:00d8   117 19d0:00e4
   118 19d0:00f8   119 19d0:0101     0 19d0:0105   139 19d0:0106
   148 19d0:010e   151 19d0:0124   152 19d0:0130   153 19d0:0133
   156 19d0:0145   159 19d0:015b   160 19d0:0167   161 19d0:0176
   162 19d0:0189   166 19d0:0199   167 19d0:01ab   168 19d0:01ae
     0 19d0:01b3   190 19d0:01b4   193 19d0:01be   197 19d0:01dc
   198 19d0:01e6   200 19d0:01eb   201 19d0:01f7   203 19d0:0206
   206 19d0:0227   207 19d0:0234   208 19d0:023d   209 19d0:0247
   211 19d0:0253     0 19d0:0257   231 19d0:0258   235 19d0:0263
   236 19d0:026a   237 19d0:0273   240 19d0:027f   245 19d0:028d
   246 19d0:029f   254 19d0:02a3   253 19d0:02b2   250 19d0:02b7
   240 19d0:02c8   237 19d0:02d5   257 19d0:02e4     0 19d0:02e9
   279 19d0:02ea   282 19d0:02f5   286 19d0:02fb   287 19d0:0306
   288 19d0:0317   289 19d0:031b   291 19d0:0324   293 19d0:032d
   294 19d0:0337   295 19d0:0349   296 19d0:035b   297 19d0:036e
   299 19d0:0378   293 19d0:0393   302 19d0:0399   304 19d0:039c
   305 19d0:03ae   306 19d0:03c0   307 19d0:03c6   308 19d0:03d9
   309 19d0:03e3   310 19d0:03e9   312 19d0:03f3   318 19d0:0411
   319 19d0:041b   320 19d0:0426   321 19d0:042a   322 19d0:0434
   323 19d0:043f   324 19d0:0447   325 19d0:044a   328 19d0:044b
   329 19d0:0454   330 19d0:0458   331 19d0:046a   332 19d0:047c
   333 19d0:0482   334 19d0:0495   335 19d0:049f   336 19d0:04a5
   339 19d0:04af   329 19d0:04ca   344 19d0:04d0     0 19d0:04d7
   364 19d0:04d8   365 19d0:04e2     0 19d0:04e3

Line numbers for R:\MAX\lib\Lquilibr.lib(video.c) segment VIDEO_TEXT

    38 1a1e:0004    65 1a1e:000c    66 1a1e:0012    68 1a1e:0018
    69 1a1e:0030    70 1a1e:003e    72 1a1e:0049    74 1a1e:0059
    76 1a1e:005f    77 1a1e:0065    85 1a1e:0067    90 1a1e:006d
    92 1a1e:0074    93 1a1e:0076    94 1a1e:0078    96 1a1e:007b
    98 1a1e:008d   103 1a1e:0093   104 1a1e:0095   105 1a1e:0097
   106 1a1e:0099   107 1a1e:009c   108 1a1e:009f   110 1a1e:00a2
   111 1a1e:00aa   112 1a1e:00b0   114 1a1e:00b6   115 1a1e:00c9
   116 1a1e:00cf   117 1a1e:00d5   118 1a1e:00db     0 1a1e:00e1
   121 1a1e:00e2   126 1a1e:00e5   127 1a1e:00e7   128 1a1e:00ea
   131 1a1e:00ec     0 1a1e:00ef   134 1a1e:00f0   136 1a1e:00f3
   148 1a1e:0102   149 1a1e:0104   150 1a1e:0106   151 1a1e:0108
   152 1a1e:010a   153 1a1e:010c   156 1a1e:010e   157 1a1e:011c
     0 1a1e:011f   160 1a1e:0120   162 1a1e:0126   178 1a1e:0135
   180 1a1e:0142   181 1a1e:0144   182 1a1e:0147   186 1a1e:0149
   187 1a1e:0157     0 1a1e:015b   191 1a1e:015c   192 1a1e:0168
     0 1a1e:0169   196 1a1e:016a   209 1a1e:0170   210 1a1e:017f
   211 1a1e:0181   212 1a1e:0183   213 1a1e:0185   214 1a1e:0187
   215 1a1e:018a   218 1a1e:018c   219 1a1e:019b   220 1a1e:01a2
   221 1a1e:01a5     0 1a1e:01a9   224 1a1e:01aa   226 1a1e:01b0
   227 1a1e:01b7   230 1a1e:01c2   235 1a1e:01c7   236 1a1e:01cc
   240 1a1e:01ce   241 1a1e:01d3   243 1a1e:01d5   244 1a1e:01da
   246 1a1e:01f4   247 1a1e:01f7     0 1a1e:01fb   250 1a1e:01fc
   252 1a1e:0202   254 1a1e:0209   257 1a1e:0215   262 1a1e:021a
   263 1a1e:021f   267 1a1e:0221   268 1a1e:0226   270 1a1e:0228
   271 1a1e:022d   273 1a1e:0247   274 1a1e:024a     0 1a1e:024d
   279 1a1e:024e   284 1a1e:0251   285 1a1e:0253   286 1a1e:0255
   287 1a1e:0258   288 1a1e:025b   291 1a1e:025d   292 1a1e:026c
   293 1a1e:0273     0 1a1e:0277   296 1a1e:0278   297 1a1e:027a
   301 1a1e:0283   302 1a1e:0287   303 1a1e:029f     0 1a1e:02a1
   307 1a1e:02a2   311 1a1e:02a9   313 1a1e:02ad   314 1a1e:02c4
   315 1a1e:02d3   316 1a1e:02d9   318 1a1e:02dd   319 1a1e:02de
   320 1a1e:02ec   322 1a1e:02f0     0 1a1e:02f1

Line numbers for R:\MAX\lib\Lquilibr.lib(VIDEOID.asm) segment VIDEOID_TEXT

   100 1a4d:0002   102 1a4d:0005   103 1a4d:0006   107 1a4d:0007
   108 1a4d:000b   109 1a4d:000f   115 1a4d:0014   116 1a4d:001a
   117 1a4d:001f   118 1a4d:0024   119 1a4d:0029   121 1a4d:002e
   122 1a4d:0032   124 1a4d:0035   125 1a4d:0036   126 1a4d:0038
   127 1a4d:0039   129 1a4d:003b   130 1a4d:003c   131 1a4d:003d
   132 1a4d:003f   133 1a4d:0040   135 1a4d:0041   139 1a4d:0043
   143 1a4d:0046   144 1a4d:0048   145 1a4d:004b   146 1a4d:004d
   147 1a4d:0050   149 1a4d:0052   150 1a4d:0053   151 1a4d:0054
   153 1a4d:0056   154 1a4d:0057   155 1a4d:0058   156 1a4d:005b
   157 1a4d:005d   158 1a4d:0061   159 1a4d:0063   160 1a4d:0065
   161 1a4d:0069   169 1a4d:006d   171 1a4d:006d   172 1a4d:0070
   174 1a4d:0072   175 1a4d:0074   179 1a4d:0076   180 1a4d:0078
   181 1a4d:007a   182 1a4d:007c   184 1a4d:007e   185 1a4d:0080
   186 1a4d:0082   188 1a4d:0086   190 1a4d:0089   191 1a4d:008b
   193 1a4d:008d   194 1a4d:008f   195 1a4d:0093   199 1a4d:0095
   200 1a4d:009a   201 1a4d:009f   203 1a4d:00a4   204 1a4d:00a6
   205 1a4d:00a9   207 1a4d:00ab   208 1a4d:00ae   209 1a4d:00b1
   211 1a4d:00b3   212 1a4d:00b7   214 1a4d:00bc   222 1a4d:00bd
   227 1a4d:00bd   228 1a4d:00bf   229 1a4d:00c1   233 1a4d:00c3
   234 1a4d:00c6   236 1a4d:00c8   237 1a4d:00ca   239 1a4d:00ce
   240 1a4d:00d0   241 1a4d:00d2   242 1a4d:00d5   243 1a4d:00d6
   244 1a4d:00d8   245 1a4d:00da   247 1a4d:00dd   248 1a4d:00e0
   250 1a4d:00e2   251 1a4d:00e8   253 1a4d:00ea   255 1a4d:00f0
   263 1a4d:00f1   265 1a4d:00f1   266 1a4d:00f4   267 1a4d:00f7
   269 1a4d:00f9   270 1a4d:00fb   271 1a4d:00fd   273 1a4d:0100
   290 1a4d:0101   292 1a4d:0101   293 1a4d:0104   294 1a4d:0107
   296 1a4d:0109   297 1a4d:010b   298 1a4d:010c   299 1a4d:010e
   301 1a4d:0110   303 1a4d:0113   304 1a4d:0114   305 1a4d:0116
   306 1a4d:0118   308 1a4d:011a   310 1a4d:011c   311 1a4d:011e
   312 1a4d:0120   313 1a4d:0123   315 1a4d:0125   316 1a4d:0126
   317 1a4d:0128   319 1a4d:012b   321 1a4d:012d   322 1a4d:012f
   323 1a4d:0132   325 1a4d:0134   326 1a4d:0136   327 1a4d:0139
   329 1a4d:013b   330 1a4d:013d   332 1a4d:013f   334 1a4d:0142
   345 1a4d:0143   347 1a4d:0143   348 1a4d:0145   349 1a4d:0146
   351 1a4d:0147   352 1a4d:0148   353 1a4d:014a   354 1a4d:014c
   356 1a4d:014d   357 1a4d:0150   359 1a4d:0152   360 1a4d:0153
   362 1a4d:0155   364 1a4d:0156   365 1a4d:0159   367 1a4d:015b
   369 1a4d:015c   378 1a4d:015d   380 1a4d:015d   381 1a4d:015f
   382 1a4d:0161   383 1a4d:0163   385 1a4d:0166   386 1a4d:016a
   388 1a4d:016c   389 1a4d:016f   390 1a4d:0171   391 1a4d:0175
   395 1a4d:0177   396 1a4d:0179   397 1a4d:017b   399 1a4d:017d
   400 1a4d:0181   401 1a4d:0183   403 1a4d:0185   404 1a4d:0189
   406 1a4d:018b   407 1a4d:018d   408 1a4d:0190   410 1a4d:0192
   418 1a4d:0193   421 1a4d:0193   422 1a4d:0195   423 1a4d:0198
   425 1a4d:019a   427 1a4d:019d   428 1a4d:019f

Line numbers for R:\MAX\lib\Lquilibr.lib(wait.c) segment WAIT_TEXT

    51 1a67:0000    53 1a67:0003    54 1a67:000f    55 1a67:001d
    56 1a67:0023    59 1a67:0029    62 1a67:0040    63 1a67:0048
    64 1a67:0051    65 1a67:0060    66 1a67:0068    70 1a67:007f
    71 1a67:0092    72 1a67:009e    75 1a67:00b8    76 1a67:00bc
    77 1a67:00c1    78 1a67:00c6    80 1a67:00cb    82 1a67:00e7
     0 1a67:00eb   105 1a67:00ec   106 1a67:00f5   110 1a67:0109
   111 1a67:0112   112 1a67:0123     0 1a67:012b   140 1a67:012c
   142 1a67:0131   143 1a67:0148   144 1a67:015c   145 1a67:016c
   146 1a67:0172   148 1a67:0178   150 1a67:0190   151 1a67:0198
   152 1a67:01a1   153 1a67:01b1   154 1a67:01b9   158 1a67:01d1
   159 1a67:01e5   160 1a67:01f2   163 1a67:020d   164 1a67:0211
   165 1a67:0216   166 1a67:021b   168 1a67:0220   170 1a67:023f
     0 1a67:0245

Line numbers for R:\MAX\lib\Lquilibr.lib(WINDOWFN.asm) segment WINDOWFN_TEXT

   702 1a8b:0006   706 1a8b:0006   708 1a8b:0007   709 1a8b:000b
   711 1a8b:000c   712 1a8b:0010   714 1a8b:0011   716 1a8b:0015
   718 1a8b:0018   721 1a8b:001b   723 1a8b:001c   729 1a8b:001d
   734 1a8b:001d   735 1a8b:001e   737 1a8b:001f   739 1a8b:0021
   745 1a8b:0022   750 1a8b:0022   751 1a8b:0027   753 1a8b:002c
   754 1a8b:002d   756 1a8b:002e   758 1a8b:0030   764 1a8b:0031
   767 1a8b:0031   769 1a8b:0032   770 1a8b:0036   772 1a8b:0037
   773 1a8b:003b   775 1a8b:003c   777 1a8b:0041   779 1a8b:0044
   782 1a8b:0047   784 1a8b:0048   789 1a8b:0049   793 1a8b:0049
   794 1a8b:004a   796 1a8b:004b   798 1a8b:004d   803 1a8b:004e
   807 1a8b:004e   809 1a8b:004f   810 1a8b:0054   812 1a8b:0059
   814 1a8b:005a   816 1a8b:005c   821 1a8b:005d   824 1a8b:005d
   826 1a8b:005e   827 1a8b:0062   829 1a8b:0063   830 1a8b:0067
   832 1a8b:0068   834 1a8b:006d   836 1a8b:0070   839 1a8b:0073
   841 1a8b:0074   846 1a8b:0075   849 1a8b:0075   851 1a8b:0078
   852 1a8b:0079   854 1a8b:007a   856 1a8b:007c   861 1a8b:007d
   864 1a8b:007d   866 1a8b:0080   867 1a8b:0085   869 1a8b:008a
   870 1a8b:008c   871 1a8b:008d   873 1a8b:008e   875 1a8b:0090
   880 1a8b:0091   883 1a8b:0091   885 1a8b:0092   886 1a8b:0096
   888 1a8b:0097   889 1a8b:009b   891 1a8b:009c   893 1a8b:00a1
   895 1a8b:00a4   898 1a8b:00a7   900 1a8b:00a8   905 1a8b:00a9
   908 1a8b:00a9   910 1a8b:00ac   911 1a8b:00ad   913 1a8b:00ae
   915 1a8b:00b0   920 1a8b:00b1   923 1a8b:00b1   925 1a8b:00b4
   927 1a8b:00b5   928 1a8b:00ba   930 1a8b:00bf   931 1a8b:00c1
   933 1a8b:00c2   935 1a8b:00c4   940 1a8b:00c5   943 1a8b:00c5
   945 1a8b:00c6   946 1a8b:00ca   948 1a8b:00cb   949 1a8b:00cf
   951 1a8b:00d0   953 1a8b:00d5   955 1a8b:00d8   958 1a8b:00db
   960 1a8b:00dc   965 1a8b:00dd   968 1a8b:00dd   970 1a8b:00df
   975 1a8b:00e0   979 1a8b:00e0   980 1a8b:00e5   982 1a8b:00ea
   984 1a8b:00eb   986 1a8b:00ed   991 1a8b:00ee   994 1a8b:00ee
   996 1a8b:00ef   997 1a8b:00f3   999 1a8b:00f4  1000 1a8b:00f8
  1002 1a8b:00f9  1004 1a8b:00fe  1006 1a8b:0101  1009 1a8b:0104
  1011 1a8b:0105  1016 1a8b:0106  1019 1a8b:0106  1020 1a8b:0109
  1022 1a8b:010b  1027 1a8b:010c  1031 1a8b:010c  1032 1a8b:0111
  1034 1a8b:0116  1035 1a8b:0119  1037 1a8b:011a  1039 1a8b:011c
  1044 1a8b:011d  1047 1a8b:011d  1049 1a8b:011e  1050 1a8b:0122
  1052 1a8b:0123  1053 1a8b:0127  1055 1a8b:0128  1057 1a8b:012d
  1059 1a8b:0130  1062 1a8b:0133  1064 1a8b:0134  1069 1a8b:0135
  1072 1a8b:0135  1074 1a8b:0138  1075 1a8b:0139  1077 1a8b:013a
  1079 1a8b:013c  1084 1a8b:013d  1087 1a8b:013d  1089 1a8b:0140
  1090 1a8b:0145  1092 1a8b:014a  1093 1a8b:014b  1095 1a8b:014c
  1097 1a8b:014e  1102 1a8b:014f  1105 1a8b:014f  1108 1a8b:0259
  1111 1a8b:0259  1113 1a8b:025a  1114 1a8b:025e  1116 1a8b:025f
  1117 1a8b:0263  1119 1a8b:0264  1121 1a8b:0269  1123 1a8b:026c
  1126 1a8b:026f  1128 1a8b:0270  1133 1a8b:0271  1137 1a8b:0271
  1138 1a8b:0272  1140 1a8b:0273  1142 1a8b:0275  1147 1a8b:0276
  1151 1a8b:0276  1152 1a8b:027b  1154 1a8b:0280  1155 1a8b:0281
  1157 1a8b:0282  1159 1a8b:0284  1164 1a8b:0285  1167 1a8b:0285
  1169 1a8b:0286  1170 1a8b:028a  1172 1a8b:028b  1173 1a8b:028f
  1175 1a8b:0290  1177 1a8b:0295  1179 1a8b:0298  1182 1a8b:029b
  1184 1a8b:029c  1189 1a8b:029d  1193 1a8b:029d  1194 1a8b:029e
  1196 1a8b:029f  1198 1a8b:02a1  1203 1a8b:02a2  1207 1a8b:02a2
  1209 1a8b:02a3  1210 1a8b:02a8  1212 1a8b:02ad  1214 1a8b:02ae
  1216 1a8b:02b0  1221 1a8b:02b1  1227 1a8b:02b1  1229 1a8b:02b2
  1230 1a8b:02b6  1232 1a8b:02b7  1233 1a8b:02bb  1235 1a8b:02bc
  1237 1a8b:02c1  1239 1a8b:02c4  1242 1a8b:02c7  1244 1a8b:02c8
  1249 1a8b:02c9  1252 1a8b:02c9  1255 1a8b:03d3  1289 1a8b:03d3
  1291 1a8b:03d6  1293 1a8b:03d9  1297 1a8b:03de  1301 1a8b:03e3
  1303 1a8b:03e8  1305 1a8b:03e9  1306 1a8b:03eb  1307 1a8b:03ed
  1311 1a8b:03ef  1316 1a8b:03f1  1318 1a8b:03f4  1323 1a8b:03f5
  1326 1a8b:03f5  1327 1a8b:03f6  1329 1a8b:03f8  1331 1a8b:03fa
  1332 1a8b:03fd  1334 1a8b:0401  1338 1a8b:0405  1339 1a8b:040a
  1340 1a8b:040f  1341 1a8b:0411  1343 1a8b:0415  1344 1a8b:0417
  1346 1a8b:0419  1348 1a8b:041b  1349 1a8b:041d  1351 1a8b:041f
  1352 1a8b:0421  1354 1a8b:0423  1355 1a8b:0427  1357 1a8b:0429
  1358 1a8b:042b  1360 1a8b:042d  1363 1a8b:0431  1364 1a8b:0438
  1365 1a8b:043c  1367 1a8b:0440  1368 1a8b:0442  1370 1a8b:0446
  1372 1a8b:0448  1373 1a8b:044f  1375 1a8b:0455  1377 1a8b:0457
  1379 1a8b:0458  1384 1a8b:0459  1387 1a8b:0459  1389 1a8b:045b
  1393 1a8b:045f  1394 1a8b:0464  1395 1a8b:0469  1396 1a8b:046b
  1398 1a8b:046f  1399 1a8b:0471  1401 1a8b:0473  1402 1a8b:047a
  1403 1a8b:047e  1404 1a8b:0482  1406 1a8b:0484  1407 1a8b:048b
  1409 1a8b:0491  1411 1a8b:0493  1416 1a8b:0494  1427 1a8b:0494
  1429 1a8b:0496  1430 1a8b:0498  1431 1a8b:049a  1433 1a8b:049c
  1440 1a8b:04a0  1442 1a8b:04a3  1443 1a8b:04a6  1445 1a8b:04a8
  1446 1a8b:04ab  1448 1a8b:04ad  1449 1a8b:04b0  1451 1a8b:04b2
  1452 1a8b:04b4  1454 1a8b:04b6  1455 1a8b:04b9  1457 1a8b:04bb
  1459 1a8b:04bd  1461 1a8b:04bf  1466 1a8b:04c0  1477 1a8b:04c0
  1481 1a8b:04c3  1482 1a8b:04c8  1483 1a8b:04ca  1484 1a8b:04cd
  1486 1a8b:04d0  1487 1a8b:04d2  1491 1a8b:04d4  1492 1a8b:04d9
  1493 1a8b:04db  1495 1a8b:04de  1496 1a8b:04e1  1497 1a8b:04e2
  1499 1a8b:04e5  1500 1a8b:04e7  1502 1a8b:04e9  1503 1a8b:04ec
  1505 1a8b:04ee  1507 1a8b:04f0  1509 1a8b:04f3  1514 1a8b:04f4
  1523 1a8b:04f4  1525 1a8b:04f8  1526 1a8b:04fb  1527 1a8b:04fd
  1528 1a8b:04ff  1532 1a8b:0501  1534 1a8b:0503  1536 1a8b:0505
  1538 1a8b:0508  1539 1a8b:050a  1541 1a8b:050c  1542 1a8b:050f
  1544 1a8b:0511  1546 1a8b:0512  1549 1a8b:0516

Line numbers for R:\MAX\lib\Lquilibr.lib(winsvrs.c) segment WINSVRS_TEXT

    51 1adc:0008    52 1adc:0016    53 1adc:001a    57 1adc:0024
    74 1adc:0027    60 1adc:002d    61 1adc:003a    63 1adc:0042
    64 1adc:004e    68 1adc:0055    69 1adc:0066    71 1adc:0070
    72 1adc:007f    78 1adc:0088    79 1adc:00a4    80 1adc:00b7
    81 1adc:00c1    82 1adc:00c8    84 1adc:00d7    85 1adc:00dd
     0 1adc:00e3   110 1adc:00e4   111 1adc:00eb   112 1adc:00ff
   113 1adc:010c   114 1adc:0118   116 1adc:0120   117 1adc:0125
     0 1adc:0129

Line numbers for R:\MAX\lib\Lquilibr.lib(winver.c) segment WINVER_TEXT

    16 1adc:012a    17 1adc:0130    20 1adc:0135    21 1adc:0138
    22 1adc:013a    23 1adc:013d    24 1adc:013f    25 1adc:0141
    26 1adc:0143    28 1adc:0145    29 1adc:0148    30 1adc:014a
    31 1adc:014c    32 1adc:014e    34 1adc:0150    35 1adc:0152
    36 1adc:0154    37 1adc:0157    38 1adc:0159    39 1adc:015c
    41 1adc:015f    42 1adc:0162     0 1adc:0167

Line numbers for R:\MAX\lib\Lquilibr.lib(wordset.c) segment WORDSET_TEXT

    23 1adc:0168    24 1adc:0176    25 1adc:0178    26 1adc:0182
    27 1adc:0189     0 1adc:018f    31 1adc:0190    32 1adc:019e
    33 1adc:01a0    34 1adc:01b4    35 1adc:01bb     0 1adc:01c1
    39 1adc:01c2    40 1adc:01cf    41 1adc:01d5    42 1adc:01d7
    43 1adc:01db    45 1adc:01ec    46 1adc:01f0     0 1adc:01f5

Line numbers for R:\MAX\lib\Lquilibr.lib(wrapstr.c) segment WRAPSTR_TEXT

    60 1afb:0006    72 1afb:000f    73 1afb:0024    76 1afb:0029
    77 1afb:0039    79 1afb:0045    83 1afb:004b    85 1afb:006b
    86 1afb:0076    87 1afb:007a    88 1afb:0082    91 1afb:0090
    92 1afb:009c   107 1afb:009f   110 1afb:00a7   114 1afb:00c0
   118 1afb:00c8   128 1afb:00d2   130 1afb:00dd   131 1afb:00ee
   132 1afb:010c   134 1afb:011a   136 1afb:013c   137 1afb:0141
   138 1afb:0145    95 1afb:014e    96 1afb:0154    98 1afb:016b
    99 1afb:017e   100 1afb:0181   101 1afb:0199   102 1afb:01ac
   103 1afb:01b1   104 1afb:01b5   105 1afb:01bd   111 1afb:01bf
   112 1afb:01cf   120 1afb:01d1   121 1afb:01e7   123 1afb:01ee
   115 1afb:01f0   116 1afb:01f6   142 1afb:01f8   143 1afb:0207
   144 1afb:0214   145 1afb:021a   147 1afb:0226   149 1afb:0229
   150 1afb:0238   151 1afb:023c   152 1afb:0242   154 1afb:0257
   156 1afb:026a     0 1afb:0271   163 1afb:0272   166 1afb:027d
   168 1afb:0285   179 1afb:0289   171 1afb:0295   172 1afb:029a
   175 1afb:029c   181 1afb:02a8   182 1afb:02ac   183 1afb:02be
   184 1afb:02cf   186 1afb:02da   187 1afb:02ed   189 1afb:02f8
   191 1afb:02fa   196 1afb:030e     0 1afb:0317   221 1afb:0318
   231 1afb:0322   232 1afb:032f   234 1afb:0333   238 1afb:0339
   239 1afb:034a   240 1afb:0350   243 1afb:035b   244 1afb:0367
   253 1afb:036a   256 1afb:0372   259 1afb:0393   269 1afb:039d
   271 1afb:03a8   272 1afb:03bb   274 1afb:03c6   276 1afb:03e8
   277 1afb:03ed   278 1afb:03f1   247 1afb:03fa   248 1afb:03fd
   249 1afb:0410   250 1afb:0415   251 1afb:041d   261 1afb:041f
   262 1afb:0435   264 1afb:043c   282 1afb:043e   283 1afb:044b
   284 1afb:0451   286 1afb:045a   288 1afb:045d   289 1afb:0469
   290 1afb:046c     0 1afb:0471

Line numbers for R:\MAX\lib\Lquilibr.lib(editwin.c) segment EDITWIN_TEXT

    72 1b42:0002     0 1b42:0021    79 1b42:0022     0 1b42:0041
    85 1b42:0042    86 1b42:0045    89 1b42:0078     0 1b42:0079
    93 1b42:007a    96 1b42:00c2     0 1b42:00c3   100 1b42:00c4
   103 1b42:00f8     0 1b42:00f9   134 1b42:00fa   136 1b42:0102
   142 1b42:0107   144 1b42:010c   145 1b42:0119   146 1b42:0126
   149 1b42:0133   156 1b42:0157   161 1b42:017c   162 1b42:01ef
   168 1b42:01f4   178 1b42:0201   191 1b42:0224   195 1b42:0239
   196 1b42:0242   201 1b42:0247   202 1b42:0252   203 1b42:025c
   208 1b42:026b   210 1b42:0279   211 1b42:0286   214 1b42:028c
   217 1b42:0293   219 1b42:02ba   221 1b42:02c4   223 1b42:02e3
   225 1b42:02f4   227 1b42:02fa   231 1b42:0305   233 1b42:030b
   234 1b42:0314   237 1b42:031e   238 1b42:032e   239 1b42:0334
   244 1b42:0349   247 1b42:034e   248 1b42:0353   250 1b42:0358
   251 1b42:0369   252 1b42:0377   253 1b42:0385   254 1b42:038b
   256 1b42:0394   257 1b42:039a   258 1b42:03a0   259 1b42:03a6
   260 1b42:03ac   262 1b42:03b1   263 1b42:03b3   267 1b42:03c8
   268 1b42:03cf   271 1b42:03e2   274 1b42:03fc   275 1b42:0402
   276 1b42:0416   278 1b42:042a   279 1b42:0432   280 1b42:043c
   282 1b42:0476   283 1b42:0484   285 1b42:0487   286 1b42:04a7
   288 1b42:04aa   304 1b42:04b2   305 1b42:04bc   307 1b42:04d3
   308 1b42:04e6   310 1b42:0504   312 1b42:050a   313 1b42:051a
   315 1b42:0520   317 1b42:0525   320 1b42:0528   325 1b42:0531
   326 1b42:0542   333 1b42:0559   334 1b42:057e   335 1b42:0585
   336 1b42:0597   337 1b42:05b6   338 1b42:05bb   342 1b42:05c8
   343 1b42:05ef   344 1b42:0611   345 1b42:0616   352 1b42:0619
   353 1b42:0630   359 1b42:0633   360 1b42:063a   363 1b42:0640
   364 1b42:0647   369 1b42:0650   374 1b42:065c   379 1b42:0690
   384 1b42:06a5   386 1b42:06b6   387 1b42:06c6   388 1b42:06d6
   390 1b42:06eb   391 1b42:06fc   392 1b42:0701   397 1b42:070b
   399 1b42:0713   400 1b42:0725   401 1b42:0735   404 1b42:074a
   413 1b42:0759   418 1b42:075f   419 1b42:0766   421 1b42:0782
   422 1b42:0788   440 1b42:078d   425 1b42:07f8   429 1b42:0800
   433 1b42:0809   442 1b42:0812   443 1b42:0817   447 1b42:081f
   449 1b42:0830   450 1b42:0838   451 1b42:0841   455 1b42:084f
   456 1b42:0852   458 1b42:0857   460 1b42:0872   462 1b42:0875
   463 1b42:087c   464 1b42:0882   465 1b42:0884   514 1b42:088a
   515 1b42:089b   523 1b42:08b2   530 1b42:08b8   531 1b42:0925
   533 1b42:0930   468 1b42:0933   469 1b42:093a   470 1b42:0940
   471 1b42:0943   472 1b42:0949   474 1b42:094c   475 1b42:0953
   476 1b42:0959   477 1b42:095c   478 1b42:0962   480 1b42:0965
   481 1b42:096c   482 1b42:0972   483 1b42:0975   484 1b42:097b
   486 1b42:097e   487 1b42:0984   489 1b42:0987   490 1b42:098d
   492 1b42:0990   493 1b42:0996   495 1b42:0999   496 1b42:099f
   498 1b42:09a2   499 1b42:09a8   501 1b42:09ab   502 1b42:09b1
   505 1b42:09b4   506 1b42:09ba   508 1b42:09bd   509 1b42:09c3
   534 1b42:09ce   538 1b42:09d9   544 1b42:09f6   546 1b42:0a15
   547 1b42:0a32   548 1b42:0a37   549 1b42:0a3d   552 1b42:0a43
   562 1b42:0a45   567 1b42:0a85   573 1b42:0aaf   574 1b42:0ab6
   575 1b42:0abc   576 1b42:0ac7   577 1b42:0ace   579 1b42:0ad4
   580 1b42:0ad6   585 1b42:0ae0   586 1b42:0aea   587 1b42:0af1
   594 1b42:0af7   602 1b42:0afd   603 1b42:0b02   604 1b42:0b16
   606 1b42:0b19   607 1b42:0b33   608 1b42:0b3a   609 1b42:0b40
   610 1b42:0b46   613 1b42:0b4b   614 1b42:0b50   616 1b42:0b55
   618 1b42:0b67   620 1b42:0b6c   622 1b42:0b78   625 1b42:0b7d
   626 1b42:0b87   641 1b42:0b8e   642 1b42:0ba6   645 1b42:0bae
   656 1b42:0bc4   658 1b42:0bde   661 1b42:0be9   664 1b42:0bf7
   668 1b42:0c0e   669 1b42:0c14   672 1b42:0c33   679 1b42:0c41
   680 1b42:0c51   683 1b42:0c58   685 1b42:0c7f   686 1b42:0c8b
   688 1b42:0c9b   691 1b42:0cba   693 1b42:0ccb   694 1b42:0cd9
   695 1b42:0ce8   697 1b42:0cee   698 1b42:0cfe   699 1b42:0d0e
   702 1b42:0d14   704 1b42:0d22   709 1b42:0d2c   713 1b42:0d35
   716 1b42:0d3c   717 1b42:0d5f   718 1b42:0d72   719 1b42:0d8c
   721 1b42:0d91   724 1b42:0d9b   727 1b42:0da1   728 1b42:0da4
     0 1b42:0da9   734 1b42:0daa   740 1b42:0db5   742 1b42:0dca
   743 1b42:0dd4   744 1b42:0dd9   745 1b42:0dde   748 1b42:0dec
   754 1b42:0e04   756 1b42:0e2b   757 1b42:0e40   758 1b42:0e4a
   759 1b42:0e4f   761 1b42:0e55   765 1b42:0e62   775 1b42:0e78
   776 1b42:0e7a     0 1b42:0e7f   780 1b42:0e80   781 1b42:0e88
   784 1b42:0e9d   785 1b42:0eab   788 1b42:0ec6   789 1b42:0edd
   790 1b42:0edf     0 1b42:0ee5   795 1b42:0ee6   798 1b42:0eeb
   801 1b42:0ef5   806 1b42:0eff   802 1b42:0f07   807 1b42:0f0c
   808 1b42:0f0e     0 1b42:0f13   815 1b42:0f14   819 1b42:0f1d
   821 1b42:0f30   823 1b42:0f43   824 1b42:0f6a   827 1b42:0f75
   838 1b42:0f83   839 1b42:0f88   840 1b42:0f94   841 1b42:0fa6
   842 1b42:0fac   844 1b42:0fc7   848 1b42:0fdd   850 1b42:0ff2
   852 1b42:0ff4   857 1b42:100a   823 1b42:100d   859 1b42:1022
   860 1b42:1024     0 1b42:102b   891 1b42:102c   893 1b42:1037
   901 1b42:103c   903 1b42:1059   904 1b42:1069   905 1b42:1074
   906 1b42:1075   909 1b42:1082   912 1b42:1099   916 1b42:10ab
     0 1b42:10b1   951 1b42:10b2   956 1b42:10bd   959 1b42:10d9
   961 1b42:10eb   962 1b42:10fa   964 1b42:1100   973 1b42:1103
   974 1b42:1105     0 1b42:110b   980 1b42:110c   984 1b42:1115
   987 1b42:111c   988 1b42:1145   990 1b42:1150   992 1b42:1154
   994 1b42:1169   996 1b42:1185   997 1b42:1194   998 1b42:11b0
   999 1b42:11da  1001 1b42:11f2  1003 1b42:11f4  1004 1b42:120c
  1005 1b42:121e  1011 1b42:1226   987 1b42:123e  1014 1b42:1252
  1015 1b42:1254     0 1b42:125b  1044 1b42:125c  1046 1b42:1264
  1049 1b42:126e  1067 1b42:128e  1073 1b42:12bf  1074 1b42:12f1
  1051 1b42:12f3  1061 1b42:12f7  1053 1b42:12fc  1057 1b42:1301
  1055 1b42:1306  1059 1b42:130b  1066 1b42:1310  1064 1b42:1315
  1078 1b42:131a  1079 1b42:1335     0 1b42:133b  1110 1b42:133c
  1117 1b42:1347  1118 1b42:1350  1119 1b42:1360  1122 1b42:1365
  1124 1b42:137a  1125 1b42:1387  1127 1b42:138f  1131 1b42:1398
  1132 1b42:13a3  1133 1b42:13af  1134 1b42:13b6  1135 1b42:13be
  1138 1b42:13c2  1139 1b42:13cd  1141 1b42:13d2  1142 1b42:13d8
  1143 1b42:13de  1144 1b42:13e5  1148 1b42:13fd  1149 1b42:1402
  1150 1b42:140c  1155 1b42:1416  1156 1b42:1421  1159 1b42:1428
  1160 1b42:1431  1163 1b42:1438  1164 1b42:1442  1166 1b42:1447
  1167 1b42:144b  1168 1b42:1451  1169 1b42:1457  1173 1b42:146b
  1174 1b42:1470  1175 1b42:147b  1180 1b42:1480  1181 1b42:1488
  1185 1b42:149b  1187 1b42:14a6  1190 1b42:14ae  1227 1b42:14b8
  1196 1b42:14d7  1197 1b42:14dd  1198 1b42:14e1  1199 1b42:14ee
  1200 1b42:14f3  1201 1b42:14f9  1202 1b42:1503  1203 1b42:1513
  1204 1b42:151c  1208 1b42:1525  1209 1b42:1545  1210 1b42:154a
  1211 1b42:1553  1213 1b42:1558  1215 1b42:155b  1219 1b42:156a
  1221 1b42:157f  1222 1b42:1583  1225 1b42:1587  1191 1b42:158f
  1192 1b42:1592  1193 1b42:15a9  1228 1b42:15ae  1229 1b42:15b4
  1230 1b42:15b7     0 1b42:15bd  1256 1b42:15be  1262 1b42:15ca
  1263 1b42:15d1  1266 1b42:15d8  1267 1b42:15e3  1269 1b42:15e7
  1271 1b42:15ed  1272 1b42:15f6  1276 1b42:1606  1278 1b42:160d
  1279 1b42:1614  1283 1b42:1626  1284 1b42:162f  1286 1b42:1633
  1288 1b42:1639  1289 1b42:1642  1293 1b42:1652  1295 1b42:165c
  1296 1b42:1663  1304 1b42:1675  1305 1b42:1682  1306 1b42:1690
  1307 1b42:1695  1309 1b42:169b  1312 1b42:16b2  1318 1b42:16bf
  1319 1b42:16c2  1322 1b42:16cb  1323 1b42:16d3  1324 1b42:16e2
  1326 1b42:16e8  1332 1b42:16f7  1335 1b42:170c  1338 1b42:170e
  1339 1b42:171c  1340 1b42:1732  1342 1b42:1738  1343 1b42:174b
  1348 1b42:1759  1349 1b42:176e  1350 1b42:177e  1353 1b42:1786
  1354 1b42:179d  1339 1b42:179f  1358 1b42:17aa  1359 1b42:17bd
  1312 1b42:17c9  1361 1b42:17d4  1362 1b42:17de     0 1b42:17e3
  1389 1b42:17e4  1395 1b42:17f0  1396 1b42:17f7  1399 1b42:17fe
  1400 1b42:1809  1402 1b42:180d  1404 1b42:1813  1405 1b42:181c
  1409 1b42:182c  1411 1b42:1833  1412 1b42:183a  1416 1b42:184c
  1417 1b42:1855  1419 1b42:1859  1421 1b42:185f  1422 1b42:1868
  1426 1b42:1878  1428 1b42:1882  1429 1b42:1889  1437 1b42:189b
  1438 1b42:18a8  1439 1b42:18b6  1440 1b42:18bb  1442 1b42:18c1
  1445 1b42:18da  1451 1b42:18e7  1452 1b42:18ed  1455 1b42:18f6
  1456 1b42:1909  1458 1b42:190f  1459 1b42:1922  1464 1b42:1930
  1465 1b42:1942  1466 1b42:1952  1469 1b42:195a  1470 1b42:1971
  1455 1b42:1973  1474 1b42:1981  1475 1b42:1994  1445 1b42:199f
  1477 1b42:19aa  1478 1b42:19b4     0 1b42:19bb  1484 1b42:19bc
  1490 1b42:19c9  1492 1b42:19e0  1493 1b42:19f6  1494 1b42:1a0c
  1495 1b42:1a0d  1497 1b42:1a14  1498 1b42:1a16     0 1b42:1a1b
  1504 1b42:1a1c  1510 1b42:1a26  1512 1b42:1a39  1514 1b42:1a42
  1516 1b42:1a58  1517 1b42:1a5b  1518 1b42:1a5d  1520 1b42:1a63
  1521 1b42:1a67     0 1b42:1a6b  1545 1b42:1a6c  1548 1b42:1a74
  1569 1b42:1a76  1572 1b42:1aa8  1573 1b42:1abb  1574 1b42:1ac9
  1575 1b42:1ad2  1576 1b42:1ad7  1550 1b42:1ae6  1554 1b42:1aeb
  1556 1b42:1af0  1558 1b42:1af5  1560 1b42:1afa  1564 1b42:1aff
  1568 1b42:1b04  1562 1b42:1b09  1566 1b42:1b0e  1552 1b42:1b13
  1577 1b42:1b16     0 1b42:1b1d  1606 1b42:1b1e  1610 1b42:1b2c
  1613 1b42:1b44  1621 1b42:1b51  1622 1b42:1b5b  1614 1b42:1b61
  1615 1b42:1b6a  1616 1b42:1b7a  1618 1b42:1b92  1625 1b42:1ba7
  1629 1b42:1bb6     0 1b42:1bbb  1633 1b42:1bbc  1634 1b42:1bcb
  1635 1b42:1bd5  1636 1b42:1bde  1638 1b42:1be3  1639 1b42:1be9
  1643 1b42:1bef  1644 1b42:1bf1     0 1b42:1bf5  1679 1b42:1bf6
  1689 1b42:1bff  1923 1b42:1c02  1925 1b42:1c7f  1767 1b42:1c86
  1768 1b42:1c89  1769 1b42:1c92  1770 1b42:1c99  1771 1b42:1ca2
  1786 1b42:1ca7  1787 1b42:1caa  1788 1b42:1cb1  1789 1b42:1cb8
  1791 1b42:1cba  1792 1b42:1cbd  1793 1b42:1cc3  1811 1b42:1cc8
  1813 1b42:1cce  1815 1b42:1cd6  1817 1b42:1cde  1832 1b42:1ce0
  1833 1b42:1ce3  1834 1b42:1ce9  1842 1b42:1cec  1844 1b42:1cf1
  1848 1b42:1cf6  1861 1b42:1cf9  1862 1b42:1d14  1863 1b42:1d1b
  1865 1b42:1d1e  1775 1b42:1d23  1777 1b42:1d28  1778 1b42:1d3f
  1779 1b42:1d57  1782 1b42:1d65  1784 1b42:1d7b  1799 1b42:1d7e
  1800 1b42:1d81  1801 1b42:1d8c  1802 1b42:1da6  1804 1b42:1da9
  1805 1b42:1daf  1806 1b42:1dc5  1807 1b42:1dd9  1819 1b42:1ddc
  1820 1b42:1de2  1822 1b42:1dee  1823 1b42:1dfe  1824 1b42:1e0a
  1825 1b42:1e11  1826 1b42:1e17  1827 1b42:1e22  1699 1b42:1e2c
  1700 1b42:1e37  1701 1b42:1e4c  1702 1b42:1e58  1703 1b42:1e61
  1704 1b42:1e66  1708 1b42:1e74  1710 1b42:1e8f  1743 1b42:1e9b
  1746 1b42:1ea0  1747 1b42:1ead  1749 1b42:1eb3  1750 1b42:1eb6
  1751 1b42:1ebe  1691 1b42:1ec4  1693 1b42:1ec9  1695 1b42:1ed6
  1696 1b42:1ee4  1713 1b42:1eeb  1714 1b42:1ef0  1716 1b42:1ef3
  1717 1b42:1efa  1719 1b42:1f00  1722 1b42:1f02  1723 1b42:1f11
  1728 1b42:1f17  1729 1b42:1f1a  1741 1b42:1f35  1868 1b42:1f3a
  1869 1b42:1f3f  1870 1b42:1f48  1876 1b42:1f57  1877 1b42:1f6d
  1878 1b42:1f81  1898 1b42:1f84  1899 1b42:1f89  1900 1b42:1f8c
  1902 1b42:1f94  1903 1b42:1f98  1905 1b42:1f9f  1907 1b42:1fa9
  1880 1b42:1fb5  1882 1b42:1fba  1883 1b42:1fc1  1884 1b42:1fcb
  1889 1b42:1fd6  1896 1b42:1ff1  1926 1b42:1ff4     0 1b42:1ffb

Line numbers for R:\MAX\lib\Lquilibr.lib(fileedit.c) segment FILEEDIT_TEXT

    89 1d41:000c    94 1d41:0013    97 1d41:001b    98 1d41:001e
   100 1d41:0021   102 1d41:003c   103 1d41:0055   105 1d41:005f
   106 1d41:0065   107 1d41:0084   233 1d41:008e   111 1d41:0096
   117 1d41:00b5   121 1d41:00c2   124 1d41:00f0   126 1d41:00f4
   127 1d41:00fa   132 1d41:0113   134 1d41:011e   152 1d41:0129
   153 1d41:015f   155 1d41:0177   156 1d41:0198   157 1d41:01a6
   159 1d41:01ae   160 1d41:01b3   161 1d41:01bc   162 1d41:01cc
   164 1d41:01d4   165 1d41:01de   166 1d41:01eb   171 1d41:01ee
   172 1d41:01f3   174 1d41:0209   175 1d41:0210   177 1d41:0226
   179 1d41:0235   188 1d41:023a   192 1d41:0269   193 1d41:0270
   194 1d41:0284   195 1d41:0293   197 1d41:029e   198 1d41:02a7
   199 1d41:02b7   200 1d41:02bf   201 1d41:02c8   202 1d41:02d8
   204 1d41:02e0   205 1d41:02e6   206 1d41:02eb   207 1d41:030e
   208 1d41:0319   210 1d41:0329   211 1d41:0330   212 1d41:0337
   213 1d41:035a   214 1d41:0365   217 1d41:0375   218 1d41:037b
   220 1d41:038c   221 1d41:0393   222 1d41:03a4   229 1d41:03b1
   234 1d41:03c2   235 1d41:03d6   236 1d41:03e5   237 1d41:03e7
   238 1d41:03f0   239 1d41:0400   240 1d41:0408   241 1d41:0411
   242 1d41:0421   244 1d41:0429   245 1d41:0431   248 1d41:043f
   250 1d41:0448   253 1d41:0459   254 1d41:045c     0 1d41:0461
   259 1d41:0462   260 1d41:0466   261 1d41:0480     0 1d41:0485
   267 1d41:0486   272 1d41:0494   273 1d41:04a3   274 1d41:04b2
   275 1d41:04c4   276 1d41:04d5   278 1d41:04e5   279 1d41:04f3
   281 1d41:0504   283 1d41:0506   284 1d41:051a   286 1d41:0520
   287 1d41:0532   288 1d41:054c   291 1d41:0553   294 1d41:055b
   295 1d41:0588   296 1d41:059a   297 1d41:05ad   301 1d41:05b3
   302 1d41:05bd   303 1d41:05c2   305 1d41:05c8   308 1d41:05dd
   318 1d41:05f3   319 1d41:05f5     0 1d41:05fb   326 1d41:05fc
   330 1d41:0605   333 1d41:061d   347 1d41:0640   348 1d41:0654
   349 1d41:065b   352 1d41:0660   355 1d41:0693   358 1d41:069d
   360 1d41:06a6   361 1d41:06b8   367 1d41:06df   369 1d41:06e2
   371 1d41:06e4   376 1d41:06f3   377 1d41:06ff   336 1d41:0702
   337 1d41:070f   338 1d41:071f   342 1d41:0724   356 1d41:072e
   379 1d41:0730     0 1d41:0735   385 1d41:0736   391 1d41:073e
   392 1d41:075b   393 1d41:0765   396 1d41:0769   397 1d41:0781
   398 1d41:07a2   401 1d41:07bb   404 1d41:07c9   405 1d41:07cc
     0 1d41:07d1   412 1d41:07d2   414 1d41:07da   421 1d41:07e0
   423 1d41:07e8   424 1d41:07fd   427 1d41:081a   429 1d41:081c
   435 1d41:083e   436 1d41:0851   441 1d41:0859   442 1d41:0878
   443 1d41:087d   447 1d41:0880   448 1d41:088f   453 1d41:089b
   454 1d41:08b6   462 1d41:08c0   471 1d41:08c5   472 1d41:08ec
   474 1d41:0919   475 1d41:0926   472 1d41:092c   478 1d41:0935
   479 1d41:0945   478 1d41:0966   483 1d41:096c   486 1d41:097e
   490 1d41:0998   494 1d41:09b0   498 1d41:09b5   500 1d41:09d3
   501 1d41:09da   502 1d41:09e4   504 1d41:09e7   505 1d41:09ea
   508 1d41:09f9   437 1d41:09fe   455 1d41:0a10   456 1d41:0a27
   457 1d41:0a39   459 1d41:0a54   430 1d41:0a5f   509 1d41:0a61
     0 1d41:0a67   530 1d41:0a68   531 1d41:0a6e   532 1d41:0a75
   533 1d41:0a7c   534 1d41:0a82   535 1d41:0a88     0 1d41:0a89
   538 1d41:0a8a   542 1d41:0a95   543 1d41:0ab2   545 1d41:0ac2
   548 1d41:0ac4   550 1d41:0acd   551 1d41:0add   559 1d41:0ae5
   562 1d41:0aef   563 1d41:0af4     0 1d41:0af9   567 1d41:0afa
   571 1d41:0b05   573 1d41:0b1e   575 1d41:0b3f   577 1d41:0b4c
   579 1d41:0b5f   580 1d41:0b78   582 1d41:0b7f   585 1d41:0b93
   586 1d41:0b9c   587 1d41:0ba2   589 1d41:0bb8   591 1d41:0bc2
   592 1d41:0bc5     0 1d41:0bcb   596 1d41:0bcc   597 1d41:0bd1
   598 1d41:0bd3   600 1d41:0bd6   601 1d41:0bdc   602 1d41:0be2
   604 1d41:0bf2   606 1d41:0bf3   607 1d41:0bfa   608 1d41:0bfc
     0 1d41:0c01   638 1d41:0c02   642 1d41:0c10   645 1d41:0c28
   653 1d41:0c35   654 1d41:0c3f   646 1d41:0c45   647 1d41:0c4d
   648 1d41:0c5e   650 1d41:0c6f   657 1d41:0c84   661 1d41:0c94
     0 1d41:0c99

Line numbers for R:\MAX\lib\Lquilibr.lib(print.c) segment PRINT_TEXT

    72 1e0a:000a    73 1e0a:0011    76 1e0a:0016    79 1e0a:001e
    83 1e0a:0033    84 1e0a:0038    86 1e0a:003d    94 1e0a:0063
    95 1e0a:007e    96 1e0a:0088    98 1e0a:008b   102 1e0a:0097
   103 1e0a:00ab   104 1e0a:00b8   106 1e0a:00d7   108 1e0a:00ea
   109 1e0a:00f6   111 1e0a:0104   113 1e0a:0117   114 1e0a:0120
   116 1e0a:0130   118 1e0a:014d   123 1e0a:0165   125 1e0a:0190
   127 1e0a:0197   131 1e0a:01a4   133 1e0a:01b0   135 1e0a:01c5
   136 1e0a:01cb   138 1e0a:01db   139 1e0a:01eb   149 1e0a:01f0
   150 1e0a:01fa   151 1e0a:0210   152 1e0a:021f   154 1e0a:0234
   155 1e0a:023a   157 1e0a:024b   158 1e0a:0260   159 1e0a:027c
   160 1e0a:0282   161 1e0a:0293   163 1e0a:02ab   164 1e0a:02be
   166 1e0a:02d2   167 1e0a:02d8   169 1e0a:02eb   171 1e0a:0312
   172 1e0a:0318   173 1e0a:032a   175 1e0a:033a   176 1e0a:0340
   177 1e0a:0353   179 1e0a:0367   180 1e0a:036d   181 1e0a:037e
   185 1e0a:0386   187 1e0a:03ac   188 1e0a:03b5   189 1e0a:03c6
   191 1e0a:03d6   192 1e0a:03e4   195 1e0a:03f6   196 1e0a:03fc
   197 1e0a:0410   199 1e0a:0424   200 1e0a:0429   202 1e0a:043d
   204 1e0a:046f   217 1e0a:047f   218 1e0a:0485   314 1e0a:049d
   315 1e0a:04c5   345 1e0a:04d8   346 1e0a:04ed   348 1e0a:04f4
   349 1e0a:0501   352 1e0a:0515   220 1e0a:0518   221 1e0a:051f
   222 1e0a:0524   224 1e0a:0527   225 1e0a:052d   226 1e0a:053d
   228 1e0a:054f   229 1e0a:0554   232 1e0a:0559   234 1e0a:0572
   235 1e0a:0582   236 1e0a:0594   241 1e0a:0597   242 1e0a:05aa
   243 1e0a:05bb   244 1e0a:05c2   245 1e0a:05d2   246 1e0a:05d7
   247 1e0a:05da   248 1e0a:05ee   249 1e0a:0601   251 1e0a:0606
   253 1e0a:0609   254 1e0a:061c   255 1e0a:0630   256 1e0a:0635
   257 1e0a:0645   259 1e0a:0648   260 1e0a:065e   261 1e0a:0671
   262 1e0a:0683   264 1e0a:0688   268 1e0a:068b   270 1e0a:069e
   271 1e0a:06ae   272 1e0a:06c0   276 1e0a:06c6   277 1e0a:06d9
   283 1e0a:06ed   284 1e0a:0700   290 1e0a:0715   291 1e0a:072b
   292 1e0a:073b   293 1e0a:074d   294 1e0a:0754   295 1e0a:0765
   296 1e0a:0776   297 1e0a:077b   298 1e0a:077e   299 1e0a:0792
   318 1e0a:079c   330 1e0a:07c5   320 1e0a:07d8   332 1e0a:07e8
   341 1e0a:07f9   335 1e0a:07fc   353 1e0a:0806   354 1e0a:0824
   361 1e0a:0828   367 1e0a:0846   369 1e0a:084b   370 1e0a:0853
   371 1e0a:0865   372 1e0a:086a     0 1e0a:086f   396 1e0a:0870
   398 1e0a:087a   399 1e0a:0889   400 1e0a:088f   402 1e0a:0894
   405 1e0a:089d   408 1e0a:08bc   434 1e0a:08bf   415 1e0a:08cb
   418 1e0a:08df   424 1e0a:08e8   427 1e0a:08fd   433 1e0a:0906
   435 1e0a:0928     0 1e0a:092d   440 1e0a:092e   441 1e0a:0936
   443 1e0a:093d   444 1e0a:0951   447 1e0a:0957   451 1e0a:0966
   455 1e0a:096f   456 1e0a:097b   458 1e0a:0997   463 1e0a:09a3
   465 1e0a:09ac   466 1e0a:09b2   467 1e0a:09be   474 1e0a:09ca
   476 1e0a:09e1   477 1e0a:09ee   478 1e0a:09fd   469 1e0a:0a03
   470 1e0a:0a11   481 1e0a:0a16   482 1e0a:0a22   485 1e0a:0a2a
   487 1e0a:0a33   488 1e0a:0a47   487 1e0a:0a63   489 1e0a:0a6f
   496 1e0a:0a86   497 1e0a:0a9f   501 1e0a:0acc   502 1e0a:0ad3
     0 1e0a:0ad9

Line numbers for R:\MAX\lib\Lenginer.lib(adf.c) segment ADF_TEXT

    75 1eb7:000a    80 1eb7:0011    81 1eb7:001b    83 1eb7:0030
    84 1eb7:0046    85 1eb7:004b    89 1eb7:0058    90 1eb7:005a
    94 1eb7:005c    95 1eb7:006c    96 1eb7:0071    97 1eb7:007a
    98 1eb7:008c   101 1eb7:0090   102 1eb7:00a5   103 1eb7:00c1
   104 1eb7:00c6   112 1eb7:00ca   113 1eb7:00cd    93 1eb7:00e6
   105 1eb7:00eb   106 1eb7:0101   107 1eb7:0117   108 1eb7:011c
   110 1eb7:012c   114 1eb7:012f     0 1eb7:0133   133 1eb7:0134
   159 1eb7:013d   160 1eb7:0151   161 1eb7:0165   162 1eb7:0179
   163 1eb7:017e   166 1eb7:0187   167 1eb7:018f   169 1eb7:01a7
   172 1eb7:01bf   173 1eb7:01d7   174 1eb7:01e0   181 1eb7:01ee
   186 1eb7:01f9   188 1eb7:0211   433 1eb7:0214   190 1eb7:023a
   227 1eb7:023e   214 1eb7:0259   215 1eb7:0264   217 1eb7:0269
   218 1eb7:0272   224 1eb7:0277   225 1eb7:027f   227 1eb7:028a
   198 1eb7:028d   199 1eb7:0292   200 1eb7:0297   210 1eb7:029a
   211 1eb7:029f   212 1eb7:02a4   195 1eb7:02a7   196 1eb7:02ac
   202 1eb7:02af   203 1eb7:02b4   204 1eb7:02b9   206 1eb7:02bc
   207 1eb7:02c1   208 1eb7:02c6   429 1eb7:02c9   430 1eb7:02d0
   432 1eb7:02d8   230 1eb7:02db   231 1eb7:02e6   232 1eb7:02ef
   233 1eb7:02fa   239 1eb7:0302   241 1eb7:0311   242 1eb7:0329
   243 1eb7:035a   244 1eb7:036a   249 1eb7:037a   250 1eb7:0390
   253 1eb7:0395   335 1eb7:0398   342 1eb7:03a2   344 1eb7:03a8
   345 1eb7:03b2   346 1eb7:03b7   351 1eb7:03d3   352 1eb7:03da
   353 1eb7:03e1   354 1eb7:03f2   356 1eb7:0406   357 1eb7:0417
   359 1eb7:042b   360 1eb7:0430   362 1eb7:0447   364 1eb7:045d
   365 1eb7:0464   366 1eb7:0475   368 1eb7:0489   369 1eb7:048e
   375 1eb7:049d   376 1eb7:04ab   377 1eb7:04ba   379 1eb7:04bf
   381 1eb7:04c2   388 1eb7:04d0   389 1eb7:04e7   392 1eb7:04f1
   393 1eb7:0500   395 1eb7:0518   396 1eb7:051d   397 1eb7:052a
   400 1eb7:0530   402 1eb7:0533   407 1eb7:053b   408 1eb7:0546
   409 1eb7:0558   411 1eb7:055d   413 1eb7:0560   420 1eb7:056e
   422 1eb7:057b   423 1eb7:058d   256 1eb7:059d   257 1eb7:05dd
   260 1eb7:05e7   267 1eb7:05f5   269 1eb7:05fc   270 1eb7:0613
   273 1eb7:061d   274 1eb7:062c   276 1eb7:0644   277 1eb7:0649
   279 1eb7:064f   280 1eb7:0657   282 1eb7:065d   284 1eb7:0666
   287 1eb7:066b   289 1eb7:0674   291 1eb7:067e   295 1eb7:0693
   300 1eb7:06ad   304 1eb7:06bc   300 1eb7:06e2   310 1eb7:06f3
   316 1eb7:06fa   325 1eb7:0743   333 1eb7:0765   435 1eb7:076e
   436 1eb7:077c   437 1eb7:0783   439 1eb7:0794   440 1eb7:079b
   444 1eb7:07ac   445 1eb7:07c3   446 1eb7:07c5     0 1eb7:07cb
   453 1eb7:07cc   456 1eb7:07d7   457 1eb7:07ee   458 1eb7:07f5
   461 1eb7:07fc   462 1eb7:080e   463 1eb7:0816   465 1eb7:0820
   466 1eb7:0822   469 1eb7:0830     0 1eb7:0835   474 1eb7:0836
   477 1eb7:0841   478 1eb7:0858   479 1eb7:085f   482 1eb7:0866
   483 1eb7:0878   484 1eb7:0880   486 1eb7:088a   487 1eb7:088c
   489 1eb7:089a     0 1eb7:089f

Line numbers for R:\MAX\lib\Lenginer.lib(BIOSID.asm) segment BIOSID_TEXT

    61 1f41:0000    71 1f41:0003    72 1f41:0004    74 1f41:0005
    75 1f41:0006    76 1f41:0007    77 1f41:000a    78 1f41:000c
    79 1f41:000f    85 1f41:0011    86 1f41:0014    87 1f41:0016
    89 1f41:0019    90 1f41:001d    91 1f41:0020    92 1f41:0022
    93 1f41:0024    98 1f41:0029    99 1f41:002b   100 1f41:002e
   102 1f41:0031   103 1f41:0033   104 1f41:0035   106 1f41:003a
   107 1f41:003e   108 1f41:0040   110 1f41:0043   111 1f41:0047
   113 1f41:004a   114 1f41:004e   116 1f41:0051   117 1f41:0055
   119 1f41:0058   120 1f41:005c   121 1f41:005f   124 1f41:0062
   125 1f41:0065   126 1f41:0067   127 1f41:006a   128 1f41:006d
   130 1f41:0070   131 1f41:0072   132 1f41:0075   133 1f41:0078
   139 1f41:007b   140 1f41:007d   141 1f41:0080   142 1f41:0083
   143 1f41:0085   144 1f41:0087   145 1f41:0089   146 1f41:008b
   147 1f41:0090   148 1f41:0093   149 1f41:0095   150 1f41:009a
   151 1f41:009c   152 1f41:009f   157 1f41:00a3   158 1f41:00a4
   159 1f41:00a5   160 1f41:00a8   161 1f41:00aa   162 1f41:00ad
   163 1f41:00b0   164 1f41:00b3   165 1f41:00b5   166 1f41:00b6
   170 1f41:00b7   171 1f41:00bd   172 1f41:00c2   177 1f41:00c4
   178 1f41:00c7   179 1f41:00cb   180 1f41:00ce   182 1f41:00d0
   183 1f41:00d1   185 1f41:00d2   189 1f41:00d6   201 1f41:00d6
   203 1f41:00d7   207 1f41:00d8   208 1f41:00da   210 1f41:00dc
   211 1f41:00de   212 1f41:00e0   216 1f41:00e2   217 1f41:00e5
   218 1f41:00e6   220 1f41:00e8   221 1f41:00ea   223 1f41:00eb
   224 1f41:00ec   228 1f41:00ee   230 1f41:00ef   231 1f41:00f1
   233 1f41:00f3   234 1f41:00f5   237 1f41:00f7   239 1f41:00f8
   241 1f41:00f9   243 1f41:00fa

Line numbers for R:\MAX\lib\Lenginer.lib(cfg_info.c) segment CFG_INFO_TEXT

    78 1f50:000c    79 1f50:0017    80 1f50:0024    82 1f50:0031
    83 1f50:005d    84 1f50:008a    85 1f50:0097    87 1f50:00c0
    88 1f50:00c2    90 1f50:00dd    91 1f50:0105    92 1f50:0112
    93 1f50:0136    94 1f50:0143    96 1f50:0148    97 1f50:0155
    99 1f50:016c   101 1f50:0198   102 1f50:01a5   103 1f50:01b2
   104 1f50:01ce   105 1f50:01db   108 1f50:01e9   109 1f50:01f5
   112 1f50:020c   114 1f50:0238   115 1f50:0244   118 1f50:025b
   120 1f50:0287   121 1f50:0293   124 1f50:02aa   126 1f50:02d6
   128 1f50:02e4   129 1f50:02f1   130 1f50:02fe   131 1f50:0314
   132 1f50:0338   133 1f50:035c   135 1f50:036a   140 1f50:0377
   141 1f50:038a   146 1f50:039a   147 1f50:03b7   148 1f50:03be
   149 1f50:03cc   150 1f50:03ed   160 1f50:040f   161 1f50:041c
   162 1f50:0429   163 1f50:0437   165 1f50:0455   166 1f50:0462
   167 1f50:046a   168 1f50:047d   169 1f50:0493   170 1f50:049a
   171 1f50:04b3   172 1f50:04bf   174 1f50:04c7   176 1f50:04d1
     0 1f50:04d7   183 1f50:04d8   184 1f50:04e2   185 1f50:04ee
   186 1f50:04fa   187 1f50:0506   192 1f50:0519   193 1f50:0539
   195 1f50:054b     0 1f50:054f   202 1f50:0550   203 1f50:055a
   204 1f50:0566   205 1f50:0572   206 1f50:057e   211 1f50:0591
   212 1f50:05b0   214 1f50:05c2     0 1f50:05c7   221 1f50:05c8
   222 1f50:05cf   223 1f50:05db   224 1f50:05e7   225 1f50:05f3
   229 1f50:0606   231 1f50:0618     0 1f50:061d   235 1f50:061e
   236 1f50:0625   237 1f50:0631   238 1f50:063d   239 1f50:0649
   243 1f50:065c   245 1f50:066e     0 1f50:0673   249 1f50:0674
   250 1f50:067b   251 1f50:0687   252 1f50:0693   253 1f50:069f
   257 1f50:06b2   259 1f50:06c4     0 1f50:06c9   262 1f50:06ca
   265 1f50:06d1   266 1f50:06d8   268 1f50:06fd   269 1f50:06ff
   277 1f50:074d   279 1f50:0752     0 1f50:0757   282 1f50:0758
   283 1f50:075b   285 1f50:077e     0 1f50:077f   294 1f50:0780
   304 1f50:0789   306 1f50:078e   307 1f50:079a   308 1f50:07a8
   309 1f50:07cc   310 1f50:07d2   311 1f50:07e0   312 1f50:07f7
   313 1f50:0806   314 1f50:081f   315 1f50:082d   316 1f50:0839
   319 1f50:083e   320 1f50:0852   321 1f50:085e   322 1f50:0865
   323 1f50:086c   326 1f50:0891   327 1f50:08b3   329 1f50:08d8
   330 1f50:08e9   331 1f50:090a   333 1f50:092d   334 1f50:0952
   335 1f50:0979   337 1f50:09a4   343 1f50:09aa   344 1f50:09f1
   349 1f50:09f3   353 1f50:0a35   354 1f50:0a45     0 1f50:0a4b
   358 1f50:0a4c   361 1f50:0a4f   363 1f50:0a54   367 1f50:0a81
   368 1f50:0a87   369 1f50:0a9f   372 1f50:0ab0   373 1f50:0ab6
   374 1f50:0ace   377 1f50:0aed   379 1f50:0af2     0 1f50:0af5
   383 1f50:0af6   384 1f50:0b02   385 1f50:0b0f   389 1f50:0b1b
   392 1f50:0b30   403 1f50:0b3c   404 1f50:0b53   405 1f50:0b61
   406 1f50:0b6f   407 1f50:0b7d   408 1f50:0b89   410 1f50:0b99
   413 1f50:0ba5   415 1f50:0bb6   416 1f50:0bbf   418 1f50:0bc6
   421 1f50:0beb   422 1f50:0c0d   425 1f50:0c32   426 1f50:0c43
   428 1f50:0c64   429 1f50:0c86   430 1f50:0c90   431 1f50:0cb1
   438 1f50:0cd8   443 1f50:0d35   444 1f50:0d44   445 1f50:0d59
   446 1f50:0d67   448 1f50:0d7f   449 1f50:0dae   450 1f50:0dba
   453 1f50:0dd2     0 1f50:0dd9   457 1f50:0dda   458 1f50:0de1
   459 1f50:0dee   460 1f50:0dfd   462 1f50:0e0a   465 1f50:0e31
   466 1f50:0e59   467 1f50:0e65   468 1f50:0e73   471 1f50:0e87
   472 1f50:0e93   474 1f50:0ea5     0 1f50:0ea9   481 1f50:0eaa
   482 1f50:0eb4   483 1f50:0ec1   486 1f50:0ed0   487 1f50:0edd
   489 1f50:0eff   491 1f50:0f37   492 1f50:0f6f   494 1f50:0f91
   495 1f50:0f93   496 1f50:0f9f   498 1f50:0fb1     0 1f50:0fb5
   508 1f50:0fb6   514 1f50:0fc2   515 1f50:0fcd   516 1f50:0fd8
   517 1f50:0fee   518 1f50:0ff2   519 1f50:1015   522 1f50:1027
     0 1f50:102d   530 1f50:102e   534 1f50:1039   536 1f50:1043
   537 1f50:105a   538 1f50:1068   539 1f50:1074   542 1f50:108a
   543 1f50:1117   545 1f50:1135   547 1f50:1143     0 1f50:1149

Line numbers for R:\MAX\lib\Lenginer.lib(cputext.c) segment CPUTEXT_TEXT

    17 2064:000a    19 2064:0011    34 2064:0014    33 2064:003c
    20 2064:0041    21 2064:0046    22 2064:004b    23 2064:0050
    24 2064:0055    25 2064:005a    26 2064:005f    27 2064:0064
    28 2064:0069    29 2064:006e    30 2064:0073    31 2064:0078
    32 2064:008a    35 2064:009c     0 2064:00a1    38 2064:00a2
    39 2064:00a5    49 2064:00a8    48 2064:00c3    40 2064:00c8
    41 2064:00cd    42 2064:00d2    43 2064:00d7    44 2064:00dc
    45 2064:00e1    46 2064:00e6    50 2064:00eb     0 2064:00ed

Line numbers for R:\MAX\lib\Lenginer.lib(engine.c) segment ENGINE_TEXT

    71 2072:000e    72 2072:0016    73 2072:001f    74 2072:0030
    75 2072:003e    77 2072:0052   163 2072:0055    79 2072:0084
    81 2072:008c    83 2072:00a0    86 2072:00a8    88 2072:00b8
    90 2072:00c9    98 2072:00dd    99 2072:00ef   101 2072:00f3
   102 2072:00fe   105 2072:0102   106 2072:010e   107 2072:0122
   108 2072:0134   109 2072:0143   119 2072:0158   122 2072:0174
   130 2072:0177   131 2072:019c   133 2072:01a1   134 2072:01a4
   139 2072:01a7   140 2072:01b3   144 2072:01ca   145 2072:01d7
   147 2072:01da   148 2072:01ee   149 2072:0214   151 2072:021d
   152 2072:0220   154 2072:0234   155 2072:0248   156 2072:0263
   159 2072:026f   161 2072:027c   162 2072:0286   165 2072:0288
     0 2072:028f   169 2072:0290   170 2072:0298   171 2072:02ad
   172 2072:02c5   173 2072:02d5   174 2072:02e5   175 2072:02f5
   176 2072:0305   177 2072:0315   178 2072:0325   179 2072:0335
   180 2072:0345   181 2072:0355   182 2072:0360   183 2072:0370
   184 2072:0380   185 2072:038c   186 2072:03ad   187 2072:03b9
   189 2072:03cf   190 2072:03db   192 2072:03f1   193 2072:03fd
   195 2072:0413   196 2072:041f   198 2072:0435   199 2072:0441
   208 2072:0457   210 2072:046c   211 2072:047f   213 2072:048f
   214 2072:0496   215 2072:049f   216 2072:04b9   218 2072:04cc
   219 2072:04ce   220 2072:04f2   223 2072:0508   226 2072:0512
   227 2072:0514     0 2072:0519   234 2072:051a   248 2072:0522
   250 2072:0544   251 2072:055a   252 2072:0562   253 2072:0570
   261 2072:0578   262 2072:0585   267 2072:0595   262 2072:05c0
   274 2072:05d1     0 2072:05d7   278 2072:05d8   282 2072:05df
   283 2072:05ff     0 2072:0603

Line numbers for R:\MAX\lib\Lenginer.lib(glist.c) segment GLIST_TEXT

    33 20d2:0004    34 20d2:0012    35 20d2:002c    36 20d2:0035
    37 20d2:0039    38 20d2:0045     0 20d2:004b    43 20d2:004c
    44 20d2:0054    45 20d2:0060    46 20d2:0072    47 20d2:0084
    52 20d2:0091    48 20d2:009d    53 20d2:00af     0 20d2:00b5
    57 20d2:00b6    58 20d2:00bd    59 20d2:00c4    60 20d2:00d7
    61 20d2:00db    62 20d2:00f2    64 20d2:00f5     0 20d2:00f9
    70 20d2:00fa    71 20d2:0105   106 20d2:0115   110 20d2:0122
   111 20d2:0142   113 20d2:014d   116 20d2:0162   117 20d2:0170
   119 20d2:017a   121 20d2:0181   123 20d2:01a5   124 20d2:01a9
   125 20d2:01b4   128 20d2:01be   130 20d2:01ce   131 20d2:01e9
   133 20d2:01fb   134 20d2:0202    76 20d2:020a    78 20d2:0223
    79 20d2:022b    80 20d2:023e    82 20d2:0259    84 20d2:0271
    86 20d2:0281    87 20d2:0288    89 20d2:028b    90 20d2:029a
    91 20d2:02a7    93 20d2:02ba    94 20d2:02bc    95 20d2:02ca
    96 20d2:02d7    98 20d2:02df   138 20d2:02e8   139 20d2:02f2
     0 20d2:02f9   146 20d2:02fa   147 20d2:0305   149 20d2:0316
   155 20d2:0325   198 20d2:033c   157 20d2:0349   158 20d2:0354
   159 20d2:0367   161 20d2:0382   163 20d2:039d   168 20d2:03a4
   169 20d2:03b1   170 20d2:03c5   172 20d2:03d6   173 20d2:03eb
   175 20d2:03f6   176 20d2:03f8   178 20d2:0408   179 20d2:040f
   187 20d2:0419   188 20d2:0421   189 20d2:0431   191 20d2:0445
   192 20d2:0451   193 20d2:045e   194 20d2:047b   195 20d2:0497
   147 20d2:049d   199 20d2:04b1     0 20d2:04b7   204 20d2:04b8
   207 20d2:04c3   211 20d2:04d2   213 20d2:04ec   214 20d2:04fe
   215 20d2:0513   217 20d2:052c   218 20d2:053a   219 20d2:0550
   221 20d2:056b   222 20d2:056d   223 20d2:0583   225 20d2:0599
   232 20d2:05ac   233 20d2:05b8   234 20d2:05d0   235 20d2:05d4
   236 20d2:05e7   238 20d2:05ed   239 20d2:05f7   240 20d2:0616
   242 20d2:061d   243 20d2:0622     0 20d2:0629   247 20d2:062a
   248 20d2:0635   253 20d2:063b   254 20d2:064c   255 20d2:065e
   257 20d2:0668   260 20d2:0679   262 20d2:0693   263 20d2:06a6
     0 20d2:06ab   268 20d2:06ac   269 20d2:06b3   271 20d2:06bc
   272 20d2:06da     0 20d2:06df   278 20d2:06e0   282 20d2:06eb
   283 20d2:06fb   285 20d2:070b   288 20d2:0729   291 20d2:0740
   292 20d2:074e   293 20d2:075f   295 20d2:0770   296 20d2:077f
   297 20d2:0794   298 20d2:079e     0 20d2:07a3   303 20d2:07a4
   307 20d2:07af   309 20d2:07c9   310 20d2:07d4   312 20d2:07fb
   313 20d2:0804   314 20d2:0819     0 20d2:081f   319 20d2:0820
   320 20d2:0827   321 20d2:082c   323 20d2:0839   327 20d2:083c
   328 20d2:084e   330 20d2:0858   332 20d2:085b     0 20d2:0861
   337 20d2:0862   338 20d2:0868   339 20d2:086d   341 20d2:087a
   345 20d2:087d   346 20d2:0887   348 20d2:0891   350 20d2:0894
     0 20d2:0899   355 20d2:089a   356 20d2:08a5   360 20d2:08ab
   361 20d2:08c4   363 20d2:08c5   364 20d2:08df   369 20d2:08e6
   370 20d2:08f0   371 20d2:08fe   373 20d2:090a   375 20d2:090d
     0 20d2:0913

Line numbers for R:\MAX\lib\Lenginer.lib(hdw_info.c) segment HDW_INFO_TEXT

   181 2163:0004   182 2163:000d   184 2163:0012   185 2163:0021
   189 2163:0030   190 2163:003c   191 2163:004d   192 2163:0058
   194 2163:0068   197 2163:0078   198 2163:0088   201 2163:0098
   204 2163:00a8   207 2163:00b0   208 2163:00c0   213 2163:00db
   214 2163:00e3   216 2163:00fa   219 2163:0102   221 2163:011c
   224 2163:0123   227 2163:012a   232 2163:0131   254 2163:015f
   234 2163:0166   238 2163:016d   242 2163:0174   245 2163:017b
   248 2163:0182   251 2163:0189   260 2163:0190   262 2163:0198
   268 2163:01b6   269 2163:01e3   274 2163:0200   275 2163:0223
   276 2163:022f   277 2163:0241   279 2163:0253   281 2163:0270
   288 2163:0280   289 2163:02c4   294 2163:02e1   295 2163:02ed
   298 2163:030d   299 2163:0319   300 2163:0321   302 2163:0333
   303 2163:0339   305 2163:034b   308 2163:0368   314 2163:0398
   317 2163:03c2   319 2163:03ca   321 2163:03d2   322 2163:03f4
   325 2163:03fe   326 2163:0408   329 2163:0426   330 2163:044f
   331 2163:0473   332 2163:0497   333 2163:04bb   334 2163:04df
   338 2163:04eb   339 2163:050b   344 2163:0529   354 2163:0549
   346 2163:0551   356 2163:055b   359 2163:0578   361 2163:05a2
   362 2163:05c6   366 2163:05d1   367 2163:05f8   371 2163:0616
   373 2163:0620   391 2163:0646   392 2163:064e   348 2163:0650
   350 2163:0659   352 2163:0662   375 2163:066b   393 2163:0673
   394 2163:067b   397 2163:0699   401 2163:06a8   403 2163:06b3
   405 2163:06dd   378 2163:06e0   381 2163:06e7   385 2163:06ee
   386 2163:0740   388 2163:0743   406 2163:074b   409 2163:0767
   416 2163:0785   417 2163:07b4   425 2163:07d2   426 2163:07ff
   434 2163:081d   435 2163:087b   438 2163:0891   444 2163:08e9
   445 2163:08f5   447 2163:08fd   449 2163:0907   452 2163:0924
   455 2163:0933   456 2163:0952   460 2163:095e   462 2163:0993
   464 2163:099f   466 2163:09c7   471 2163:09ef   473 2163:0a1d
   478 2163:0a29   479 2163:0a3b   480 2163:0a42   481 2163:0a5a
   483 2163:0a77   486 2163:0a86   490 2163:0a96   491 2163:0acf
   504 2163:0aed   505 2163:0b6f   506 2163:0b8d   509 2163:0b9d
   510 2163:0bb9   513 2163:0bd7   514 2163:0bf3   515 2163:0c11
   517 2163:0c21   519 2163:0c2d   521 2163:0c4f   523 2163:0c5b
   525 2163:0c7d   526 2163:0c8d   527 2163:0c99   529 2163:0cbb
   530 2163:0cc7   535 2163:0ce9   538 2163:0cf8   539 2163:0d07
   540 2163:0d16   541 2163:0d26   543 2163:0d3a   544 2163:0d49
   545 2163:0d59   546 2163:0d69   547 2163:0d77   548 2163:0d87
   549 2163:0da7   550 2163:0dad   551 2163:0dc0   553 2163:0de4
   557 2163:0def   559 2163:0dfe   560 2163:0e0d   561 2163:0e1c
   562 2163:0e2c   564 2163:0e40   565 2163:0e4f   567 2163:0e5f
   568 2163:0e8b   569 2163:0eac   570 2163:0eba   571 2163:0eca
   572 2163:0ed2   576 2163:0ee2     0 2163:0ee7   584 2163:0ee8
   587 2163:0ef3   588 2163:0f00   590 2163:0f0d   593 2163:0f23
   595 2163:0f35   597 2163:0f59   598 2163:0f65   599 2163:0f6d
   601 2163:0f89   602 2163:0f95   607 2163:0fb1   610 2163:0fd7
   614 2163:0ffb   615 2163:101d   617 2163:1038   620 2163:1046
   623 2163:1069   627 2163:1084   628 2163:10ae   631 2163:10bc
   634 2163:10df   590 2163:10fa   637 2163:1111     0 2163:1117
   644 2163:1118   647 2163:1123   648 2163:1130   649 2163:113d
   650 2163:114b   651 2163:1157   656 2163:116c   657 2163:1178
   656 2163:1191   658 2163:11a3   664 2163:11b1   653 2163:11ed
   668 2163:11f9   674 2163:120d   675 2163:1219   674 2163:1232
   676 2163:1244   682 2163:1252   670 2163:128e   684 2163:129a
   685 2163:129d   686 2163:12a9   688 2163:12c0   689 2163:12cc
   691 2163:12e3     0 2163:12e9   698 2163:12ea   702 2163:12f5
   703 2163:1302   708 2163:1316   709 2163:1324   710 2163:1346
   705 2163:1369   713 2163:1371   716 2163:1381   719 2163:139e
   720 2163:13ac   721 2163:13ce   716 2163:13f1   724 2163:13f9
     0 2163:13ff   731 2163:1400   732 2163:1407   733 2163:1414
   734 2163:1421   735 2163:142f   736 2163:143c   738 2163:144a
   739 2163:145f   740 2163:146b   743 2163:1479   744 2163:148f
   746 2163:14a5   747 2163:14bb   749 2163:14d1   750 2163:14e7
   751 2163:14fd   752 2163:1513   753 2163:1529   754 2163:153f
   755 2163:1555   756 2163:156b   757 2163:1581   758 2163:1597
   759 2163:15ad   760 2163:15c3   761 2163:15d9   762 2163:15ef
   763 2163:1605   764 2163:161b   765 2163:1631   766 2163:1647
   767 2163:165d   768 2163:1673   769 2163:1689   770 2163:169f
   771 2163:16b5   772 2163:16cb   773 2163:16e1   774 2163:16f7
   775 2163:170d   776 2163:1723   777 2163:1739   778 2163:174f
   779 2163:1765   780 2163:177b   781 2163:1791   782 2163:17a7
   783 2163:17bd   784 2163:17d3   785 2163:17e9   786 2163:17ff
   787 2163:1815   788 2163:182b   789 2163:1841   790 2163:1857
   791 2163:186d   792 2163:1883   793 2163:1899   794 2163:18af
   795 2163:18c5   796 2163:18db   797 2163:18f1   798 2163:1907
   799 2163:191d   800 2163:1933   801 2163:1949     0 2163:194d
   808 2163:194e   810 2163:1956   811 2163:1965   812 2163:1972
   813 2163:1984   816 2163:1987   817 2163:1997   818 2163:19a4
   819 2163:19b2   824 2163:19bf   825 2163:19c7   826 2163:19d2
   828 2163:19d7   829 2163:19e2   836 2163:19fc   839 2163:1a18
   842 2163:1a4c     0 2163:1a51   853 2163:1a52   854 2163:1a5a
   859 2163:1a63   861 2163:1a71   863 2163:1a91   864 2163:1aa1
   868 2163:1abb   869 2163:1acd   872 2163:1ae2   874 2163:1aef
   872 2163:1b11   876 2163:1b1c   869 2163:1b21   877 2163:1b49
   878 2163:1b65   864 2163:1b82   885 2163:1ba7   887 2163:1bc8
     0 2163:1bcd   898 2163:1bce   903 2163:1bd9   904 2163:1be0
   906 2163:1bf4   907 2163:1c03   908 2163:1c0c   909 2163:1c21
   910 2163:1c33   911 2163:1c39   912 2163:1c4a   906 2163:1c4d
   915 2163:1c57   916 2163:1c5a     0 2163:1c5f   927 2163:1c60
   930 2163:1c6b   931 2163:1c78   932 2163:1c85   933 2163:1c93
   934 2163:1cad   935 2163:1cbb   936 2163:1cc9   937 2163:1cd6
   938 2163:1ce2   947 2163:1d22   953 2163:1d2e   955 2163:1d64
     0 2163:1d69   962 2163:1d6a   967 2163:1d72   968 2163:1d84
   969 2163:1d8c   970 2163:1d98   988 2163:1da3   972 2163:1db8
   973 2163:1dd2   974 2163:1de0   975 2163:1de1   984 2163:1de3
   985 2163:1dfe   986 2163:1e0c   987 2163:1e0f   978 2163:1e11
   979 2163:1e28   980 2163:1e36   990 2163:1e38   991 2163:1e47
   992 2163:1e68     0 2163:1e6d   996 2163:1e6e   999 2163:1e74
  1009 2163:1e76  1007 2163:1e80  1008 2163:1e92  1004 2163:1e94
  1001 2163:1e99  1010 2163:1ea8  1011 2163:1ead     0 2163:1eb1
  1014 2163:1eb2  1016 2163:1ec0  1019 2163:1ec7  1021 2163:1ed4
  1103 2163:1edf  1025 2163:1efe  1026 2163:1f22  1029 2163:1f25
  1030 2163:1f33  1034 2163:1f47  1035 2163:1f4f  1036 2163:1f5f
  1034 2163:1f80  1038 2163:1f86  1039 2163:1f89  1040 2163:1f95
  1041 2163:1fad  1045 2163:1fc8  1048 2163:1fcb  1049 2163:1fd2
  1053 2163:1fe6  1054 2163:1fee  1055 2163:2002  1053 2163:2023
  1057 2163:2029  1058 2163:202c  1060 2163:2047  1061 2163:2062
  1066 2163:2075  1072 2163:207f  1074 2163:20b5  1075 2163:20b8
  1076 2163:20cd  1079 2163:20d7  1081 2163:2102  1082 2163:210c
  1088 2163:2112  1092 2163:2119  1096 2163:212f  1105 2163:2144
     0 2163:214b  1108 2163:214c  1112 2163:2153  1114 2163:2158
  1115 2163:2173  1116 2163:218e  1117 2163:21a9  1119 2163:21c4
  1121 2163:21c9     0 2163:21cd  1124 2163:21ce  1126 2163:21d9
  1128 2163:21e0  1161 2163:21e9  1131 2163:21fd  1135 2163:2207
  1139 2163:222e  1140 2163:2244  1143 2163:2247  1147 2163:2254
  1148 2163:2296  1151 2163:2298  1155 2163:22a2  1163 2163:22e2
     0 2163:22e7  1169 2163:22e8  1186 2163:22f6  1187 2163:2300
  1188 2163:2307  1189 2163:230e  1191 2163:2314  1192 2163:2325
  1193 2163:2334  1195 2163:233f  1197 2163:2358     0 2163:235d
  1200 2163:235e  1203 2163:2367  1204 2163:237b  1210 2163:237f
  1216 2163:2387  1218 2163:238b  1219 2163:2396  1226 2163:23ac
  1228 2163:23bb  1229 2163:23c2  1232 2163:23ef  1234 2163:23f4
  1235 2163:2411  1236 2163:2428  1237 2163:243b  1238 2163:2458
  1239 2163:2475  1240 2163:2492  1241 2163:24af  1242 2163:24cc
  1246 2163:24eb  1248 2163:2511  1251 2163:2545  1253 2163:254f
  1254 2163:2563  1257 2163:2568  1258 2163:256d  1261 2163:2572
  1262 2163:2579  1263 2163:2590  1267 2163:2595  1268 2163:259f
  1269 2163:25a4  1270 2163:25b6  1273 2163:25c2  1274 2163:25cc
  1277 2163:25d1  1278 2163:25eb  1281 2163:25fc  1282 2163:2603
  1283 2163:262a  1284 2163:2640  1287 2163:2653  1292 2163:2680
  1296 2163:2697  1301 2163:26a8  1307 2163:26b1  1308 2163:26c7
  1310 2163:26d6  1313 2163:26e2  1314 2163:26ee  1315 2163:26f5
  1316 2163:2724  1318 2163:2729  1321 2163:272e  1323 2163:273f
  1326 2163:274c  1329 2163:274e  1331 2163:2758  1332 2163:2762
  1333 2163:2789  1334 2163:279f  1336 2163:27b3  1337 2163:27b6
  1338 2163:27e2  1348 2163:27f5  1223 2163:27fe  1352 2163:280a
  1353 2163:2811  1358 2163:2840     0 2163:2847

Line numbers for R:\MAX\lib\Lenginer.lib(info.c) segment INFO_TEXT

    49 23e7:0008    50 23e7:0012    51 23e7:001c    52 23e7:0020
    53 23e7:002f     0 23e7:0033    57 23e7:0034    63 23e7:003c
    72 23e7:004c    73 23e7:004f    74 23e7:005b    67 23e7:0063
    68 23e7:0080    79 23e7:008c    80 23e7:0095    82 23e7:009c
    83 23e7:00a5    85 23e7:00a9    87 23e7:00b4    88 23e7:00b9
    90 23e7:00c0    91 23e7:00c2     0 23e7:00c7    95 23e7:00c8
    96 23e7:00d3   101 23e7:00d8   102 23e7:00e1   105 23e7:00ee
   108 23e7:00f5   110 23e7:010b   111 23e7:010d     0 23e7:0113
   115 23e7:0114   116 23e7:011a   117 23e7:011f   119 23e7:0126
     0 23e7:0129   125 23e7:012a   130 23e7:0135   131 23e7:013a
   135 23e7:014f   136 23e7:0151   138 23e7:0165   140 23e7:0179
   141 23e7:0182   143 23e7:0188   145 23e7:0191   147 23e7:019d
     0 23e7:01a3   155 23e7:01a4   159 23e7:01ac   160 23e7:01b2
   164 23e7:01cd   169 23e7:01d6   170 23e7:01ee   171 23e7:01f4
   172 23e7:0203   173 23e7:0218   175 23e7:021f   177 23e7:0224
   179 23e7:0231   181 23e7:0237   183 23e7:0240   184 23e7:0242
     0 23e7:0247   189 23e7:0248   199 23e7:024f   224 23e7:0268
   225 23e7:0275     0 23e7:0279   230 23e7:027a   235 23e7:0282
   236 23e7:0288   240 23e7:029f   241 23e7:02b0   247 23e7:02cc
   248 23e7:02da   249 23e7:02ef   250 23e7:02fa   252 23e7:030d
   253 23e7:031a   254 23e7:0328   242 23e7:0331   243 23e7:0337
   256 23e7:0339   258 23e7:033f   260 23e7:0348   261 23e7:034a
     0 23e7:0351   265 23e7:0352   269 23e7:035a   270 23e7:0360
   272 23e7:036b   274 23e7:0373   276 23e7:0377   278 23e7:037d
   280 23e7:0386   281 23e7:0388     0 23e7:038d   285 23e7:038e
   289 23e7:0396   290 23e7:039c   292 23e7:03a7   294 23e7:03af
   296 23e7:03b2   298 23e7:03b8   300 23e7:03c1   301 23e7:03c3
     0 23e7:03c9   306 23e7:03ca   310 23e7:03d2   311 23e7:03d8
   313 23e7:03e3   315 23e7:03eb   316 23e7:03f2   318 23e7:03fc
   320 23e7:0402   322 23e7:040b   323 23e7:040d     0 23e7:0413
   328 23e7:0414   332 23e7:041c   333 23e7:0422   335 23e7:042d
   337 23e7:0435   338 23e7:043c   340 23e7:0446   342 23e7:044c
   344 23e7:0455   345 23e7:0457     0 23e7:045d   358 23e7:045e
   419 23e7:0465   420 23e7:0479   423 23e7:048d   424 23e7:049a
   426 23e7:049d     0 23e7:04a1   436 23e7:04a2   460 23e7:04aa
   461 23e7:04b0   465 23e7:04c7   466 23e7:04cd   467 23e7:04d3
   468 23e7:04e3   470 23e7:04ea     0 23e7:04ef

Line numbers for R:\MAX\lib\Lenginer.lib(mapinfo.c) segment MAPINFO_TEXT

    75 2436:0000    82 2436:0008    86 2436:0021    89 2436:0035
    91 2436:0047    92 2436:004f    93 2436:0055    94 2436:005d
    95 2436:0066    98 2436:007c    99 2436:008e   100 2436:0098
   101 2436:00a2   102 2436:00ac   103 2436:00b1   106 2436:00c7
   107 2436:00d9   108 2436:00e3   109 2436:00ed   110 2436:00f7
   111 2436:00fc   114 2436:0112   115 2436:012b   116 2436:013f
   117 2436:015a   118 2436:0178   119 2436:017d   122 2436:0193
   123 2436:01ac   124 2436:01c0   125 2436:01db   126 2436:01f9
   127 2436:01fe   130 2436:0214   131 2436:0226   132 2436:023a
   133 2436:0255   134 2436:0273   135 2436:0278   136 2436:027d
   139 2436:0293   140 2436:02a5   141 2436:02b9   142 2436:02d4
   144 2436:02f2   145 2436:02fb   148 2436:0311   150 2436:031d
   151 2436:0335   152 2436:033f   153 2436:035d   155 2436:0374
   158 2436:0384   160 2436:0399   161 2436:03ad   162 2436:03bf
   163 2436:03cb   164 2436:03e6   165 2436:03f8   166 2436:03fd
   167 2436:0402   174 2436:0418   177 2436:0424   178 2436:0430
   181 2436:043c   182 2436:044b   183 2436:045f   185 2436:0471
   186 2436:0498   187 2436:04aa   188 2436:04bf   189 2436:04c4
   190 2436:04c9   194 2436:04df   195 2436:04f9   196 2436:050d
   197 2436:051f   198 2436:0530   199 2436:054c   200 2436:0556
   201 2436:055f   202 2436:0564   203 2436:0569   220 2436:057f
   221 2436:0593   222 2436:05a5   223 2436:05b6   224 2436:05d2
   225 2436:05ea   226 2436:05ee   227 2436:05f3   228 2436:05f8
   235 2436:060e   236 2436:0630   243 2436:0652   250 2436:065e
   257 2436:066a   260 2436:0676   266 2436:068b   269 2436:0697
   276 2436:06ac   279 2436:06b8   286 2436:06c4   287 2436:06ca
   289 2436:06d5   293 2436:06e1   302 2436:06ed   303 2436:0711
   304 2436:071e     0 2436:0723   312 2436:0724   318 2436:072b
   319 2436:0733   320 2436:0747   321 2436:075c   322 2436:0763
   323 2436:0777   324 2436:0786   325 2436:07a2   327 2436:07b6
   375 2436:07b9   373 2436:0805   358 2436:080b   359 2436:0810
   336 2436:0815   338 2436:082f   339 2436:0834   342 2436:084a
   344 2436:0855   346 2436:086b   347 2436:0875   348 2436:087a
   351 2436:0884   353 2436:0889   364 2436:088b   369 2436:0890
   376 2436:08a2   377 2436:08a8   379 2436:08b6   381 2436:08c7
   382 2436:08c9   383 2436:08ce   384 2436:08eb   321 2436:08f9
   388 2436:0906     0 2436:090b   398 2436:090c   405 2436:0917
   408 2436:0926   409 2436:092e   410 2436:0937   411 2436:0949
   412 2436:0952   413 2436:0966   414 2436:096a   415 2436:0979
   416 2436:0995   422 2436:09a9   486 2436:09ac   484 2436:09e2
   485 2436:09f4   455 2436:09f7   456 2436:09fc   429 2436:0a01
   430 2436:0a0b   436 2436:0a17   437 2436:0a1a   439 2436:0a27
   443 2436:0a2f   445 2436:0a46   446 2436:0a50   447 2436:0a55
   460 2436:0a61   462 2436:0a69   464 2436:0a76   466 2436:0a78
   467 2436:0a7d   468 2436:0a87   479 2436:0a8d   480 2436:0a92
   474 2436:0a9e   475 2436:0aa3   450 2436:0aa9   487 2436:0aae
   488 2436:0ab4   489 2436:0ab9   411 2436:0ad6   492 2436:0ae3
     0 2436:0aeb   500 2436:0aec   506 2436:0af4   507 2436:0b08
   508 2436:0b0c   510 2436:0b11   511 2436:0b2e   513 2436:0b5b
   514 2436:0b6d   515 2436:0b80   517 2436:0bb2   518 2436:0bb7
   520 2436:0bce   521 2436:0bdd   522 2436:0bef   523 2436:0c0a
   524 2436:0c1c   525 2436:0c2f   526 2436:0c4d   527 2436:0c61
   528 2436:0c66   510 2436:0c7d   531 2436:0c85     0 2436:0c8b
   539 2436:0c8c   544 2436:0c94   545 2436:0ca8   546 2436:0cbb
   547 2436:0ccf   550 2436:0cd9   551 2436:0cf3   550 2436:0d01
   554 2436:0d10   555 2436:0d13   556 2436:0d1e   559 2436:0d30
   562 2436:0d35   565 2436:0d47   566 2436:0d4c   567 2436:0d50
   568 2436:0d5e   569 2436:0d7a   570 2436:0d8d   571 2436:0d92
   573 2436:0da9   574 2436:0db9     0 2436:0dbf   582 2436:0dc0
   587 2436:0dc8   588 2436:0ddc   589 2436:0def   590 2436:0e05
   593 2436:0e0f   594 2436:0e29   593 2436:0e38   597 2436:0e47
   598 2436:0e4a   599 2436:0e55   602 2436:0e68   605 2436:0e6d
   608 2436:0e7f   609 2436:0e84   610 2436:0e88   611 2436:0e97
   612 2436:0eb3   613 2436:0ebf   614 2436:0ec4   616 2436:0edb
   617 2436:0eeb     0 2436:0ef1   625 2436:0ef2   635 2436:0efb
   636 2436:0f14   637 2436:0f2c   638 2436:0f3d   639 2436:0f45
   640 2436:0f55   641 2436:0f5f   648 2436:0f79   649 2436:0f83
   650 2436:0f9a   652 2436:0fa4   654 2436:0fb9   655 2436:0fc6
   656 2436:0fd5   658 2436:0fe7   660 2436:0feb   677 2436:0fed
   662 2436:100a   663 2436:101d   665 2436:101f   670 2436:1024
   671 2436:1037   672 2436:103d   674 2436:103f   675 2436:1052
   679 2436:1058   680 2436:1063   681 2436:107b   682 2436:108c
   683 2436:1098   684 2436:109e   685 2436:10a3   686 2436:10cc
   687 2436:10df   688 2436:10e6   689 2436:10f2   690 2436:1100
   691 2436:1116   694 2436:112a   640 2436:1138   698 2436:1156
   699 2436:117b   700 2436:1188     0 2436:118d   708 2436:118e
   715 2436:1196   716 2436:11a9   717 2436:11bf   719 2436:11c8
   720 2436:11dc   722 2436:11ed   723 2436:1205   724 2436:1226
   725 2436:123a   726 2436:1251   727 2436:125b   728 2436:1268
   729 2436:1296   730 2436:12ac   731 2436:12bd   732 2436:12c2
   733 2436:12c6   735 2436:12e9   722 2436:12f3   738 2436:1314
     0 2436:1319   746 2436:131a   752 2436:1322   753 2436:1335
   754 2436:134a   756 2436:1353   757 2436:1367   758 2436:1378
   759 2436:1384   760 2436:1398   761 2436:13af   762 2436:13b9
   763 2436:13c6   764 2436:13f4   765 2436:140a   766 2436:141b
   767 2436:1420   769 2436:1437   770 2436:1444     0 2436:1449
   778 2436:144a   786 2436:1452   789 2436:1460   791 2436:1479
   792 2436:147e   793 2436:1491   794 2436:14a7   798 2436:14ae
   808 2436:14b5   809 2436:14cf   810 2436:14e4   811 2436:150a
   812 2436:1514   813 2436:151a   814 2436:1520   815 2436:152a
   816 2436:1545   818 2436:154d   822 2436:154f   823 2436:155b
   826 2436:1560   828 2436:1585   830 2436:1587   833 2436:15a5
   836 2436:15c5   839 2436:15d2   848 2436:15e7   849 2436:15fb
   850 2436:160b   855 2436:1616   856 2436:1625   857 2436:1632
   858 2436:1646   859 2436:167d   860 2436:1683   861 2436:16b8
   863 2436:16d1   869 2436:16d3   870 2436:16d5   855 2436:16fd
   864 2436:1729   871 2436:1734   872 2436:173a   886 2436:1750
   887 2436:1762   889 2436:1776   891 2436:1790   892 2436:179d
     0 2436:17a3   900 2436:17a4   904 2436:17ac   909 2436:17b7
   910 2436:17c6   912 2436:17db   916 2436:17e5   920 2436:182c
   921 2436:1840   953 2436:1846   952 2436:1884   953 2436:1888
   940 2436:188a   937 2436:1893   938 2436:18aa   928 2436:18ac
   934 2436:18b8   931 2436:18c1   946 2436:18cd   947 2436:18df
   949 2436:18e1   943 2436:18e6   955 2436:18fc   956 2436:1902
   957 2436:1913   958 2436:1921   959 2436:192f   960 2436:1934
   961 2436:1939   912 2436:1950   964 2436:195c     0 2436:1963
   971 2436:1964   979 2436:196c   980 2436:1971   981 2436:1981
   985 2436:198d   986 2436:199e   988 2436:19ca   989 2436:19f7
   982 2436:1a06   992 2436:1a16   994 2436:1a19   995 2436:1a37
     0 2436:1a3d  1003 2436:1a3e  1007 2436:1a49  1008 2436:1a60
  1009 2436:1a70  1012 2436:1a90  1013 2436:1a96     0 2436:1a9b
  1021 2436:1a9c  1026 2436:1aa4  1027 2436:1ab4  1028 2436:1abc
  1029 2436:1ac3  1031 2436:1ae3  1032 2436:1b0c  1034 2436:1b12
  1035 2436:1b2b  1036 2436:1b41  1037 2436:1b6f  1038 2436:1b85
  1039 2436:1b9e  1040 2436:1ba6  1045 2436:1ba9  1047 2436:1bce
  1048 2436:1bf6  1049 2436:1c09  1052 2436:1c1a  1053 2436:1c30
  1055 2436:1c45  1056 2436:1c4e     0 2436:1c55  1065 2436:1c56
  1066 2436:1c61  1067 2436:1c7f  1069 2436:1c93  1070 2436:1c9f
  1073 2436:1ca1  1074 2436:1cb5  1076 2436:1cd1  1077 2436:1cea
     0 2436:1cf1  1085 2436:1cf2  1093 2436:1cfa  1098 2436:1d12
  1101 2436:1d27  1102 2436:1d43  1112 2436:1d65  1113 2436:1d6e
  1118 2436:1d90  1126 2436:1db4  1127 2436:1dc7  1130 2436:1de4
  1112 2436:1dfe  1106 2436:1e42  1107 2436:1e58  1134 2436:1e5b
     0 2436:1e61  1141 2436:1e62  1147 2436:1e70  1148 2436:1e75
  1149 2436:1e8e  1150 2436:1ea7  1151 2436:1eae  1152 2436:1eb5
  1154 2436:1ed1  1156 2436:1ee3  1161 2436:1eed  1164 2436:1ef0
  1165 2436:1f06  1166 2436:1f37  1169 2436:1f45  1171 2436:1f48
  1174 2436:1f5a  1180 2436:1f70  1181 2436:1f83  1183 2436:1fa1
  1184 2436:1fad  1185 2436:1fc8  1186 2436:1fda  1187 2436:1ff1
  1188 2436:2007  1191 2436:200c  1192 2436:200f     0 2436:2017
  1200 2436:2018  1205 2436:2023  1207 2436:202b  1208 2436:2030
  1209 2436:2034  1210 2436:203a  1211 2436:204d  1212 2436:2059
  1213 2436:2067  1216 2436:2076  1217 2436:2079  1218 2436:207f
  1219 2436:2086  1220 2436:208b     0 2436:2091

Line numbers for R:\MAX\lib\Lenginer.lib(mem_info.c) segment MEM_INFO_TEXT

   181 263f:0002   189 263f:000d   190 263f:001a   194 263f:0027
   195 263f:0040   196 263f:0058   197 263f:005e   199 263f:006f
   206 263f:0080   207 263f:009b   208 263f:00da   211 263f:00e6
   212 263f:0101   213 263f:0140   216 263f:014c   219 263f:0158
   220 263f:017d   221 263f:01bc   227 263f:01c8   231 263f:01e8
   232 263f:020c   233 263f:024b   237 263f:0257   238 263f:0272
   239 263f:02b1   241 263f:02bd   242 263f:02fc   248 263f:030a
   249 263f:032f   250 263f:036e   257 263f:037c   258 263f:0399
   259 263f:03d8   261 263f:03e4   264 263f:03f0   265 263f:0417
   266 263f:0456   272 263f:0462   273 263f:0489   274 263f:04c8
   279 263f:04d4   280 263f:04fb   281 263f:053a   286 263f:0546
   287 263f:056d   288 263f:05ac   293 263f:05b8   297 263f:05da
   298 263f:0601   299 263f:0640   304 263f:064c   305 263f:0673
   306 263f:06b2   310 263f:06be   311 263f:06e4   312 263f:0723
   317 263f:072f   318 263f:0756   319 263f:0795   323 263f:07a1
   324 263f:07be   325 263f:07fd   327 263f:0809   329 263f:0848
   330 263f:0855   332 263f:0862   333 263f:0870   334 263f:0888
   335 263f:08c7   336 263f:08df   339 263f:091e   340 263f:092c
   341 263f:0949   342 263f:0988   343 263f:0996   344 263f:09ae
   345 263f:09ed   346 263f:0a05   347 263f:0a44   348 263f:0a58
   349 263f:0a6c   351 263f:0aab     0 263f:0ab1   358 263f:0ab2
   362 263f:0abd   363 263f:0aca   365 263f:0ad7   366 263f:0ae5
   367 263f:0af3   369 263f:0b01   371 263f:0b0e   372 263f:0b21
   373 263f:0b31   374 263f:0b35   379 263f:0b3e   380 263f:0bd2
   383 263f:0be0   385 263f:0c1e   386 263f:0c2b     0 263f:0c31
   393 263f:0c32   397 263f:0c3d   398 263f:0c4a   400 263f:0c57
   401 263f:0c65   402 263f:0c73   404 263f:0c81   406 263f:0c8e
   407 263f:0ca1   408 263f:0cb1   409 263f:0cb7   411 263f:0cc0
   413 263f:0cc9   415 263f:0cd0   417 263f:0d0c   418 263f:0d16
     0 263f:0d1b   425 263f:0d1c   434 263f:0d24   435 263f:0d37
   436 263f:0d4c   437 263f:0d53   439 263f:0d5c   441 263f:0d6a
   442 263f:0d79   443 263f:0d88   444 263f:0d98   445 263f:0da8
   448 263f:0db6   449 263f:0dc7   454 263f:0dd5   456 263f:0de0
   457 263f:0de7   458 263f:0df8   459 263f:0e06   462 263f:0e08
   484 263f:0e0c   482 263f:0e2a   483 263f:0e2d   484 263f:0e36
   465 263f:0e38   466 263f:0e3b   468 263f:0e3d   469 263f:0e40
   471 263f:0e42   472 263f:0e45   474 263f:0e47   475 263f:0e4a
   488 263f:0e4c   489 263f:0e54   490 263f:0e5a   491 263f:0e5d
   492 263f:0e5f   494 263f:0e62   495 263f:0e6a   496 263f:0e73
   498 263f:0e77   500 263f:0e88   504 263f:0e8e   505 263f:0ea0
   516 263f:0ea4   517 263f:0f20   518 263f:0f2c   519 263f:0f38
   520 263f:0f3b   523 263f:0f41   524 263f:0f47   525 263f:0f50
     0 263f:0f55   532 263f:0f56   537 263f:0f61   538 263f:0f6e
   539 263f:0f7b   540 263f:0f8d   541 263f:0f9b   542 263f:0fa8
   543 263f:0fb6   544 263f:0fc3   547 263f:0fd1   548 263f:0fd6
   549 263f:0fe9   550 263f:0fff   556 263f:100b   557 263f:1030
   559 263f:104d   560 263f:105d   562 263f:1082   563 263f:108b
   564 263f:109b   565 263f:10af   566 263f:10ba   558 263f:10bf
   570 263f:10c8   571 263f:10ce   573 263f:10de   574 263f:10e1
   575 263f:10e4   578 263f:10f4   579 263f:1102   580 263f:110f
   581 263f:111c   582 263f:112e   583 263f:113b   584 263f:1149
   585 263f:1157   594 263f:117a   596 263f:118b   598 263f:11c0
   600 263f:11ca   603 263f:11d2   604 263f:11e0   607 263f:11f6
   605 263f:11fc   610 263f:1218   613 263f:122e   590 263f:1264
   616 263f:1273     0 263f:1279   623 263f:127a   625 263f:1281
   626 263f:129a   627 263f:12a7   628 263f:12b9   630 263f:12bc
   631 263f:12cc   632 263f:12d9   633 263f:12f8   635 263f:1306
   636 263f:1313   638 263f:1320   639 263f:132e   640 263f:133a
   641 263f:1348   642 263f:1354   645 263f:1376   648 263f:1386
   650 263f:13bd     0 263f:13c1   657 263f:13c2   666 263f:13ca
   667 263f:13d9   668 263f:13e6   669 263f:13f8   672 263f:13fb
   673 263f:140b   675 263f:1418   676 263f:142c   680 263f:1441
   681 263f:1475   685 263f:1481   687 263f:14ba   691 263f:14c6
   694 263f:14ff   695 263f:1526   696 263f:1532   697 263f:154d
   698 263f:156c   700 263f:158b   703 263f:1599   704 263f:15a6
   706 263f:15b3   710 263f:15e6   712 263f:160b   713 263f:1623
   715 263f:1627   716 263f:1629   717 263f:1646   723 263f:164a
   724 263f:1672   726 263f:1698   727 263f:16a3   729 263f:16bf
   730 263f:16de     0 263f:16e3   744 263f:16e4   753 263f:16ed
   754 263f:1701   755 263f:1710   756 263f:171d   757 263f:172f
   760 263f:1732   761 263f:173d   762 263f:174a   763 263f:1758
   768 263f:1764   769 263f:177b   770 263f:1791   773 263f:17a7
   776 263f:17b3   782 263f:17cf   783 263f:17fa   785 263f:17fe
   787 263f:1804   788 263f:1814   789 263f:182d   793 263f:1856
   794 263f:1859   793 263f:1868   798 263f:186b   799 263f:187e
   800 263f:1893   803 263f:18a0   809 263f:18a4   808 263f:18af
   809 263f:18b3   804 263f:18b5   805 263f:18bb   806 263f:18c1
   811 263f:18c5   816 263f:18cb   817 263f:18d9   819 263f:18e7
   821 263f:18f8   823 263f:1913   826 263f:1930   828 263f:193f
   829 263f:194c   831 263f:1959   833 263f:1974   835 263f:1981
   836 263f:199c   837 263f:19b8   838 263f:19d4   840 263f:19e2
   841 263f:19ef   843 263f:1a0a   844 263f:1a17   846 263f:1a32
   847 263f:1a4e   848 263f:1a69   850 263f:1a77   851 263f:1a83
   853 263f:1a90   854 263f:1ab9   855 263f:1ae2   857 263f:1aee
   858 263f:1b1c   859 263f:1b45   860 263f:1b6e   861 263f:1b97
     0 263f:1b9d   868 263f:1b9e   870 263f:1ba6   871 263f:1bb5
   872 263f:1bc2   873 263f:1be1   877 263f:1bed   878 263f:1bfd
   883 263f:1c0a   887 263f:1c49   888 263f:1c88   890 263f:1c98
   892 263f:1cba   894 263f:1cde   896 263f:1cfd   897 263f:1d1c
   901 263f:1d2a   908 263f:1d4b   910 263f:1d63   912 263f:1d82
   914 263f:1dae   915 263f:1dba   919 263f:1dc8   921 263f:1df4
   924 263f:1e20     0 263f:1e25   933 263f:1e26   939 263f:1e31
   940 263f:1e3e   942 263f:1e4b   943 263f:1e59   945 263f:1e67
   946 263f:1e73   948 263f:1e81   949 263f:1e86   950 263f:1e8b
   951 263f:1e9e   952 263f:1eb4   953 263f:1ec8   954 263f:1ed2
   955 263f:1edc   958 263f:1ee6   959 263f:1ef3   961 263f:1efb
   964 263f:1f03   970 263f:1f24   976 263f:1f2e   977 263f:1f6c
   978 263f:1f74   979 263f:1f86   986 263f:1f8a   989 263f:1fbb
   991 263f:1fbd   996 263f:1fcf  1002 263f:1ffc  1004 263f:2009
     0 263f:200f  1014 263f:2010  1015 263f:201a  1018 263f:2022
  1019 263f:2025  1020 263f:2033  1022 263f:2047  1023 263f:2057
  1024 263f:205d     0 263f:2061  1035 263f:2062  1036 263f:2070
  1040 263f:2078  1041 263f:207f  1042 263f:2088  1044 263f:208c
  1047 263f:209c  1048 263f:20a2  1050 263f:20b0  1054 263f:20cd
  1055 263f:20d5  1056 263f:20dc  1058 263f:20e6  1059 263f:2112
  1060 263f:2119  1063 263f:2127  1065 263f:2137  1066 263f:2143
  1069 263f:2181  1070 263f:2197  1071 263f:219d     0 263f:21a3
  1085 263f:21a4  1092 263f:21ac  1093 263f:21cb  1095 263f:21db
  1096 263f:21f4  1097 263f:2202  1098 263f:2212  1099 263f:2225
  1102 263f:2234  1105 263f:2268  1106 263f:2271  1107 263f:2281
  1108 263f:2295  1109 263f:229c  1111 263f:22a1  1095 263f:22a4
  1100 263f:22b7  1114 263f:22bd  1115 263f:22c3  1117 263f:22d3
     0 263f:22d9  1125 263f:22da  1131 263f:22df  1133 263f:22f6
  1134 263f:230a  1135 263f:230d  1136 263f:2331  1137 263f:2334
  1138 263f:2339  1139 263f:233e     0 263f:2343

Line numbers for R:\MAX\lib\Lenginer.lib(MULTIME.asm) segment MULTIME_TEXT

    32 2873:0004    33 2873:0007    34 2873:0008    35 2873:000b
    36 2873:000e    37 2873:0011    38 2873:0014    39 2873:0017
    40 2873:0019    41 2873:001b    42 2873:001c    43 2873:001e
    44 2873:0020    45 2873:0023    47 2873:0024    50 2873:0026
    51 2873:00ee    52 2873:00ef    53 2873:00f1    54 2873:00f4
    55 2873:00f6    56 2873:00f8    57 2873:00f9    58 2873:00fc
    59 2873:00fd    66 2873:0101    67 2873:0101    68 2873:0102
    69 2873:0104    70 2873:0106    71 2873:0108    72 2873:010a
    73 2873:010c    74 2873:010e    75 2873:0110    76 2873:0111
    77 2873:0113    78 2873:0114    84 2873:0115    85 2873:0115
    86 2873:0116    87 2873:0118    88 2873:011a    89 2873:011c
    90 2873:011e    91 2873:0120    92 2873:0121

Line numbers for R:\MAX\lib\Lenginer.lib(profile.c) segment PROFILE_TEXT

    65 2885:0002    75 2885:000e    76 2885:0012    80 2885:002b
    81 2885:0035    83 2885:003d    84 2885:003f    85 2885:0051
    90 2885:0065    94 2885:0084    96 2885:0088    97 2885:008d
   105 2885:0095   106 2885:009d   109 2885:00bc   110 2885:00d8
   114 2885:00dd   116 2885:00f0   117 2885:00f5   119 2885:0114
   120 2885:0122   146 2885:0146   150 2885:015f   151 2885:017c
   153 2885:019f   157 2885:01b2   126 2885:01ec   127 2885:01fa
   128 2885:0208   130 2885:0224   131 2885:024a   141 2885:024d
   139 2885:0268   140 2885:0271   135 2885:0274   136 2885:028a
   162 2885:028d   164 2885:02a3   165 2885:02bf   166 2885:02c5
   168 2885:02dd   171 2885:030f   168 2885:0312   171 2885:031b
   173 2885:0324   174 2885:033a   176 2885:035a   177 2885:0373
   180 2885:0392   185 2885:03b1   186 2885:03cb   187 2885:03ec
   188 2885:0400   187 2885:040b   195 2885:041a   200 2885:0438
   201 2885:043d   202 2885:0441   203 2885:045e   204 2885:047c
   205 2885:048e   206 2885:04ab   207 2885:04c8   208 2885:04e7
   209 2885:0512   210 2885:0531   212 2885:0550   213 2885:0566
   216 2885:0589   226 2885:0593   228 2885:05a9   231 2885:05af
   234 2885:05d4   238 2885:05e1     0 2885:05e7   241 2885:05e8
   246 2885:05f6   247 2885:0610   248 2885:062d   249 2885:0635
   250 2885:063b   251 2885:0651   252 2885:066c   253 2885:067f
   256 2885:0696     0 2885:069b   260 2885:069c   267 2885:06a4
   268 2885:06cf   270 2885:06d9   271 2885:06e2   272 2885:06f2
   274 2885:06fe   276 2885:0702   277 2885:0709   279 2885:0715
     0 2885:071b   282 2885:071c   285 2885:0723   289 2885:0744
   290 2885:076c   292 2885:0772   293 2885:0778   295 2885:0784
   296 2885:0799     0 2885:079d   299 2885:079e   306 2885:07a6
   307 2885:07d1   309 2885:07db   310 2885:07dd   311 2885:07ea
   313 2885:07f4   314 2885:07ff   315 2885:0805   316 2885:081d
   317 2885:0829   318 2885:082c     0 2885:0831   321 2885:0832
   328 2885:083a   329 2885:0865   331 2885:086f   332 2885:0871
   333 2885:0886   335 2885:0893   336 2885:089e   337 2885:08a4
   338 2885:08bc   339 2885:08c8   340 2885:08cb     0 2885:08d1
   343 2885:08d2   348 2885:08dd   349 2885:0906   351 2885:0910
   352 2885:0918   353 2885:0923   354 2885:0926     0 2885:092d

Line numbers for R:\MAX\lib\Lenginer.lib(qtas.c) segment QTAS_TEXT

    88 2917:000e   102 2917:0016   104 2917:003f   107 2917:0048
   109 2917:0053   111 2917:005d   112 2917:0079   115 2917:0085
   117 2917:0090   118 2917:009c   121 2917:00aa   125 2917:00c1
   126 2917:00e8   128 2917:00f7   129 2917:0101   130 2917:011e
   133 2917:012a   135 2917:0135   136 2917:0141   139 2917:014f
   142 2917:0166   143 2917:0170   144 2917:017a   146 2917:0187
   149 2917:0191   152 2917:01a3   153 2917:01ab   155 2917:01b8
   156 2917:01c4   159 2917:01d1   165 2917:01e8   166 2917:020f
   167 2917:021b   168 2917:0225   169 2917:0242   172 2917:024e
   174 2917:0259   175 2917:0265   178 2917:0273   182 2917:028a
   186 2917:02a4   188 2917:02ae   190 2917:02c0   192 2917:02dd
   193 2917:02f5   196 2917:0301   198 2917:030c   199 2917:0318
   202 2917:0326   205 2917:0337   206 2917:0340     0 2917:0345
   213 2917:0346   219 2917:034d   220 2917:035c   224 2917:0366
   230 2917:0371   243 2917:0389   245 2917:0395   232 2917:039f
   233 2917:03a9   234 2917:03ba   236 2917:03bd   237 2917:03c6
   239 2917:03d9   247 2917:03de   248 2917:03e7     0 2917:03eb
   252 2917:03ec   255 2917:03f3   257 2917:03fc   261 2917:03ff
   263 2917:0412   264 2917:042b   265 2917:042c   266 2917:0432
   268 2917:0438   271 2917:043a   273 2917:043e   274 2917:0440
     0 2917:0445   279 2917:0446   281 2917:0451   282 2917:0464
   283 2917:046e   284 2917:047c   285 2917:048a   287 2917:048f
   288 2917:0499   291 2917:04a1   302 2917:04bc   293 2917:04c6
   294 2917:04e7   295 2917:04ef   299 2917:04f1   300 2917:0512
   303 2917:051a   304 2917:0524   309 2917:0529   310 2917:053d
   311 2917:0549   309 2917:054d   314 2917:0554   315 2917:0564
   316 2917:0570   314 2917:0574   334 2917:057b     0 2917:0581
   340 2917:0582   345 2917:058a   347 2917:0598   348 2917:05a1
   351 2917:05b0   353 2917:05b6   359 2917:05ca   365 2917:05d1
   369 2917:05e6   370 2917:05f9   378 2917:0600   382 2917:060c
   383 2917:060e   384 2917:0622   386 2917:062e   387 2917:0640
   391 2917:0648   392 2917:0653   393 2917:0667   345 2917:0679
   397 2917:067b     0 2917:0683   401 2917:0684   410 2917:068e
   414 2917:06a1   416 2917:06b5     0 2917:06b9

Line numbers for R:\MAX\lib\Lenginer.lib(QTAS_MAC.asm) segment QTAS_MAC_TEXT

   151 2982:000a   153 2982:000d   155 2982:0011   156 2982:0014
   157 2982:0016   159 2982:0018   161 2982:001b   162 2982:001e
   164 2982:0021   165 2982:0024   166 2982:0028   168 2982:002c
   175 2982:002f   176 2982:0035   178 2982:0037   179 2982:003d
   182 2982:003f   183 2982:0040   184 2982:0041   185 2982:0042
   186 2982:0043   187 2982:0046   188 2982:0049   189 2982:004b
   190 2982:004d   191 2982:004e   193 2982:0054   194 2982:0057
   195 2982:005c   197 2982:005e   198 2982:0063   200 2982:0065
   201 2982:0067   202 2982:006b   204 2982:006c   207 2982:006e
   210 2982:0070   211 2982:0073   213 2982:0077   216 2982:0079
   219 2982:007c   221 2982:0080   226 2982:0084   243 2982:0084
   247 2982:0087   248 2982:008b   249 2982:008c   251 2982:008f
   252 2982:0092   254 2982:0094   255 2982:0096   257 2982:0098
   260 2982:009a   262 2982:009e   265 2982:00a0   267 2982:00a1
   270 2982:00a4   275 2982:00a5   285 2982:00a5   287 2982:00ad
   289 2982:00ae   291 2982:00b2   292 2982:00b6   294 2982:00b9
   295 2982:00bd   297 2982:00c0   298 2982:00c4   300 2982:00c7
   301 2982:00cb   303 2982:00ce   305 2982:00d3   306 2982:00d6
   308 2982:00d8   310 2982:00dc   311 2982:00de   312 2982:00e2
   314 2982:00e3   316 2982:00e6   319 2982:00e8   320 2982:00ec
   322 2982:00ef   323 2982:00f3   325 2982:00f6   326 2982:00fa
   327 2982:00fb   329 2982:00ff   330 2982:0103   332 2982:0106
   334 2982:010b   337 2982:010d   338 2982:0110   341 2982:0113
   342 2982:0116   344 2982:0119   346 2982:011c   347 2982:011e
   349 2982:0120   350 2982:0123   352 2982:0125   355 2982:0128
   357 2982:012c   358 2982:012e   360 2982:0133   361 2982:0136
   363 2982:0138   364 2982:013e   366 2982:0143   369 2982:0145
   370 2982:0148   373 2982:014a   376 2982:014d   377 2982:0150
   379 2982:0155   380 2982:0158   382 2982:015d   383 2982:0160
   385 2982:0165   386 2982:0168   388 2982:016d   389 2982:0170
   394 2982:0175   397 2982:0178   402 2982:017a   403 2982:017f
   404 2982:0181   405 2982:0187   407 2982:018a   410 2982:0190
   413 2982:0194   415 2982:0197   416 2982:0199   425 2982:019e
   426 2982:019f   429 2982:01a1   430 2982:01a7   432 2982:01a9
   433 2982:01af   438 2982:01b1   440 2982:01b5   441 2982:01b9
   447 2982:01bb   448 2982:01c0   450 2982:01c5   451 2982:01c6
   454 2982:01ca   455 2982:01ce   456 2982:01d1   457 2982:01d4
   459 2982:01d5   464 2982:01d8   465 2982:01db   468 2982:01dd
   469 2982:01de   470 2982:01e2   473 2982:01e4   478 2982:01e7
   479 2982:01e9   480 2982:01eb   482 2982:01ee   484 2982:01f0
   485 2982:01f1   487 2982:01f3   489 2982:01f6   490 2982:01f7
   508 2982:01f9   511 2982:01fc   512 2982:01fe   513 2982:01ff
   514 2982:0202   515 2982:0204   516 2982:0205   518 2982:0207
   520 2982:0208   522 2982:020a   524 2982:020c   526 2982:020e
   527 2982:0210   528 2982:0212   529 2982:0214   531 2982:0216
   533 2982:0218   534 2982:021a   535 2982:021c   539 2982:021e
   540 2982:0220   541 2982:0222   543 2982:0224   544 2982:0227
   546 2982:022a   552 2982:022d   553 2982:0233   560 2982:0236
   561 2982:0238   563 2982:0239   564 2982:023c   566 2982:0242
   569 2982:0245   571 2982:0249   572 2982:024c   574 2982:024f
   575 2982:0250   577 2982:0252   579 2982:0256   580 2982:025a
   582 2982:025c   583 2982:025e   585 2982:0260   587 2982:0266
   588 2982:0269   590 2982:026d   591 2982:0273   593 2982:0275
   595 2982:0278   597 2982:027b   600 2982:027f   604 2982:0282
   606 2982:0285   609 2982:0289   613 2982:028c   615 2982:0291
   619 2982:0293   621 2982:0298   622 2982:029a   624 2982:029b
   628 2982:029e   630 2982:02a2   631 2982:02a6   632 2982:02aa
   633 2982:02ae   634 2982:02af   638 2982:02b0   639 2982:02b1
   640 2982:02b4   641 2982:02b6   642 2982:02ba   643 2982:02bc
   644 2982:02c0   645 2982:02c3   646 2982:02c5   647 2982:02c7
   648 2982:02c9   649 2982:02cd   650 2982:02cf   651 2982:02d1
   653 2982:02d2   655 2982:02d6   658 2982:02da   659 2982:02e0
   665 2982:02e3   666 2982:02e9   672 2982:02eb   674 2982:02f1
   678 2982:02f3   684 2982:02f5   685 2982:02fb   690 2982:02fd
   691 2982:0303   694 2982:0305   695 2982:030a   696 2982:030c
   697 2982:0311   698 2982:0313   700 2982:0319   701 2982:031b
   702 2982:031f   703 2982:0322   704 2982:0325   705 2982:0327
   706 2982:032b   709 2982:032d   711 2982:0333   712 2982:0337
   714 2982:0339   715 2982:033e   717 2982:0340   720 2982:0343
   723 2982:034b   729 2982:034c   743 2982:034c   744 2982:034f
   745 2982:0351   746 2982:0353   747 2982:0356   749 2982:0358
   751 2982:035b   752 2982:035e   753 2982:0360   754 2982:0362
   755 2982:0364   756 2982:0365   757 2982:0366   758 2982:0367
   760 2982:0369   762 2982:036c   766 2982:036d   779 2982:036d
   780 2982:0373   781 2982:0376   782 2982:037a   783 2982:037d
   784 2982:0381   786 2982:0384   788 2982:0387   789 2982:038a
   790 2982:038c   791 2982:038e   792 2982:0390   793 2982:0392
   794 2982:0394   796 2982:0396   797 2982:0398   798 2982:039a
   801 2982:039c   802 2982:039e   803 2982:039f   804 2982:03a0
   805 2982:03a1   807 2982:03a3   809 2982:03a6   814 2982:03a7
   828 2982:03a7   829 2982:03ad   830 2982:03b0   831 2982:03b4
   832 2982:03b7   833 2982:03bb   834 2982:03be   835 2982:03c2
   837 2982:03c5   838 2982:03c8   840 2982:03ca   841 2982:03cc
   842 2982:03ce   843 2982:03d0   844 2982:03d1   847 2982:03d4
   848 2982:03d5   849 2982:03d9   851 2982:03dc   852 2982:03de
   853 2982:03e0   855 2982:03e2   856 2982:03e4   857 2982:03e5
   858 2982:03e8   859 2982:03e9   860 2982:03eb   863 2982:03ec
   865 2982:03ef   870 2982:03f0   884 2982:03f0   887 2982:03f5
   888 2982:03f7   890 2982:03fa   891 2982:03fd   893 2982:03ff
   894 2982:0403   896 2982:0405   897 2982:040a   899 2982:040c
   900 2982:040f   902 2982:0410   903 2982:0413   905 2982:0414
   906 2982:0416   908 2982:0418   909 2982:041a   911 2982:041c
   912 2982:041e   914 2982:0420   915 2982:0422   917 2982:0424
   919 2982:0426   920 2982:0428   921 2982:0429   923 2982:042b
   924 2982:042e   927 2982:0433

Line numbers for R:\MAX\lib\Lenginer.lib(readsys.c) segment READSYS_TEXT

   129 29c5:0004   135 29c5:000a   136 29c5:0024   138 29c5:0032
   139 29c5:0043   140 29c5:004b   144 29c5:005d   145 29c5:0062
   150 29c5:006c   151 29c5:0073   153 29c5:0080   154 29c5:0082
   155 29c5:0093   156 29c5:009b   159 29c5:00aa   165 29c5:00af
   167 29c5:00c5   168 29c5:00cf   169 29c5:00da   171 29c5:00e8
   172 29c5:0105   174 29c5:0110   177 29c5:011c   182 29c5:012e
   183 29c5:0144   188 29c5:016e   193 29c5:0183   490 29c5:018f
   489 29c5:0258   490 29c5:025d   198 29c5:0260   199 29c5:0279
   201 29c5:027c   204 29c5:0290   195 29c5:02a1   324 29c5:02ae
   325 29c5:02b3   326 29c5:02cf   327 29c5:02de   330 29c5:02f6
   331 29c5:02fb   332 29c5:0316   333 29c5:0322   336 29c5:033a
   337 29c5:033f   338 29c5:035c   339 29c5:0368   351 29c5:0383
   372 29c5:03a0   366 29c5:03b9   391 29c5:03d2   395 29c5:03f3
   399 29c5:040f   404 29c5:042b   408 29c5:0447   411 29c5:0463
   414 29c5:0475   417 29c5:0487   420 29c5:0499   426 29c5:04ab
   423 29c5:04bd   429 29c5:04c9   465 29c5:04d5   207 29c5:04eb
   210 29c5:04fd   213 29c5:0509   216 29c5:0516   219 29c5:0528
   222 29c5:053a   225 29c5:054c   228 29c5:0559   231 29c5:0565
   234 29c5:0572   237 29c5:0583   240 29c5:0594   243 29c5:05a5
   246 29c5:05b2   249 29c5:05bf   432 29c5:05cc   252 29c5:05dd
   255 29c5:05ef   258 29c5:05fc   261 29c5:0609   264 29c5:0616
   267 29c5:0623   270 29c5:063d   273 29c5:064e   279 29c5:065f
   276 29c5:0671   282 29c5:067e   285 29c5:068b   288 29c5:0698
   291 29c5:06b2   294 29c5:06cc   297 29c5:06e6   318 29c5:06fa
   321 29c5:0707   342 29c5:0719   345 29c5:072b   348 29c5:0738
   300 29c5:0745   303 29c5:0757   306 29c5:0763   309 29c5:076f
   312 29c5:077b   315 29c5:0787   354 29c5:0794   369 29c5:07a6
   375 29c5:07b3   378 29c5:07b9   381 29c5:07cb   384 29c5:07d7
   387 29c5:07e7   435 29c5:07fd   462 29c5:0813   438 29c5:0829
   441 29c5:083f   444 29c5:0859   447 29c5:086d   450 29c5:0887
   453 29c5:089b   357 29c5:08af   360 29c5:08bc   363 29c5:08c9
   456 29c5:08d6   459 29c5:08f0   468 29c5:090a   471 29c5:0917
   472 29c5:0929   473 29c5:093b   476 29c5:0948   479 29c5:0962
   480 29c5:0974   483 29c5:0981   486 29c5:099a   487 29c5:099d
   497 29c5:09a6   498 29c5:09b6   501 29c5:09c6   506 29c5:09d0
   510 29c5:09e1   511 29c5:09f2   512 29c5:0a02   188 29c5:0a0d
   515 29c5:0a12   517 29c5:0a28   519 29c5:0a2a   522 29c5:0a3b
   523 29c5:0a3e     0 29c5:0a41   526 29c5:0a42   531 29c5:0a48
   532 29c5:0a62   534 29c5:0a70   535 29c5:0a81   536 29c5:0a89
   540 29c5:0a9b   541 29c5:0ab0   542 29c5:0ac5   543 29c5:0aca
   544 29c5:0adf   545 29c5:0af8   546 29c5:0b07   548 29c5:0b0a
   549 29c5:0b25   553 29c5:0b4c   558 29c5:0b57   560 29c5:0b5a
   565 29c5:0b63   566 29c5:0b73   568 29c5:0b83   569 29c5:0b93
     0 29c5:0b97   576 29c5:0b98   581 29c5:0b9f   583 29c5:0bad
   586 29c5:0bb6   587 29c5:0bb9   589 29c5:0bc4   593 29c5:0be2
   595 29c5:0bfe   596 29c5:0c0a   600 29c5:0c13   601 29c5:0c24
   603 29c5:0c27   604 29c5:0c46   605 29c5:0c4c   606 29c5:0c52
   607 29c5:0c5e   609 29c5:0c6d   610 29c5:0c6f   615 29c5:0c7b
   616 29c5:0c85   617 29c5:0c8a   619 29c5:0c8f   620 29c5:0c91
   622 29c5:0ca0   625 29c5:0ca5   627 29c5:0caa   597 29c5:0cb7
   628 29c5:0cc2   629 29c5:0ccc   630 29c5:0cd0     0 29c5:0cd5
   633 29c5:0cd6   634 29c5:0cd9   635 29c5:0cf2   636 29c5:0d0a
   637 29c5:0d0c     0 29c5:0d0f   640 29c5:0d10   641 29c5:0d13
   642 29c5:0d2c   643 29c5:0d3a   644 29c5:0d3c     0 29c5:0d3d
   647 29c5:0d3e   648 29c5:0d41   649 29c5:0d4c   650 29c5:0d61
   651 29c5:0d75   652 29c5:0d8d   653 29c5:0d8f     0 29c5:0d93
   656 29c5:0d94   659 29c5:0d9a   660 29c5:0db4   661 29c5:0dcb
   662 29c5:0dd4   663 29c5:0dd6     0 29c5:0dd9   666 29c5:0dda
   667 29c5:0ddd   668 29c5:0df6   669 29c5:0e0e   670 29c5:0e10
     0 29c5:0e13   673 29c5:0e14   674 29c5:0e17   675 29c5:0e30
   676 29c5:0e48   677 29c5:0e4a     0 29c5:0e4d   694 29c5:0e4e
   695 29c5:0e51   696 29c5:0e6a   697 29c5:0e82   698 29c5:0e84
     0 29c5:0e87   701 29c5:0e88   702 29c5:0e8b   706 29c5:0ea4
   707 29c5:0ead   709 29c5:0ecd   710 29c5:0ecf     0 29c5:0ed3
   713 29c5:0ed4   718 29c5:0eda   719 29c5:0eee   721 29c5:0ef9
   722 29c5:0f10   723 29c5:0f25   722 29c5:0f51   725 29c5:0f56
   726 29c5:0f58     0 29c5:0f5b   729 29c5:0f5c   734 29c5:0f63
   735 29c5:0f77   737 29c5:0f82   739 29c5:0f8d   740 29c5:0fa2
   741 29c5:0fbc   739 29c5:0fd5   743 29c5:0fda   744 29c5:0fdc
     0 29c5:0fe1   747 29c5:0fe2   752 29c5:0fe8   753 29c5:0ffc
   755 29c5:1007   756 29c5:101e   760 29c5:1033   761 29c5:103c
   756 29c5:1070   764 29c5:1075   765 29c5:1077     0 29c5:107b
   768 29c5:107c   769 29c5:107f   770 29c5:1098   771 29c5:10ae
   772 29c5:10b0     0 29c5:10b3   778 29c5:10b4   782 29c5:10bb
   785 29c5:10c0   786 29c5:10d6   787 29c5:10dd   788 29c5:10f9
   793 29c5:1110   795 29c5:111f   796 29c5:112d   797 29c5:1150
   798 29c5:1162   802 29c5:1193   803 29c5:11d1   805 29c5:11eb
   806 29c5:120a   808 29c5:1219   809 29c5:1224   810 29c5:1227
     0 29c5:122b   815 29c5:122c   820 29c5:1232   822 29c5:1247
   823 29c5:125a   825 29c5:1267   827 29c5:127b   830 29c5:129b
   831 29c5:12a7   832 29c5:12c2   834 29c5:12c9   835 29c5:12d1
   825 29c5:12ec   839 29c5:1300   840 29c5:1302     0 29c5:1305
   843 29c5:1306   845 29c5:130c   848 29c5:1314   850 29c5:132e
   851 29c5:134c   852 29c5:1353   853 29c5:136f   854 29c5:137b
   855 29c5:137d     0 29c5:1381   858 29c5:1382   859 29c5:1385
   860 29c5:1399   861 29c5:13ac   863 29c5:13c0     0 29c5:13c3
   866 29c5:13c4   867 29c5:13c7   868 29c5:13db   869 29c5:13ee
   871 29c5:1402     0 29c5:1405   874 29c5:1406   877 29c5:140c
   879 29c5:1427   880 29c5:1449   881 29c5:1467   882 29c5:1488
   883 29c5:14a9   884 29c5:14ca   885 29c5:14eb   886 29c5:150c
   887 29c5:152d   888 29c5:154e   889 29c5:1570   890 29c5:1592
   891 29c5:15b4   892 29c5:15d6   893 29c5:15f8   894 29c5:161a
   895 29c5:163c   896 29c5:165e   897 29c5:167f   898 29c5:16a0
   901 29c5:16c1   902 29c5:16df   903 29c5:16e1     0 29c5:16e5
   906 29c5:16e6   909 29c5:16ec   910 29c5:1702   911 29c5:1716
   912 29c5:172b   913 29c5:1740   914 29c5:1755   915 29c5:176a
   916 29c5:177f   917 29c5:1793   918 29c5:17a4   919 29c5:17b3
   920 29c5:17cc   921 29c5:17ce     0 29c5:17d3   924 29c5:17d4
   925 29c5:17d7   926 29c5:17ec   927 29c5:17fe   928 29c5:1814
   929 29c5:182b   930 29c5:183f   931 29c5:1853   932 29c5:1867
   933 29c5:187b   934 29c5:188f   935 29c5:18a3   936 29c5:18bb
   938 29c5:18d2     0 29c5:18d7   941 29c5:18d8   945 29c5:18de
   947 29c5:18f4   950 29c5:1911   951 29c5:192c   952 29c5:1943
   953 29c5:195f   954 29c5:197b   955 29c5:1993   956 29c5:19ab
   957 29c5:19c3   958 29c5:19db   959 29c5:19f0   960 29c5:1a05
   961 29c5:1a1a   962 29c5:1a2f   947 29c5:1a44   950 29c5:1a5b
   964 29c5:1a60   965 29c5:1a62     0 29c5:1a65   968 29c5:1a66
   969 29c5:1a69   970 29c5:1a81   971 29c5:1a90   973 29c5:1aa4
     0 29c5:1aa7   976 29c5:1aa8   977 29c5:1aab   978 29c5:1ac0
   979 29c5:1ad3   980 29c5:1aea   981 29c5:1b01   982 29c5:1b15
   983 29c5:1b29   984 29c5:1b3d   985 29c5:1b51   986 29c5:1b65
   987 29c5:1b79   988 29c5:1b8d   990 29c5:1ba4     0 29c5:1ba9
   993 29c5:1baa   994 29c5:1bad   995 29c5:1bc2   996 29c5:1bd5
   997 29c5:1bec   998 29c5:1c00   999 29c5:1c14  1000 29c5:1c28
  1001 29c5:1c3c  1002 29c5:1c50  1003 29c5:1c64  1004 29c5:1c78
  1006 29c5:1c8f     0 29c5:1c93  1009 29c5:1c94  1010 29c5:1c97
  1011 29c5:1cac  1012 29c5:1cbf  1013 29c5:1cd6  1014 29c5:1ced
  1015 29c5:1d01  1016 29c5:1d15  1017 29c5:1d29  1018 29c5:1d3d
  1019 29c5:1d51  1020 29c5:1d65  1021 29c5:1d79  1022 29c5:1d8f
  1024 29c5:1daa  1025 29c5:1dac     0 29c5:1db1  1031 29c5:1db2
  1032 29c5:1dcb  1033 29c5:1df1     0 29c5:1df3  1037 29c5:1df4
  1042 29c5:1dfa  1044 29c5:1e0f  1047 29c5:1e29  1048 29c5:1e45
  1049 29c5:1e5a  1050 29c5:1e6f  1051 29c5:1e84  1044 29c5:1e99
  1047 29c5:1eaa  1053 29c5:1eaf  1054 29c5:1eb1     0 29c5:1eb5
  1057 29c5:1eb6  1062 29c5:1ebc  1064 29c5:1ed1  1066 29c5:1edc
  1069 29c5:1ef6  1070 29c5:1f11  1071 29c5:1f27  1072 29c5:1f3e
  1073 29c5:1f56  1074 29c5:1f6b  1075 29c5:1f80  1076 29c5:1f95
  1077 29c5:1faa  1078 29c5:1fbf  1066 29c5:1fd4  1069 29c5:1fe8
  1080 29c5:1fed  1081 29c5:1fef     0 29c5:1ff3  1084 29c5:1ff4
  1089 29c5:1ffa  1091 29c5:200f  1093 29c5:201a  1096 29c5:2034
  1097 29c5:204c  1098 29c5:2060  1099 29c5:2075  1100 29c5:208a
  1101 29c5:209f  1093 29c5:20b4  1096 29c5:20c8  1103 29c5:20cd
  1104 29c5:20cf     0 29c5:20d3  1107 29c5:20d4  1112 29c5:20da
  1114 29c5:20ee  1116 29c5:20f9  1119 29c5:2110  1120 29c5:2128
  1116 29c5:2140  1119 29c5:2151  1122 29c5:2156  1123 29c5:2158
     0 29c5:215b  1126 29c5:215c  1131 29c5:2162  1133 29c5:2176
  1135 29c5:2181  1138 29c5:2198  1139 29c5:21b0  1135 29c5:21c4
  1138 29c5:21d5  1141 29c5:21da  1142 29c5:21dc     0 29c5:21df
  1145 29c5:21e0  1149 29c5:21e6  1152 29c5:21fb  1153 29c5:2211
  1155 29c5:221e  1156 29c5:222c  1157 29c5:223c  1158 29c5:2250
  1155 29c5:2265  1160 29c5:2277  1161 29c5:2279     0 29c5:227d
  1164 29c5:227e  1168 29c5:2284  1171 29c5:2299  1172 29c5:22b0
  1174 29c5:22bd  1175 29c5:22cb  1176 29c5:22db  1174 29c5:22ef
  1178 29c5:2301  1179 29c5:2303     0 29c5:2307  1182 29c5:2308
  1186 29c5:230e  1189 29c5:2324  1190 29c5:233a  1192 29c5:2347
  1193 29c5:2358  1194 29c5:2368  1195 29c5:237c  1196 29c5:2391
  1202 29c5:23a6  1192 29c5:23b7  1203 29c5:23cb  1204 29c5:23d1
  1205 29c5:23dd  1210 29c5:23e5  1211 29c5:23e7     0 29c5:23eb
  1214 29c5:23ec  1218 29c5:23f2  1221 29c5:2408  1222 29c5:241e
  1223 29c5:242b  1224 29c5:2439  1225 29c5:2449  1226 29c5:245e
  1227 29c5:2473  1223 29c5:248c  1229 29c5:24a1  1230 29c5:24a3
     0 29c5:24a7  1233 29c5:24a8  1237 29c5:24ae  1240 29c5:24c3
  1241 29c5:24d9  1242 29c5:24e6  1243 29c5:24f4  1242 29c5:2508
  1245 29c5:251a  1246 29c5:251c     0 29c5:251f  1249 29c5:2520
  1252 29c5:2526  1255 29c5:253b  1256 29c5:254e  1257 29c5:256e
  1258 29c5:257c  1260 29c5:25a3  1261 29c5:25a5     0 29c5:25a9
  1264 29c5:25aa  1273 29c5:25b0  1278 29c5:25c3  1279 29c5:25da
  1281 29c5:25e4  1282 29c5:25f6  1283 29c5:2607  1284 29c5:261c
  1285 29c5:262c  1286 29c5:2640  1287 29c5:2655  1288 29c5:266a
  1289 29c5:2683  1290 29c5:269c  1282 29c5:26a2  1299 29c5:26b7
  1300 29c5:26b9     0 29c5:26bf  1303 29c5:26c0  1309 29c5:26c7
  1311 29c5:26dd  1312 29c5:26f4  1314 29c5:26fe  1315 29c5:2710
  1318 29c5:2721  1319 29c5:2730  1320 29c5:273f  1321 29c5:274e
  1322 29c5:275d  1323 29c5:276c  1324 29c5:277b  1325 29c5:278e
  1328 29c5:27a1  1329 29c5:27b5  1330 29c5:27bc  1331 29c5:27d4
  1332 29c5:27db  1333 29c5:27df  1334 29c5:27f1  1335 29c5:27f5
  1336 29c5:280d  1338 29c5:2823  1339 29c5:282b  1341 29c5:2833
  1315 29c5:2836  1343 29c5:284b  1344 29c5:284d     0 29c5:2853
  1348 29c5:2854  1352 29c5:285c  1355 29c5:2872  1356 29c5:2888
  1357 29c5:2895  1358 29c5:28a6  1359 29c5:28b6  1360 29c5:28cb
  1361 29c5:28e0  1362 29c5:28f5  1363 29c5:290a  1364 29c5:2917
  1369 29c5:292d  1370 29c5:293f  1371 29c5:295b  1373 29c5:2963
  1357 29c5:2966  1375 29c5:297b  1376 29c5:297d     0 29c5:2983
  1379 29c5:2984  1383 29c5:298a  1386 29c5:29a0  1387 29c5:29b6
  1388 29c5:29c3  1389 29c5:29d4  1390 29c5:29e4  1391 29c5:29f8
  1392 29c5:2a0d  1393 29c5:2a22  1394 29c5:2a37  1395 29c5:2a50
  1388 29c5:2a56  1397 29c5:2a6b  1398 29c5:2a6d     0 29c5:2a71
  1401 29c5:2a72  1406 29c5:2a78  1408 29c5:2a8f  1409 29c5:2aa4
  1411 29c5:2aaf  1414 29c5:2ac9  1415 29c5:2ad8  1416 29c5:2aeb
  1417 29c5:2afa  1418 29c5:2b00  1419 29c5:2b05  1421 29c5:2b10
  1422 29c5:2b16  1424 29c5:2b2d  1414 29c5:2b41  1426 29c5:2b46
  1427 29c5:2b48     0 29c5:2b4b  1430 29c5:2b4c  1434 29c5:2b52
  1436 29c5:2b5f  1440 29c5:2b6b  1441 29c5:2b81  1442 29c5:2b90
  1443 29c5:2b95  1445 29c5:2ba0  1446 29c5:2bb6  1449 29c5:2bc0
  1450 29c5:2bd0  1451 29c5:2bd9  1453 29c5:2be3  1454 29c5:2be5
  1436 29c5:2bf0  1440 29c5:2c04  1457 29c5:2c09  1458 29c5:2c0b
     0 29c5:2c0f  1461 29c5:2c10  1465 29c5:2c16  1467 29c5:2c23
  1472 29c5:2c2f  1474 29c5:2c4b  1476 29c5:2c69  1477 29c5:2c7f
  1480 29c5:2c89  1481 29c5:2c99  1482 29c5:2ca2  1484 29c5:2cac
  1485 29c5:2cae  1467 29c5:2cb9  1472 29c5:2ccd  1488 29c5:2cd2
  1489 29c5:2cd4     0 29c5:2cd7  1492 29c5:2cd8  1497 29c5:2cde
  1499 29c5:2cf3  1500 29c5:2cfb  1502 29c5:2d06  1503 29c5:2d34
  1504 29c5:2d39  1505 29c5:2d4f  1507 29c5:2d68  1509 29c5:2d7c
  1510 29c5:2d7e     0 29c5:2d83  1513 29c5:2d84  1518 29c5:2d8a
  1520 29c5:2d9f  1521 29c5:2da7  1522 29c5:2db5  1529 29c5:2dc7
  1530 29c5:2e2c  1531 29c5:2e34  1532 29c5:2e4a  1534 29c5:2e63
  1536 29c5:2e7a  1537 29c5:2e7c     0 29c5:2e7f  1540 29c5:2e80
  1545 29c5:2e86  1547 29c5:2e9b  1548 29c5:2ea3  1552 29c5:2eb1
  1553 29c5:2efd  1554 29c5:2f02  1555 29c5:2f18  1557 29c5:2f31
  1559 29c5:2f48  1560 29c5:2f4a     0 29c5:2f4d  1562 29c5:2f4e
  1564 29c5:2f55  1568 29c5:2f5a  1570 29c5:2f6f  1572 29c5:2f75
  1573 29c5:2f84  1574 29c5:2f8d  1578 29c5:2f9f  1582 29c5:2faa
  1583 29c5:2fbf  1584 29c5:2fd9  1588 29c5:2ff0  1590 29c5:2ff2
     0 29c5:2ff7  1597 29c5:2ff8  1598 29c5:2fff  1599 29c5:3017
     0 29c5:301d  1605 29c5:301e  1606 29c5:3024  1609 29c5:3029
  1610 29c5:303d  1611 29c5:304e  1613 29c5:3050  1614 29c5:306c
  1615 29c5:3071  1609 29c5:307d  1618 29c5:308d  1619 29c5:3093
  1621 29c5:309e     0 29c5:30a1

Line numbers for R:\MAX\lib\Lenginer.lib(sysbuf.c) segment SYSBUF_TEXT

    21 2ccf:0002    24 2ccf:000a    25 2ccf:0015    27 2ccf:001f
    28 2ccf:0036    29 2ccf:003d    31 2ccf:0046     0 2ccf:004b
    36 2ccf:004c    39 2ccf:0051    41 2ccf:005f    44 2ccf:0069
    45 2ccf:007c    47 2ccf:0080    48 2ccf:008d    50 2ccf:009a
    54 2ccf:009c    55 2ccf:00ab    57 2ccf:00b5    58 2ccf:00be
    60 2ccf:00c7    61 2ccf:00ca     0 2ccf:00cf    65 2ccf:00d0
    66 2ccf:00d7    67 2ccf:00e2    68 2ccf:00ee    69 2ccf:00f7
    71 2ccf:0102     0 2ccf:0107    75 2ccf:0108    76 2ccf:010b
    77 2ccf:0119    79 2ccf:0123    80 2ccf:012e     0 2ccf:012f
    86 2ccf:0130    89 2ccf:0137    91 2ccf:014f    92 2ccf:015d
    93 2ccf:0166    95 2ccf:0172    96 2ccf:0182    97 2ccf:019d
    98 2ccf:01af    99 2ccf:01b4     0 2ccf:01b9   105 2ccf:01ba
   108 2ccf:01c2   110 2ccf:01cb   111 2ccf:01d9   112 2ccf:01e2
   115 2ccf:01ed   117 2ccf:0204   118 2ccf:021d   119 2ccf:0236
   120 2ccf:024f   121 2ccf:0264   122 2ccf:026f   123 2ccf:0272
     0 2ccf:0277   127 2ccf:0278   128 2ccf:027e   129 2ccf:0287
   130 2ccf:0290     0 2ccf:0291   137 2ccf:0292   144 2ccf:029d
   145 2ccf:02af   146 2ccf:02b3   147 2ccf:02bf   148 2ccf:02ca
   150 2ccf:02e0   151 2ccf:02ea   152 2ccf:02ef     0 2ccf:02f5

Line numbers for R:\MAX\lib\Lenginer.lib(sysinfo.c) segment SYSINFO_TEXT

   166 2cfe:0006   167 2cfe:000c   168 2cfe:0023   171 2cfe:0031
   172 2cfe:003b   173 2cfe:004d   175 2cfe:0061   176 2cfe:007d
   178 2cfe:009c   180 2cfe:00a0   181 2cfe:00a2     0 2cfe:00a3
   193 2cfe:00a4   194 2cfe:00b0   196 2cfe:00c1     0 2cfe:00c3
   204 2cfe:00c4   205 2cfe:00cc   209 2cfe:00d7   210 2cfe:00e8
   211 2cfe:00f3   214 2cfe:00fe   217 2cfe:0102   218 2cfe:010c
   219 2cfe:011d   220 2cfe:0127   222 2cfe:013d   223 2cfe:0147
   224 2cfe:0153   226 2cfe:0168   227 2cfe:016f   228 2cfe:0179
   230 2cfe:0197   232 2cfe:01a3   233 2cfe:01ad   235 2cfe:01bb
   236 2cfe:01c5   238 2cfe:01d6   239 2cfe:01e6   240 2cfe:01f9
   241 2cfe:0209   242 2cfe:0213   250 2cfe:022e   251 2cfe:023d
   252 2cfe:0245   253 2cfe:024d   254 2cfe:026d   255 2cfe:0279
   257 2cfe:0280   258 2cfe:0287   260 2cfe:02a2   261 2cfe:02a9
   262 2cfe:02b4   263 2cfe:02c4   264 2cfe:02ce   266 2cfe:02d2
   267 2cfe:02f1   269 2cfe:02fb   271 2cfe:0304   272 2cfe:030e
   273 2cfe:0318   274 2cfe:0332   275 2cfe:033c   276 2cfe:034d
   278 2cfe:0351   279 2cfe:0354   280 2cfe:0369   281 2cfe:0373
   283 2cfe:037d   284 2cfe:0380   321 2cfe:038b   309 2cfe:03ab
   305 2cfe:03b7   291 2cfe:03bd   292 2cfe:03c7   294 2cfe:03c9
   296 2cfe:03d5   298 2cfe:03db   287 2cfe:03dd   288 2cfe:03e7
   316 2cfe:03e9   318 2cfe:03f5   319 2cfe:03fb   324 2cfe:0405
   327 2cfe:0417   335 2cfe:0429   338 2cfe:0435   339 2cfe:044a
   350 2cfe:0453   351 2cfe:045f   352 2cfe:0469   355 2cfe:0480
   356 2cfe:0494   357 2cfe:049e   358 2cfe:04a2   359 2cfe:04ae
   362 2cfe:04b4   363 2cfe:04c1   365 2cfe:04cf   368 2cfe:04d3
   370 2cfe:04da   371 2cfe:04e4   553 2cfe:04ec   374 2cfe:04f2
   375 2cfe:0506   376 2cfe:0510   380 2cfe:051d   381 2cfe:0527
   382 2cfe:052b   383 2cfe:0532   384 2cfe:053c   385 2cfe:0541
   386 2cfe:055f   387 2cfe:0564   389 2cfe:0571   392 2cfe:057e
   393 2cfe:0588   396 2cfe:058c   397 2cfe:0596   398 2cfe:05a3
   399 2cfe:05c6   400 2cfe:05d0   401 2cfe:05d4   402 2cfe:05de
   403 2cfe:05e2   404 2cfe:05ec   405 2cfe:05f0   406 2cfe:05fa
   409 2cfe:0607   411 2cfe:060c   413 2cfe:061a   414 2cfe:0622
   415 2cfe:062c   417 2cfe:064c   418 2cfe:065b   419 2cfe:0663
   421 2cfe:066d   417 2cfe:0696   426 2cfe:06a5   430 2cfe:06c4
   432 2cfe:06ce   433 2cfe:06dd   434 2cfe:06e8   436 2cfe:06f8
   437 2cfe:06fa   438 2cfe:0705   441 2cfe:070f   442 2cfe:071b
   443 2cfe:0725   445 2cfe:0733   446 2cfe:0747   452 2cfe:074e
   453 2cfe:075a   454 2cfe:0764   460 2cfe:0768   462 2cfe:0771
   463 2cfe:077e   465 2cfe:0785   466 2cfe:078d   474 2cfe:0797
   475 2cfe:07a1   476 2cfe:07a5   477 2cfe:07ba   478 2cfe:07c4
   482 2cfe:07d2   483 2cfe:07dc   484 2cfe:07e0   486 2cfe:07ea
   488 2cfe:07f7   490 2cfe:07fb   495 2cfe:0801   496 2cfe:080b
   499 2cfe:0814   500 2cfe:081e   501 2cfe:0822   503 2cfe:085b
   504 2cfe:0865   506 2cfe:08ab   507 2cfe:08b7   509 2cfe:08c1
   512 2cfe:08f0   513 2cfe:08fc   515 2cfe:0906   520 2cfe:0935
   521 2cfe:093f   523 2cfe:0943   524 2cfe:094f   526 2cfe:0959
   530 2cfe:0988   531 2cfe:0992   536 2cfe:0996   545 2cfe:09a0
   546 2cfe:09bf   547 2cfe:09c7   549 2cfe:09d1   551 2cfe:09ea
   554 2cfe:09ec     0 2cfe:09f1   561 2cfe:09f2   562 2cfe:09f8
   563 2cfe:0a01   564 2cfe:0a11   566 2cfe:0a19   567 2cfe:0a38
   568 2cfe:0a57   569 2cfe:0a76   570 2cfe:0a95   572 2cfe:0ab4
   573 2cfe:0ac8   574 2cfe:0ace     0 2cfe:0ad1   581 2cfe:0ad2
   585 2cfe:0ad9   586 2cfe:0ae6   588 2cfe:0af8   589 2cfe:0b08
   590 2cfe:0b17   591 2cfe:0b29   592 2cfe:0b38   593 2cfe:0b47
   594 2cfe:0b55     0 2cfe:0b59   602 2cfe:0b5a   603 2cfe:0b61
   605 2cfe:0b68   608 2cfe:0b83   612 2cfe:0b8a   613 2cfe:0b8d
   614 2cfe:0b8f   615 2cfe:0b91   616 2cfe:0b92   618 2cfe:0b95
   625 2cfe:0b9a   626 2cfe:0bdb   628 2cfe:0bf2   629 2cfe:0bfe
   634 2cfe:0c05   636 2cfe:0c11   639 2cfe:0c16   640 2cfe:0c18
     0 2cfe:0c1d   648 2cfe:0c1e   651 2cfe:0c26   652 2cfe:0c2c
   653 2cfe:0c39   655 2cfe:0c4e     0 2cfe:0c53   662 2cfe:0c54
   666 2cfe:0c5c   667 2cfe:0c6d   670 2cfe:0c92   671 2cfe:0cae
   673 2cfe:0cb6   678 2cfe:0cea   694 2cfe:0cf5   680 2cfe:0d12
   683 2cfe:0d1a   686 2cfe:0d22   689 2cfe:0d2a   692 2cfe:0d32
   696 2cfe:0d3c   702 2cfe:0d5b   703 2cfe:0d87   707 2cfe:0db3
   708 2cfe:0dc5   709 2cfe:0dcc   710 2cfe:0dde   712 2cfe:0def
   715 2cfe:0e03   718 2cfe:0e0f   719 2cfe:0e1c   721 2cfe:0e25
   723 2cfe:0e41   721 2cfe:0e72   724 2cfe:0e84   729 2cfe:0e9a
   730 2cfe:0eaa   732 2cfe:0ec1     0 2cfe:0ec7   739 2cfe:0ec8
   748 2cfe:0ed3   749 2cfe:0ed9   750 2cfe:0ee2   752 2cfe:0ef5
   756 2cfe:0f14   753 2cfe:0f1c   757 2cfe:0f21   758 2cfe:0f23
     0 2cfe:0f29   765 2cfe:0f2a   766 2cfe:0f30   768 2cfe:0f3e
   775 2cfe:0f49   776 2cfe:0f56   777 2cfe:0f6b   779 2cfe:0f6e
     0 2cfe:0f71   786 2cfe:0f72   790 2cfe:0f78   791 2cfe:0f85
   792 2cfe:0f89   793 2cfe:0f9e   794 2cfe:0fa1     0 2cfe:0fa5
   801 2cfe:0fa6   802 2cfe:0fae   807 2cfe:0fc6   808 2cfe:0fd0
   809 2cfe:0fe2   810 2cfe:0ff6   811 2cfe:100e   812 2cfe:101f
   815 2cfe:1031   816 2cfe:1045   817 2cfe:105e   818 2cfe:106a
   821 2cfe:107c   825 2cfe:1088   826 2cfe:109f   827 2cfe:10ae
   828 2cfe:10bb   829 2cfe:10cb   832 2cfe:10e7   833 2cfe:10ea
     0 2cfe:10ef   841 2cfe:10f0   843 2cfe:1101   844 2cfe:110d
   845 2cfe:1114   853 2cfe:111f   855 2cfe:1133   859 2cfe:1141
     0 2cfe:1143   867 2cfe:1144   881 2cfe:114b   883 2cfe:116e
   884 2cfe:1187   885 2cfe:11b0   886 2cfe:11b9   887 2cfe:11c9
   889 2cfe:11d7   890 2cfe:11ef   891 2cfe:1219   892 2cfe:1222
   893 2cfe:1230   895 2cfe:1240   897 2cfe:1249   898 2cfe:1254
     0 2cfe:1259   905 2cfe:125a   909 2cfe:1262   911 2cfe:126d
   912 2cfe:1276   915 2cfe:1291   916 2cfe:129a   917 2cfe:129c
   918 2cfe:12a7   920 2cfe:12ad   921 2cfe:12af   923 2cfe:12b1
   924 2cfe:12b5   925 2cfe:12b8     0 2cfe:12bd   932 2cfe:12be
   933 2cfe:12c9   935 2cfe:12dc   936 2cfe:12ea   937 2cfe:12ee
     0 2cfe:12f3   944 2cfe:12f4   948 2cfe:12fc   950 2cfe:1307
   951 2cfe:1310   954 2cfe:132d   955 2cfe:1336   956 2cfe:1338
   957 2cfe:1343   959 2cfe:1349   960 2cfe:134b   962 2cfe:134d
   964 2cfe:1351   965 2cfe:1359   966 2cfe:135c     0 2cfe:1361
   973 2cfe:1362   974 2cfe:136d   976 2cfe:1380   977 2cfe:138e
   978 2cfe:1392     0 2cfe:1397   986 2cfe:1398   987 2cfe:139e
   988 2cfe:13a3   991 2cfe:13a8   992 2cfe:13ab   993 2cfe:13ad
   994 2cfe:13af   995 2cfe:13b1   996 2cfe:13b4   997 2cfe:13b7
  1001 2cfe:13ba  1002 2cfe:13c6  1003 2cfe:13d4     0 2cfe:13d5
  1011 2cfe:13d6  1021 2cfe:13de  1022 2cfe:13f5  1024 2cfe:13f8
  1025 2cfe:1413  1026 2cfe:1425  1028 2cfe:142d  1029 2cfe:1434
  1159 2cfe:1437  1031 2cfe:1466  1032 2cfe:147d  1033 2cfe:1494
  1034 2cfe:149d  1035 2cfe:14a3  1041 2cfe:14ac  1042 2cfe:14c3
  1043 2cfe:14da  1044 2cfe:14e3  1045 2cfe:14e9  1051 2cfe:14f2
  1053 2cfe:1509  1054 2cfe:152a  1055 2cfe:1533  1056 2cfe:1539
  1057 2cfe:153f  1059 2cfe:1545  1060 2cfe:155b  1066 2cfe:1565
  1068 2cfe:157c  1069 2cfe:159d  1070 2cfe:15a6  1071 2cfe:15ac
  1072 2cfe:15b2  1074 2cfe:15b8  1081 2cfe:15d1  1083 2cfe:15e8
  1091 2cfe:15f2  1092 2cfe:161d  1093 2cfe:163b  1094 2cfe:1645
  1097 2cfe:165c  1098 2cfe:1687  1099 2cfe:16a5  1102 2cfe:16af
  1105 2cfe:16bb  1108 2cfe:16c6  1109 2cfe:16e7  1110 2cfe:16f0
  1111 2cfe:16f6  1112 2cfe:16fc  1114 2cfe:1702  1121 2cfe:171b
  1122 2cfe:1732  1134 2cfe:1737  1135 2cfe:174e  1147 2cfe:1753
  1148 2cfe:176a  1149 2cfe:1781  1150 2cfe:178a  1151 2cfe:1790
  1152 2cfe:1796  1153 2cfe:179c  1154 2cfe:17a2  1155 2cfe:17a8
  1156 2cfe:17ae  1157 2cfe:17b4  1026 2cfe:17bd  1161 2cfe:17cd
  1162 2cfe:17dd  1165 2cfe:17e2  1166 2cfe:17f6  1167 2cfe:1808
  1171 2cfe:180d  1172 2cfe:1821  1171 2cfe:182c  1174 2cfe:182e
     0 2cfe:1833  1177 2cfe:1834  1181 2cfe:183b  1183 2cfe:1852
  1185 2cfe:185e  1189 2cfe:186b  1182 2cfe:187e  1193 2cfe:1886
     0 2cfe:188b  1199 2cfe:188c  1200 2cfe:1898  1202 2cfe:18a2
  1200 2cfe:18af  1203 2cfe:18ba  1207 2cfe:18be  1208 2cfe:18c0
     0 2cfe:18c1  1216 2cfe:18c2  1222 2cfe:18c8  1223 2cfe:18cb
  1224 2cfe:18cd  1225 2cfe:18cf  1226 2cfe:18d1  1227 2cfe:18d4
  1228 2cfe:18d7  1230 2cfe:18da  1231 2cfe:18e6  1232 2cfe:18f2
  1234 2cfe:1900  1235 2cfe:1914  1257 2cfe:1925  1259 2cfe:192d
  1260 2cfe:1934  1261 2cfe:193f  1264 2cfe:194c  1265 2cfe:194e
     0 2cfe:1951  1272 2cfe:1952  1279 2cfe:1958  1281 2cfe:198d
  1286 2cfe:19a7  1288 2cfe:19cb  1289 2cfe:19d1  1291 2cfe:19e8
  1292 2cfe:19ee  1294 2cfe:1a0d  1295 2cfe:1a13  1296 2cfe:1a2a
  1298 2cfe:1a4a  1299 2cfe:1a53     0 2cfe:1a57  1306 2cfe:1a58
  1310 2cfe:1a5e  1311 2cfe:1a73  1313 2cfe:1a7a  1315 2cfe:1a87
  1316 2cfe:1a8c  1317 2cfe:1a90  1318 2cfe:1a94  1319 2cfe:1a98
  1320 2cfe:1aa0  1321 2cfe:1aa6  1323 2cfe:1aac  1324 2cfe:1ac4
  1326 2cfe:1aca  1327 2cfe:1ae4     0 2cfe:1ae7  1334 2cfe:1ae8
  1339 2cfe:1aee  1340 2cfe:1b03  1342 2cfe:1b16  1344 2cfe:1b23
  1345 2cfe:1b28  1347 2cfe:1b2e  1348 2cfe:1b46  1349 2cfe:1b4f
  1355 2cfe:1b67  1356 2cfe:1b77  1358 2cfe:1b7d  1361 2cfe:1b8c
  1362 2cfe:1b9d  1363 2cfe:1bb4  1367 2cfe:1bc6  1370 2cfe:1bcb
  1372 2cfe:1be2  1379 2cfe:1c0b  1380 2cfe:1c21  1381 2cfe:1c2b
  1382 2cfe:1c35  1383 2cfe:1c3d  1384 2cfe:1c44  1401 2cfe:1c58
  1386 2cfe:1c5d  1405 2cfe:1c70  1389 2cfe:1c73  1392 2cfe:1c78
  1395 2cfe:1c7d  1398 2cfe:1c82  1408 2cfe:1c87  1410 2cfe:1c9a
  1414 2cfe:1ccf  1416 2cfe:1cf5  1419 2cfe:1cfc  1421 2cfe:1d52
  1424 2cfe:1d70  1425 2cfe:1d73     0 2cfe:1d77  1432 2cfe:1d78
  1437 2cfe:1d7e  1438 2cfe:1d8b  1439 2cfe:1d90  1442 2cfe:1da5
  1443 2cfe:1db6     0 2cfe:1db9  1452 2cfe:1dba  1460 2cfe:1dc0
  1463 2cfe:1ddf  1464 2cfe:1dff  1466 2cfe:1e12  1469 2cfe:1e35
  1470 2cfe:1e49  1472 2cfe:1e5c  1474 2cfe:1e7f  1479 2cfe:1ea1
  1482 2cfe:1eb8  1483 2cfe:1ec3  1484 2cfe:1ed5  1486 2cfe:1ede
  1487 2cfe:1eea  1489 2cfe:1efb     0 2cfe:1eff  1496 2cfe:1f00
  1501 2cfe:1f06  1502 2cfe:1f16  1503 2cfe:1f28  1504 2cfe:1f42
  1505 2cfe:1f61  1506 2cfe:1f7f  1507 2cfe:1fa6  1509 2cfe:1fc4
  1517 2cfe:1fce  1518 2cfe:1fe0  1521 2cfe:1fed  1522 2cfe:1ff8
  1523 2cfe:201c  1524 2cfe:2026  1525 2cfe:2033  1534 2cfe:203f
  1536 2cfe:2055  1538 2cfe:2066  1529 2cfe:2068  1540 2cfe:2087
  1544 2cfe:20a5  1554 2cfe:20ba  1556 2cfe:20c2     0 2cfe:20c5
  1563 2cfe:20c6  1566 2cfe:20cc  1567 2cfe:20d6  1569 2cfe:20e0
  1570 2cfe:20ea  1571 2cfe:20f7  1574 2cfe:2105  1575 2cfe:212a
  1576 2cfe:213a  1577 2cfe:214f  1578 2cfe:215d  1579 2cfe:216b
  1580 2cfe:2179  1582 2cfe:2195  1583 2cfe:219f  1585 2cfe:21ac
  1586 2cfe:21bc  1587 2cfe:21c4  1588 2cfe:21c7     0 2cfe:21cb
  1592 2cfe:21cc  1596 2cfe:21d3  1598 2cfe:21e0  1599 2cfe:21fa
  1601 2cfe:21fe  1602 2cfe:2225  1604 2cfe:2241  1605 2cfe:224b
  1606 2cfe:2257  1607 2cfe:2270  1608 2cfe:227c  1610 2cfe:2298
  1611 2cfe:22ad  1614 2cfe:22c9  1615 2cfe:22e2  1617 2cfe:22ff
  1618 2cfe:231e  1677 2cfe:2333     0 2cfe:2337  1684 2cfe:2338
  1686 2cfe:233e  1687 2cfe:2351  1688 2cfe:2364  1689 2cfe:2377
  1690 2cfe:2382  1697 2cfe:238d  1699 2cfe:23b7  1700 2cfe:23cb
  1701 2cfe:23d0  1702 2cfe:23df  1713 2cfe:23ed  1714 2cfe:2401
  1715 2cfe:2418  1716 2cfe:241a  1718 2cfe:2424  1719 2cfe:244f
  1721 2cfe:245a  1722 2cfe:247c  1725 2cfe:2487  1726 2cfe:248b
  1733 2cfe:2493  1734 2cfe:24a1  1735 2cfe:24ae  1740 2cfe:24c5
  1742 2cfe:24f6  1743 2cfe:2508  1745 2cfe:2514  1751 2cfe:251c
  1752 2cfe:2542  1754 2cfe:2557  1755 2cfe:2559  1759 2cfe:255f
  1764 2cfe:2578     0 2cfe:257d  1771 2cfe:257e  1781 2cfe:2586
  1782 2cfe:259e  1784 2cfe:25a8  1786 2cfe:25c1  1787 2cfe:25f1
  1788 2cfe:2614  1789 2cfe:2624  1790 2cfe:263f  1792 2cfe:2649
  1797 2cfe:2659  1798 2cfe:267f  1799 2cfe:269e  1802 2cfe:26bc
  1803 2cfe:26e0  1806 2cfe:26ff  1807 2cfe:2723  1808 2cfe:2739
  1813 2cfe:2754     0 2cfe:2759  1821 2cfe:275a  1825 2cfe:2760
  1826 2cfe:2770  1827 2cfe:2778  1830 2cfe:277a  1831 2cfe:279d
  1832 2cfe:27a5  1833 2cfe:27ae  1834 2cfe:27b5  1835 2cfe:27cb
     0 2cfe:27cf  1842 2cfe:27d0  1849 2cfe:27d7  1850 2cfe:27dc
  1851 2cfe:2819  1853 2cfe:2822  1857 2cfe:282b  1858 2cfe:283f
  1859 2cfe:2856  1862 2cfe:2861  1863 2cfe:2877  1867 2cfe:287e
  1864 2cfe:2887  1868 2cfe:28b6  1869 2cfe:28bc  1870 2cfe:28cd
  1872 2cfe:28d7  1873 2cfe:28db  1877 2cfe:28de  1879 2cfe:28e6
  1882 2cfe:28e8  1883 2cfe:28f7  1887 2cfe:28fe  1884 2cfe:2907
  1888 2cfe:293e  1889 2cfe:2944  1890 2cfe:294d  1892 2cfe:2952
  1895 2cfe:296b  1896 2cfe:2973     0 2cfe:2979  1903 2cfe:297a
  1910 2cfe:2981  1911 2cfe:2986  1912 2cfe:29c3  1914 2cfe:29cc
  1918 2cfe:29d5  1919 2cfe:29e9  1920 2cfe:2a00  1923 2cfe:2a0b
  1924 2cfe:2a21  1928 2cfe:2a28  1925 2cfe:2a31  1929 2cfe:2a60
  1930 2cfe:2a66  1931 2cfe:2a77  1933 2cfe:2a81  1934 2cfe:2a85
  1938 2cfe:2a88  1940 2cfe:2a90  1943 2cfe:2a92  1944 2cfe:2aa1
  1948 2cfe:2aa8  1945 2cfe:2ab1  1949 2cfe:2ae8  1950 2cfe:2aee
  1951 2cfe:2af7  1953 2cfe:2afc  1956 2cfe:2b15  1957 2cfe:2b1d
     0 2cfe:2b23  1966 2cfe:2b24  1969 2cfe:2b2c  1970 2cfe:2b30
  1971 2cfe:2b34  1973 2cfe:2b38  1974 2cfe:2b3e  1975 2cfe:2b45
  1977 2cfe:2b5b  1978 2cfe:2b5d  1979 2cfe:2b67  1981 2cfe:2b6f
  1983 2cfe:2b78  1985 2cfe:2b7a  1986 2cfe:2bbd  1987 2cfe:2bc7
  1990 2cfe:2bcc  1991 2cfe:2bd9  1993 2cfe:2bde  1995 2cfe:2be4
  1996 2cfe:2bec     0 2cfe:2bf1  2003 2cfe:2bf2  2010 2cfe:2bf8
  2011 2cfe:2c11  2014 2cfe:2c1b  2015 2cfe:2c27  2016 2cfe:2c3c
  2017 2cfe:2c4f  2027 2cfe:2c51  2030 2cfe:2c5e  2019 2cfe:2c6a
  2020 2cfe:2c73  2022 2cfe:2c7a  2023 2cfe:2c87  2033 2cfe:2c98
  2034 2cfe:2ca0  2035 2cfe:2cb5  2036 2cfe:2cc8  2047 2cfe:2cd2
  2050 2cfe:2cdf  2037 2cfe:2ceb  2038 2cfe:2cf4  2040 2cfe:2cfb
  2041 2cfe:2d08  2054 2cfe:2d19  2060 2cfe:2d29  2061 2cfe:2d38
  2062 2cfe:2d41  2064 2cfe:2d51  2068 2cfe:2d62  2072 2cfe:2d6d
  2073 2cfe:2d77  2074 2cfe:2d83  2078 2cfe:2d85  2079 2cfe:2da8
  2080 2cfe:2dba  2081 2cfe:2dc2  2082 2cfe:2dcb  2083 2cfe:2de5
  2085 2cfe:2df5     0 2cfe:2df9  2108 2cfe:2dfa  2116 2cfe:2e01
  2120 2cfe:2e09  2122 2cfe:2e1b  2123 2cfe:2e27  2125 2cfe:2e36
  2126 2cfe:2e3e  2127 2cfe:2e43  2141 2cfe:2e4c  2136 2cfe:2e55
  2137 2cfe:2e6d  2145 2cfe:2e72  2146 2cfe:2e78  2148 2cfe:2e7d
  2150 2cfe:2e8a  2151 2cfe:2e8c  2152 2cfe:2e9a  2154 2cfe:2ea0
  2156 2cfe:2ea6  2161 2cfe:2eca  2172 2cfe:2ed9  2174 2cfe:2edd
  2179 2cfe:2eff  2180 2cfe:2f05  2181 2cfe:2f0b  2183 2cfe:2f11
  2185 2cfe:2f34  2186 2cfe:2f63  2188 2cfe:2f6b  2190 2cfe:2f71
  2191 2cfe:2f7c  2192 2cfe:2f81  2193 2cfe:2f86  2197 2cfe:2f89
  2199 2cfe:2f8d  2130 2cfe:2f98  2131 2cfe:2f9d  2133 2cfe:2fa7
  2201 2cfe:2faf  2203 2cfe:2fb5  2204 2cfe:2fbb  2205 2cfe:2fc1
  2207 2cfe:2fc7  2209 2cfe:2fea  2210 2cfe:3019  2214 2cfe:3021
     0 2cfe:3025  2221 2cfe:3026  2228 2cfe:302d  2229 2cfe:3037
  2230 2cfe:3041  2232 2cfe:3046  2234 2cfe:3052  2237 2cfe:305e
  2238 2cfe:3070  2240 2cfe:3086  2244 2cfe:3099  2246 2cfe:30a5
  2247 2cfe:30ac  2248 2cfe:30bb  2249 2cfe:30ce  2250 2cfe:30dd
  2251 2cfe:30ea  2257 2cfe:30fe  2258 2cfe:3110  2260 2cfe:3115
  2262 2cfe:3129  2267 2cfe:3143  2268 2cfe:3155  2276 2cfe:315a
  2280 2cfe:3168  2282 2cfe:3175  2283 2cfe:317e  2286 2cfe:3194
  2287 2cfe:31a0  2288 2cfe:31a6  2289 2cfe:31af  2290 2cfe:31b6
  2292 2cfe:31c2  2293 2cfe:31c4  2294 2cfe:31d1  2304 2cfe:31d3
  2305 2cfe:31df  2306 2cfe:31e5  2307 2cfe:31ee  2308 2cfe:31f5
  2309 2cfe:3201  2311 2cfe:3209  2312 2cfe:3218  2296 2cfe:3225
  2300 2cfe:3233  2301 2cfe:3242  2315 2cfe:3249  2317 2cfe:3255
  2318 2cfe:3261  2320 2cfe:3269     0 2cfe:326f  2328 2cfe:3270
  2332 2cfe:3277  2333 2cfe:3281  2334 2cfe:328b  2335 2cfe:3296
  2336 2cfe:32a1  2350 2cfe:32ac  2351 2cfe:32b1  2353 2cfe:32ca
  2354 2cfe:32dc  2356 2cfe:32f2  2357 2cfe:32fa  2358 2cfe:32ff
  2359 2cfe:3311  2360 2cfe:3316  2362 2cfe:331e  2366 2cfe:3336
  2367 2cfe:3348  2368 2cfe:3355  2369 2cfe:335a  2370 2cfe:336c
  2371 2cfe:3371  2372 2cfe:337f  2373 2cfe:3384  2377 2cfe:33a2
  2378 2cfe:33b4  2379 2cfe:33c1  2380 2cfe:33c6  2381 2cfe:33d8
  2382 2cfe:33dd  2383 2cfe:33eb  2384 2cfe:33f0  2393 2cfe:33f9
  2394 2cfe:340d  2395 2cfe:3412  2396 2cfe:3420  2397 2cfe:3441
  2398 2cfe:3453  2399 2cfe:345a  2400 2cfe:3470  2401 2cfe:3473
  2402 2cfe:3483  2406 2cfe:3485  2407 2cfe:3490  2408 2cfe:34a4
  2409 2cfe:34a9  2410 2cfe:34b7  2411 2cfe:34d8  2412 2cfe:34ea
  2413 2cfe:34f1  2414 2cfe:3507  2415 2cfe:350a  2416 2cfe:351a
  2417 2cfe:352a  2422 2cfe:352d  2423 2cfe:3541  2424 2cfe:3546
  2425 2cfe:3554  2426 2cfe:3570  2427 2cfe:357a  2428 2cfe:357f
  2429 2cfe:3595  2430 2cfe:3598  2431 2cfe:35a1  2432 2cfe:35b1
  2437 2cfe:35b3  2438 2cfe:35c7  2439 2cfe:35cc  2440 2cfe:35e8
  2441 2cfe:35f5  2442 2cfe:35fa  2443 2cfe:3610  2446 2cfe:3613
  2447 2cfe:3629  2448 2cfe:3639  2449 2cfe:364f  2454 2cfe:3652
  2460 2cfe:365b  2468 2cfe:3670  2469 2cfe:3684  2470 2cfe:3690
  2477 2cfe:3698  2478 2cfe:369e  2479 2cfe:36bf  2480 2cfe:36dd
  2481 2cfe:36e8  2483 2cfe:36f9  2484 2cfe:3701  2486 2cfe:3718
  2472 2cfe:373c  2473 2cfe:3764  2474 2cfe:3775  2475 2cfe:377c
  2488 2cfe:377e     0 2cfe:3785  2504 2cfe:3786  2506 2cfe:378e
  2517 2cfe:3798  2518 2cfe:37b5  2519 2cfe:37c8  2534 2cfe:37f5
  2535 2cfe:3801  2536 2cfe:3823  2542 2cfe:384a  2513 2cfe:38b9
  2544 2cfe:38ca  2545 2cfe:38dd  2546 2cfe:38f0  2547 2cfe:38f8
  2548 2cfe:3900  2549 2cfe:392a  2550 2cfe:3954  2551 2cfe:3958
  2552 2cfe:395d  2557 2cfe:3962  2558 2cfe:3965     0 2cfe:396b
  2565 2cfe:396c  2570 2cfe:3974  2571 2cfe:397e  2572 2cfe:3988
  2573 2cfe:3999  2575 2cfe:39aa  2577 2cfe:39bb  2578 2cfe:39cf
  2579 2cfe:39da  2580 2cfe:39e7  2618 2cfe:39ea  2617 2cfe:3a28
  2618 2cfe:3a2d  2585 2cfe:3a2f  2594 2cfe:3a3f  2595 2cfe:3a5c
  2612 2cfe:3a5e  2613 2cfe:3a76  2615 2cfe:3a86  2588 2cfe:3a88
  2619 2cfe:3a9d  2621 2cfe:3aa3  2622 2cfe:3ac6  2623 2cfe:3ae2
  2624 2cfe:3aff  2626 2cfe:3b07  2628 2cfe:3b1a  2629 2cfe:3b4a
  2630 2cfe:3b4e     0 2cfe:3b53  2637 2cfe:3b54  2641 2cfe:3b5b
  2643 2cfe:3b69  2645 2cfe:3b75  2651 2cfe:3b80  2652 2cfe:3b9b
  2654 2cfe:3bab  2656 2cfe:3bbf  2657 2cfe:3bcb  2659 2cfe:3bd1
     0 2cfe:3bd5  2666 2cfe:3bd6  2670 2cfe:3bd8  2672 2cfe:3bf5
  2674 2cfe:3c04  2678 2cfe:3c0f  2679 2cfe:3c31  2673 2cfe:3c3c
  2683 2cfe:3c46     0 2cfe:3c49  2736 2cfe:3c4a  2744 2cfe:3c52
  2794 2cfe:3c5b  2790 2cfe:3c81  2791 2cfe:3c8d  2792 2cfe:3c92
  2752 2cfe:3c94  2753 2cfe:3ca0  2754 2cfe:3ca5  2757 2cfe:3ca7
  2758 2cfe:3cb3  2759 2cfe:3cb8  2763 2cfe:3cba  2770 2cfe:3cc2
  2771 2cfe:3cd1  2775 2cfe:3cdf  2781 2cfe:3ce7  2782 2cfe:3cf3
  2783 2cfe:3cf8  2784 2cfe:3d07  2796 2cfe:3d0c  2803 2cfe:3d36
  2804 2cfe:3d62  2806 2cfe:3d65  2824 2cfe:3d77  2831 2cfe:3d82
  2833 2cfe:3da3  2834 2cfe:3db2  2837 2cfe:3dbe  2839 2cfe:3dcf
  2843 2cfe:3ddb  2849 2cfe:3df3  2850 2cfe:3e23  2851 2cfe:3e29
  2837 2cfe:3e35  2854 2cfe:3e42  2857 2cfe:3e4b  2863 2cfe:3e79
  2864 2cfe:3e85     0 2cfe:3e8f  2875 2cfe:3e90  2883 2cfe:3e98
  2884 2cfe:3ebe  2887 2cfe:3ed2  2890 2cfe:3edb  2891 2cfe:3f23
  2892 2cfe:3f2f  2893 2cfe:3f43  2902 2cfe:3f60  2903 2cfe:3f7d
  2905 2cfe:3f92  2906 2cfe:3fad  2907 2cfe:3fc1  2897 2cfe:3fc6
  2912 2cfe:3fdd  2913 2cfe:3fdf     0 2cfe:3fe3  2924 2cfe:3fe4
  2928 2cfe:3fed  2933 2cfe:3fef  2934 2cfe:3ff4  2936 2cfe:401a
  2937 2cfe:401c  2943 2cfe:4030  2949 2cfe:4051  2950 2cfe:406b
  2953 2cfe:409a  2956 2cfe:40cc  2957 2cfe:40d7  2959 2cfe:40f4
  2960 2cfe:40f8  2962 2cfe:4106  2963 2cfe:4118  2964 2cfe:4129
  2965 2cfe:412f  2966 2cfe:4149  2968 2cfe:414c  2969 2cfe:4158
  2970 2cfe:415a     0 2cfe:4161  2977 2cfe:4162  2981 2cfe:416a
  2982 2cfe:4175  2983 2cfe:4187  2985 2cfe:419a  2986 2cfe:419c
  2987 2cfe:41bb  2989 2cfe:41df  2991 2cfe:41ea  2992 2cfe:41fc
  2993 2cfe:420f  2994 2cfe:421e  2995 2cfe:423e  2996 2cfe:424a
  2997 2cfe:4267  2999 2cfe:4273     0 2cfe:4279  3006 2cfe:427a
  3009 2cfe:4282  3010 2cfe:4287  3011 2cfe:429b  3012 2cfe:42a1
  3013 2cfe:42a7  3015 2cfe:42b1  3017 2cfe:42bb  3018 2cfe:42c8
  3021 2cfe:42ca  3022 2cfe:42d4  3023 2cfe:42d8  3025 2cfe:42dc
  3026 2cfe:42e1  3027 2cfe:42e8     0 2cfe:42ed  3036 2cfe:42ee
  3037 2cfe:42fb  3038 2cfe:431d  3041 2cfe:4338     0 2cfe:433f
  3048 2cfe:4340  3052 2cfe:434c  3054 2cfe:4354  3055 2cfe:4363
  3057 2cfe:4383  3059 2cfe:43a4  3060 2cfe:43b0  3061 2cfe:43bd
  3063 2cfe:43c5  3064 2cfe:43e2  3065 2cfe:43f3  3066 2cfe:43fa
  3068 2cfe:4401  3069 2cfe:4406  3072 2cfe:441d  3074 2cfe:442f
     0 2cfe:4435  3079 2cfe:4436  3082 2cfe:443e  3084 2cfe:4446
  3086 2cfe:4449  3088 2cfe:4465  3090 2cfe:4477  3091 2cfe:4490
  3096 2cfe:44a5  3097 2cfe:44c0  3098 2cfe:44c6  3099 2cfe:44ca
  3101 2cfe:44cb  3102 2cfe:44cd  3103 2cfe:44d2  3104 2cfe:44d7
  3105 2cfe:44ed  3106 2cfe:44fd  3107 2cfe:450b  3109 2cfe:4519
  3111 2cfe:4530  3112 2cfe:4539  3115 2cfe:453e  3117 2cfe:4540
     0 2cfe:4547  3120 2cfe:4548  3121 2cfe:4550  3122 2cfe:4555
  3126 2cfe:455d  3127 2cfe:4568  3130 2cfe:4587  3131 2cfe:45b3
  3133 2cfe:45bc  3134 2cfe:45da  3135 2cfe:45ea  3136 2cfe:45f8
  3138 2cfe:4601  3141 2cfe:4618  3142 2cfe:462e  3143 2cfe:4636
  3147 2cfe:463f  3148 2cfe:464b  3149 2cfe:466b  3155 2cfe:467c
  3156 2cfe:468e  3157 2cfe:46a1  3159 2cfe:46ae     0 2cfe:46b3
  3163 2cfe:46b4  3175 2cfe:46bd  3176 2cfe:46c5  3180 2cfe:46ce
  3185 2cfe:46e5  3190 2cfe:46f6  3192 2cfe:470a  3194 2cfe:4725
  3199 2cfe:473f  3200 2cfe:474b  3205 2cfe:4757  3210 2cfe:4792
  3211 2cfe:479a  3212 2cfe:47a0  3215 2cfe:47a6  3224 2cfe:47bc
  3226 2cfe:47e8  3228 2cfe:47ed  3230 2cfe:47f6  3233 2cfe:480d
  3236 2cfe:4810  3224 2cfe:4816  3243 2cfe:4837  3246 2cfe:483f
  3252 2cfe:4851  3253 2cfe:4860  3254 2cfe:4873  3255 2cfe:4888
  3256 2cfe:489e  3258 2cfe:48aa  3259 2cfe:48ba  3265 2cfe:48d2
  3266 2cfe:48e8  3268 2cfe:48f5  3270 2cfe:4915  3273 2cfe:491a
  3278 2cfe:4938  3279 2cfe:4953  3283 2cfe:495a  3288 2cfe:497f
  3289 2cfe:499d  3290 2cfe:49a4  3288 2cfe:49bf  3296 2cfe:49eb
  3303 2cfe:49f7  3206 2cfe:49fc  3305 2cfe:49fe     0 2cfe:4a05
  3308 2cfe:4a06  3312 2cfe:4a0c  3315 2cfe:4a11  3316 2cfe:4a14
  3317 2cfe:4a15  3318 2cfe:4a18  3319 2cfe:4a1a  3320 2cfe:4a1c
  3321 2cfe:4a1d  3323 2cfe:4a1f  3324 2cfe:4a22  3326 2cfe:4a24
  3327 2cfe:4a27  3330 2cfe:4a29  3331 2cfe:4a2c  3332 2cfe:4a2e
  3333 2cfe:4a30  3335 2cfe:4a32  3336 2cfe:4a35  3342 2cfe:4a38
  3343 2cfe:4a44  3345 2cfe:4a52     0 2cfe:4a53

Line numbers for R:\MAX\lib\Lenginer.lib(TESTMEM.asm) segment TESTMEM_TEXT

    62 31a3:0004    86 31a3:0004    88 31a3:0009    89 31a3:000d
    92 31a3:000f    93 31a3:0010    94 31a3:0014    95 31a3:0017
    96 31a3:0018    98 31a3:001a    99 31a3:001e   100 31a3:0023
   101 31a3:0028   104 31a3:002d   105 31a3:0032   106 31a3:0033
   110 31a3:0035   111 31a3:0036   114 31a3:0037   115 31a3:0039
   116 31a3:003c   117 31a3:003e   118 31a3:0040   120 31a3:0042
   121 31a3:0047   123 31a3:0049   125 31a3:004e   126 31a3:0054
   128 31a3:0056   129 31a3:005c   131 31a3:005e   132 31a3:0062
   133 31a3:0064   139 31a3:0069   140 31a3:006b   142 31a3:006d
   147 31a3:006f   148 31a3:0070   149 31a3:0073   153 31a3:0077
   154 31a3:007a   155 31a3:007c   157 31a3:007e   158 31a3:0083
   159 31a3:0085   161 31a3:0087   163 31a3:0089   164 31a3:008a
   165 31a3:008e   169 31a3:0090   170 31a3:0094   171 31a3:0096
   174 31a3:0098   176 31a3:009d   203 31a3:009e   205 31a3:00a1
   207 31a3:00a6   208 31a3:00a9   209 31a3:00ac   212 31a3:00af
   213 31a3:00b0   214 31a3:00b1   216 31a3:00b2   218 31a3:00b5
   219 31a3:00b8   220 31a3:00bb   223 31a3:00bd   224 31a3:00c0
   226 31a3:00c2   227 31a3:00c4   230 31a3:00c7   233 31a3:00c9
   234 31a3:00cb   235 31a3:00ce   236 31a3:00d1   237 31a3:00d3
   238 31a3:00d5   239 31a3:00d7   240 31a3:00d9   241 31a3:00dc
   243 31a3:00de   245 31a3:00e1   246 31a3:00e3   248 31a3:00e5
   249 31a3:00e8   251 31a3:00ea   253 31a3:00ec   255 31a3:00ed
   258 31a3:00ef   259 31a3:00f0   260 31a3:00f1   261 31a3:00f4
   262 31a3:00f7   263 31a3:00f9   265 31a3:00fc   266 31a3:00fe

Line numbers for R:\MAX\lib\Lenginer.lib(TIMER.asm) segment TIMER_TEXT

    34 31a3:0102    53 31a3:0105    54 31a3:0106    56 31a3:0107
    58 31a3:0109    59 31a3:010d    63 31a3:010f    64 31a3:0112
    65 31a3:0115    66 31a3:0118    68 31a3:011a    70 31a3:011c
    73 31a3:011e    74 31a3:0120    76 31a3:0123    77 31a3:0125
    78 31a3:0128    81 31a3:012a    84 31a3:012d    86 31a3:012f
    88 31a3:0132    91 31a3:0135    92 31a3:0137    93 31a3:013a
    96 31a3:013c    97 31a3:013f    99 31a3:0142   102 31a3:0145
   105 31a3:0148   107 31a3:014a   109 31a3:014d   111 31a3:0150
   112 31a3:0151   113 31a3:0153   115 31a3:0154   116 31a3:0157
   119 31a3:015a   122 31a3:015c   123 31a3:015d   177 31a3:0161
   193 31a3:0161   195 31a3:0162   196 31a3:0164   197 31a3:0166
   199 31a3:016d   200 31a3:016f   201 31a3:0171   203 31a3:0178
   204 31a3:017a   206 31a3:0181   208 31a3:0182   213 31a3:0183
   218 31a3:0183   220 31a3:0184   221 31a3:0186   222 31a3:0188
   224 31a3:018f   225 31a3:0191   226 31a3:0193   228 31a3:019a
   229 31a3:019c   231 31a3:01a3   233 31a3:01a4   238 31a3:01a5
   243 31a3:01a5   245 31a3:01a7   246 31a3:01a9   248 31a3:01b0
   249 31a3:01b2   251 31a3:01b9   252 31a3:01bb   253 31a3:01bd
   255 31a3:01c4   256 31a3:01c6   260 31a3:01c8   261 31a3:01cb
   265 31a3:01ce

Line numbers for R:\MAX\lib\Lenginer.lib(writsys.c) segment WRITSYS_TEXT

    81 31c0:0000    89 31c0:0008    91 31c0:0021    92 31c0:002b
    93 31c0:0037    92 31c0:0043    94 31c0:0057    91 31c0:006c
    97 31c0:0078     0 31c0:007d   106 31c0:007e   107 31c0:0088
   108 31c0:00a0   110 31c0:00ae   112 31c0:00c4   113 31c0:00d0
   115 31c0:00e0   116 31c0:00f2   118 31c0:0104   120 31c0:0115
   122 31c0:0127   123 31c0:013a   124 31c0:014d   126 31c0:0160
   128 31c0:0172   129 31c0:0194   130 31c0:01a7   131 31c0:01b9
   132 31c0:01cc   133 31c0:01e2   134 31c0:01f8   135 31c0:020e
   136 31c0:0221   137 31c0:0234   139 31c0:0247   141 31c0:0259
   142 31c0:026c   144 31c0:027f   145 31c0:0292   147 31c0:02a5
   148 31c0:02ba   149 31c0:02c6   151 31c0:02d6   152 31c0:02e2
   154 31c0:02f2   155 31c0:0304   157 31c0:0317   158 31c0:032a
   159 31c0:033d   160 31c0:034f   161 31c0:0361   162 31c0:0377
   164 31c0:038d   165 31c0:03a5   166 31c0:03bd   167 31c0:03d5
   168 31c0:03ed   169 31c0:0405   171 31c0:0418   172 31c0:0433
   173 31c0:043f   174 31c0:044b   175 31c0:0457   176 31c0:0477
   178 31c0:0497   179 31c0:04a3   182 31c0:04bb   183 31c0:04c7
   186 31c0:04d3   187 31c0:04df   188 31c0:04ee   191 31c0:0501
   193 31c0:0513   194 31c0:0525   195 31c0:0538   196 31c0:054b
   198 31c0:055e   200 31c0:0570   201 31c0:0582   203 31c0:0594
   204 31c0:0597   205 31c0:05ad   207 31c0:05c3   208 31c0:05cf
   210 31c0:05e3   211 31c0:05ef   214 31c0:0603   216 31c0:0620
   218 31c0:063f   220 31c0:065e   222 31c0:067d   223 31c0:069c
   224 31c0:06af   225 31c0:06bc   226 31c0:06c8   227 31c0:06d7
   229 31c0:06e4   230 31c0:06fe   231 31c0:070a   233 31c0:071e
   235 31c0:0738   236 31c0:0750   237 31c0:0768   238 31c0:0780
   239 31c0:0792   241 31c0:07a4   242 31c0:07b0   243 31c0:07bf
   246 31c0:07d5   247 31c0:07e1   249 31c0:07f0   250 31c0:0803
   252 31c0:0816   253 31c0:0822   256 31c0:0831   258 31c0:083d
   261 31c0:084d   262 31c0:0873   263 31c0:088a   264 31c0:0896
   269 31c0:08ae   271 31c0:08cf   272 31c0:08f0   273 31c0:0900
     0 31c0:0905   280 31c0:0906   281 31c0:0909   282 31c0:092d
     0 31c0:0931   285 31c0:0932   286 31c0:0935   287 31c0:0953
     0 31c0:0957   290 31c0:0958   291 31c0:095b   292 31c0:0976
     0 31c0:0979   295 31c0:097a   296 31c0:097d   297 31c0:0998
     0 31c0:099b   310 31c0:099c   311 31c0:099f   312 31c0:09bd
     0 31c0:09c1   316 31c0:09c2   319 31c0:09ca   320 31c0:09e6
   321 31c0:09ec   322 31c0:0a00   320 31c0:0a19   324 31c0:0a1e
   325 31c0:0a36     0 31c0:0a3b   328 31c0:0a3c   331 31c0:0a47
   332 31c0:0a63   334 31c0:0a90   332 31c0:0aa3   336 31c0:0aab
   337 31c0:0abc     0 31c0:0ac1   340 31c0:0ac2   343 31c0:0acd
   344 31c0:0ae9   346 31c0:0b1a   344 31c0:0b2d   348 31c0:0b36
   349 31c0:0b47     0 31c0:0b4d   352 31c0:0b4e   353 31c0:0b55
   354 31c0:0b59   355 31c0:0b7d     0 31c0:0b81   358 31c0:0b82
   363 31c0:0b8e   364 31c0:0b96   365 31c0:0b9e   366 31c0:0bbe
   367 31c0:0be0   368 31c0:0bec   369 31c0:0bfa   370 31c0:0c09
   372 31c0:0c1b     0 31c0:0c21   374 31c0:0c22   379 31c0:0c2d
   380 31c0:0c49   381 31c0:0c55   382 31c0:0c5b   383 31c0:0c6a
   386 31c0:0c72     0 31c0:0c77   389 31c0:0c78   394 31c0:0c83
   398 31c0:0c8a   400 31c0:0c95   398 31c0:0c98   403 31c0:0caa
   406 31c0:0cc8   407 31c0:0cd3   408 31c0:0cdc   409 31c0:0d04
   411 31c0:0d0f     0 31c0:0d15   414 31c0:0d16   419 31c0:0d21
   422 31c0:0d28   424 31c0:0d33   422 31c0:0d36   427 31c0:0d48
   430 31c0:0d5e   431 31c0:0d69   441 31c0:0d72   442 31c0:0dd7
   444 31c0:0de2     0 31c0:0de7   447 31c0:0de8   452 31c0:0df3
   455 31c0:0dfa   457 31c0:0e05   455 31c0:0e08   460 31c0:0e1a
   463 31c0:0e30   464 31c0:0e3b   468 31c0:0e44   469 31c0:0e86
   471 31c0:0e91     0 31c0:0e97   476 31c0:0e98   477 31c0:0e9f
   478 31c0:0ec6     0 31c0:0ecb   481 31c0:0ecc   483 31c0:0ed3
   484 31c0:0ef4     0 31c0:0ef9   487 31c0:0efa   489 31c0:0f01
   490 31c0:0f22     0 31c0:0f27   493 31c0:0f28   494 31c0:0f2f
   495 31c0:0f42   496 31c0:0f56   497 31c0:0f6a   498 31c0:0f7e
   499 31c0:0f92   500 31c0:0fa6   501 31c0:0fba   502 31c0:0fce
   503 31c0:0fe2   504 31c0:0ff7   505 31c0:100c   506 31c0:1021
   507 31c0:1036   508 31c0:104b   509 31c0:1060   510 31c0:1075
   511 31c0:108a   512 31c0:109f   513 31c0:10b4   514 31c0:10c9
   515 31c0:10d4     0 31c0:10d9   518 31c0:10da   530 31c0:10e1
   531 31c0:1129     0 31c0:112d   534 31c0:112e   548 31c0:1135
   549 31c0:1187     0 31c0:118b   552 31c0:118c   555 31c0:1197
   556 31c0:11ab   572 31c0:11bd   574 31c0:121a     0 31c0:121f
   577 31c0:1220   583 31c0:1227   584 31c0:1250     0 31c0:1255
   587 31c0:1256   601 31c0:125d   602 31c0:12a2     0 31c0:12a7
   605 31c0:12a8   608 31c0:12b3   609 31c0:12c7   615 31c0:12f2
   609 31c0:1305   617 31c0:130e   618 31c0:131f     0 31c0:1325
   621 31c0:1326   624 31c0:1331   625 31c0:1345   631 31c0:136f
   625 31c0:1382   633 31c0:138b   634 31c0:139c     0 31c0:13a1
   637 31c0:13a2   650 31c0:13a9   651 31c0:13ea     0 31c0:13ef
   654 31c0:13f0   658 31c0:13fb   660 31c0:1400   662 31c0:1414
   663 31c0:142d   667 31c0:1433   669 31c0:144c   670 31c0:1455
     0 31c0:145b   673 31c0:145c   677 31c0:1467   678 31c0:146c
   680 31c0:1480   681 31c0:1496   684 31c0:149c   686 31c0:14b1
   687 31c0:14ba     0 31c0:14bf   690 31c0:14c0   694 31c0:14cb
   695 31c0:14d0   697 31c0:14e4   698 31c0:14fd   703 31c0:1503
   705 31c0:1520   706 31c0:1529     0 31c0:152f   709 31c0:1530
   713 31c0:153b   715 31c0:1540   717 31c0:155c   718 31c0:1575
   723 31c0:157b   725 31c0:15a5   726 31c0:15ae     0 31c0:15b3
   729 31c0:15b4   732 31c0:15bf   733 31c0:15d8   746 31c0:15e0
   747 31c0:1621     0 31c0:1627   750 31c0:1628   754 31c0:1633
   755 31c0:1638   756 31c0:164c   757 31c0:1658   758 31c0:165e
   759 31c0:166d   761 31c0:167f     0 31c0:1685   764 31c0:1686
   768 31c0:1691   769 31c0:1696   771 31c0:16aa   772 31c0:16c3
   773 31c0:16c9   775 31c0:16d8   776 31c0:16e1     0 31c0:16e7
   783 31c0:16e8   784 31c0:1708     0 31c0:1709   787 31c0:170a
   791 31c0:1715   792 31c0:1717   793 31c0:1720   794 31c0:1728
   796 31c0:172d   797 31c0:1749   805 31c0:1758   807 31c0:1786
     0 31c0:178b   810 31c0:178c   813 31c0:1797   814 31c0:17b3
   827 31c0:17c5   829 31c0:1824     0 31c0:1829   832 31c0:182a
   836 31c0:1835   837 31c0:183a   838 31c0:1856   839 31c0:1862
   846 31c0:1868   839 31c0:1893   848 31c0:1899     0 31c0:189f
   851 31c0:18a0   855 31c0:18ab   856 31c0:18b3   858 31c0:18c7
   859 31c0:18e9   862 31c0:18ef   863 31c0:18f9   865 31c0:1910
   866 31c0:1912   874 31c0:192b   877 31c0:1959   878 31c0:1962
     0 31c0:1967   881 31c0:1968   885 31c0:1973   886 31c0:1978
   888 31c0:198c   889 31c0:19a5   896 31c0:19ab   898 31c0:19e1
   899 31c0:19ea     0 31c0:19ef   902 31c0:19f0   905 31c0:19fb
   906 31c0:1a0f   915 31c0:1a21   917 31c0:1a5c     0 31c0:1a61
   920 31c0:1a62   923 31c0:1a6d   924 31c0:1a81   927 31c0:1a90
   928 31c0:1a99   932 31c0:1aa8   933 31c0:1ac2   934 31c0:1acc
   924 31c0:1ade   939 31c0:1ae3     0 31c0:1ae9   942 31c0:1aea
   946 31c0:1af5   947 31c0:1b07   948 31c0:1b19   949 31c0:1b2f
   950 31c0:1b39   947 31c0:1b41   953 31c0:1b5c     0 31c0:1b61
   956 31c0:1b62   960 31c0:1b6d   961 31c0:1b7f   964 31c0:1b8e
   966 31c0:1bb7   967 31c0:1bcc   968 31c0:1bcf   961 31c0:1bda
   970 31c0:1bfa     0 31c0:1bff

Line numbers for R:\MAX\lib\Lenginer.lib(XMSINFO.asm) segment XMSINFO_TEXT

    62 3380:0000    63 3380:0003    65 3380:0004    66 3380:0007
    67 3380:000a    68 3380:000d    70 3380:000f    71 3380:0012
    72 3380:0014    73 3380:0016    74 3380:0018    76 3380:001b
    77 3380:001e    78 3380:0020    79 3380:0024    81 3380:0028
    85 3380:002b    86 3380:002d    87 3380:0031    88 3380:0035
    89 3380:0039    93 3380:003d    94 3380:0040    96 3380:0042
    97 3380:0044    98 3380:0047    99 3380:004b   100 3380:004d
   101 3380:004f   102 3380:0052   103 3380:0054   106 3380:0057
   107 3380:0059   108 3380:005d   109 3380:0060   114 3380:0064
   115 3380:0066   116 3380:006a   117 3380:006d   119 3380:006f
   120 3380:0072   121 3380:0074   123 3380:0077   127 3380:007b
   128 3380:007d   129 3380:0081   130 3380:0083   132 3380:0085
   133 3380:0088   134 3380:008a   135 3380:008d   137 3380:008f
   138 3380:0093   140 3380:0097   141 3380:0099   142 3380:009c
   143 3380:00a0   144 3380:00a2   146 3380:00a4   147 3380:00a7
   148 3380:00a9   150 3380:00ac   151 3380:00ae   152 3380:00af
   153 3380:00b3   154 3380:00b4   155 3380:00b6   156 3380:00b8
   157 3380:00bb   158 3380:00bd   160 3380:00c0   161 3380:00c2
   162 3380:00c4   163 3380:00c5   165 3380:00c9   167 3380:00cb
   172 3380:00cf   173 3380:00d1   174 3380:00d4   175 3380:00d8
   176 3380:00db   177 3380:00dd   178 3380:00e1   180 3380:00e5
   181 3380:00e8   184 3380:00eb   185 3380:00ee   186 3380:00f1
   188 3380:00f4   191 3380:00f7   192 3380:00fa   193 3380:00fd
   196 3380:0100   197 3380:0101   218 3380:0105   219 3380:0108
   220 3380:010a   221 3380:010d   222 3380:0111   223 3380:0113
   224 3380:0115   226 3380:0118   227 3380:011a   248 3380:011e
   255 3380:0125   256 3380:0127   257 3380:012a   263 3380:012d
   264 3380:012f   265 3380:0132   266 3380:0136   267 3380:0139
   269 3380:013b   270 3380:013d   271 3380:013f   273 3380:0143
   274 3380:0145   275 3380:0148   276 3380:014c   278 3380:014f
   279 3380:0151   281 3380:0153   282 3380:0155   283 3380:0159
   284 3380:015b   286 3380:015d   287 3380:0160   288 3380:0163
   289 3380:0166   290 3380:016a   294 3380:016c   295 3380:016f
   297 3380:0171   299 3380:0173   300 3380:0175   301 3380:0178
   302 3380:017c   303 3380:017f   306 3380:0181   308 3380:0184
   329 3380:0189   330 3380:018c   331 3380:018e   332 3380:0191
   334 3380:0195   355 3380:0199   356 3380:019c   357 3380:019e
   358 3380:01a1   359 3380:01a5   360 3380:01a7   361 3380:01a9
   363 3380:01ac   364 3380:01ae   384 3380:01b2   385 3380:01b5
   386 3380:01b7   387 3380:01ba   389 3380:01be   410 3380:01c2
   412 3380:01c5   413 3380:01c7   415 3380:01cb   417 3380:01cd
   418 3380:01d0   419 3380:01d2   420 3380:01d4   421 3380:01d6
   423 3380:01d8   424 3380:01dc   425 3380:01de

Line numbers for R:\MAX\lib\Lenginer.lib(Flexroms.asm) segment FLEXROMS_TEXT

    77 339e:0002    88 339e:0008    90 339e:000d    91 339e:0010
    95 339e:0015    97 339e:0017   102 339e:001f   103 339e:0021
   105 339e:0025   106 339e:0029   108 339e:002d   109 339e:002f
   112 339e:0033   114 339e:003b   115 339e:003d   119 339e:0041
   120 339e:0047   122 339e:0049   123 339e:004c   126 339e:0054
   127 339e:0058   128 339e:005c   129 339e:0060   130 339e:0064
   131 339e:0067   132 339e:0068   134 339e:006b   136 339e:0070
   137 339e:0073   140 339e:0076   141 339e:0079   142 339e:007b
   143 339e:007f   144 339e:0082   145 339e:0086   146 339e:008a
   147 339e:008e   148 339e:0092   150 339e:0095   181 339e:009a
   183 339e:009f   184 339e:00a0   187 339e:00a1   188 339e:00a5
   189 339e:00a7   190 339e:00aa   191 339e:00ac   192 339e:00ae
   197 339e:00b0   200 339e:00b5   204 339e:00b6   205 339e:00bc
   207 339e:00be   208 339e:00c1   210 339e:00c9   212 339e:00ca
   213 339e:00cc   215 339e:00ce   220 339e:00d1   223 339e:00d3
   225 339e:00d6   230 339e:00dc   240 339e:00dc   242 339e:00e0
   243 339e:00e2   244 339e:00ea   247 339e:00ec   249 339e:00ef
   252 339e:00f2   253 339e:00f5   258 339e:00f8   259 339e:00fb
   261 339e:00fd   262 339e:00ff   263 339e:0103   265 339e:0105
   266 339e:0109   270 339e:010b   271 339e:010d   272 339e:0111
   273 339e:0114   274 339e:0119   278 339e:0121   279 339e:0127
   281 339e:0129   282 339e:012f   284 339e:0131   285 339e:0137
   287 339e:0139   288 339e:013e   290 339e:0140   291 339e:0142
   293 339e:0144   294 339e:0148   296 339e:014a   297 339e:014d
   299 339e:0150   301 339e:0151   303 339e:0155   306 339e:0156
   307 339e:0157

Line numbers for R:\MAX\lib\Lenginer.lib(BUSINFO.asm) segment CPUID_SEG

    45 f000:00e0

Line numbers for R:\MAX\lib\Lenginer.lib(BUSINFO.asm) segment BUSINFO_TEXT

    91 33b3:000a   107 33b3:000a   109 33b3:000b   110 33b3:000e
   120 33b3:0010   122 33b3:0012   123 33b3:0019   125 33b3:001b
   126 33b3:0022   128 33b3:0024   131 33b3:0025   134 33b3:0026
   140 33b3:0027   157 33b3:0027   158 33b3:002a   159 33b3:002b
   160 33b3:002d   161 33b3:002e   162 33b3:0031   163 33b3:0032
   164 33b3:0036   165 33b3:0037   166 33b3:003a   167 33b3:003b
   170 33b3:003e   176 33b3:003f   197 33b3:003f   199 33b3:0041
   202 33b3:0044   204 33b3:0046   205 33b3:0049   208 33b3:004b
   216 33b3:004e   217 33b3:0053   219 33b3:0055   220 33b3:005a
   222 33b3:005c   223 33b3:0062   225 33b3:0064   226 33b3:006a
   227 33b3:006c   229 33b3:006e   230 33b3:0073   231 33b3:0075
   233 33b3:0077   234 33b3:007d   242 33b3:007f   243 33b3:0082
   244 33b3:0083   245 33b3:0085   246 33b3:0086   247 33b3:0087
   248 33b3:008b   249 33b3:008c   250 33b3:008f   251 33b3:0090
   252 33b3:0093   254 33b3:0095   255 33b3:0098   258 33b3:009a
   259 33b3:009b   260 33b3:00a0   262 33b3:00a2   263 33b3:00a4
   267 33b3:00a6   268 33b3:00a8   269 33b3:00ab   271 33b3:00ad
   274 33b3:00af   276 33b3:00b1   280 33b3:00b2   293 33b3:00b2
   295 33b3:00b6   296 33b3:00b9   299 33b3:00bb   300 33b3:00bd
   302 33b3:00bf   303 33b3:00c3   305 33b3:00c5   306 33b3:00ca
   308 33b3:00cc   310 33b3:00cf   312 33b3:00d1   314 33b3:00d2
   320 33b3:00d4   322 33b3:00d6   323 33b3:00d8   324 33b3:00db
   326 33b3:00dd   327 33b3:00de   328 33b3:00e0   330 33b3:00e2
   332 33b3:00e4   333 33b3:00e7   337 33b3:00e9   338 33b3:00ed
   342 33b3:00ef   343 33b3:00f3   345 33b3:00f5   346 33b3:00f9
   348 33b3:00fb   349 33b3:0102   350 33b3:0109   352 33b3:0110
   353 33b3:0112   354 33b3:0114   355 33b3:0116   357 33b3:0118
   359 33b3:011c   361 33b3:011d   364 33b3:0121   370 33b3:0122
   384 33b3:0122   385 33b3:0125   386 33b3:0126   387 33b3:0128
   389 33b3:012a   393 33b3:012b   406 33b3:012e   408 33b3:0130
   409 33b3:0132   411 33b3:0133   412 33b3:0136   414 33b3:0138
   417 33b3:013c   418 33b3:0140   419 33b3:0143   421 33b3:0147
   423 33b3:014c   424 33b3:0152   426 33b3:0154   429 33b3:0156
   432 33b3:0159   435 33b3:015c   438 33b3:015e   442 33b3:0162
   458 33b3:0162   459 33b3:0164   461 33b3:0165   462 33b3:0168
   464 33b3:016a   466 33b3:016e

Line numbers for R:\MAX\lib\Lquilibr.lib(bcd_num.c) segment BCD_NUM_TEXT

    15 34c8:000a    20 34c8:0011    21 34c8:0047     0 34c8:004b

Line numbers for R:\MAX\lib\Lquilibr.lib(BIOSCRC.asm) segment BIOSCRC_TEXT

    94 34c8:004c   116 34c8:004c   117 34c8:004d   119 34c8:004f
   121 34c8:0054   123 34c8:0055   125 34c8:0058   127 34c8:005b
   129 34c8:005c   131 34c8:005f   134 34c8:0062   137 34c8:0065
   138 34c8:0068   140 34c8:006b   141 34c8:006c   143 34c8:006e
   145 34c8:0072   147 34c8:0073   149 34c8:0075   151 34c8:0077
   154 34c8:007c   156 34c8:007d   159 34c8:0080   181 34c8:0080
   182 34c8:0081   184 34c8:0083   186 34c8:0088   188 34c8:0089
   190 34c8:008c   192 34c8:008f   194 34c8:0090   196 34c8:0093
   199 34c8:0096   201 34c8:0099   203 34c8:009b   205 34c8:009d
   206 34c8:009f   207 34c8:00a1   209 34c8:00a3   210 34c8:00a5
   211 34c8:00a7   213 34c8:00ab   215 34c8:00ad   217 34c8:00b1
   219 34c8:00b2   221 34c8:00b4   223 34c8:00b6   226 34c8:00bb
   228 34c8:00bc   234 34c8:00bf   248 34c8:00bf   250 34c8:00c4
   251 34c8:00ca   253 34c8:00cc   254 34c8:00ce   255 34c8:00d3
   257 34c8:00d5   259 34c8:00d8   262 34c8:00db   264 34c8:00de
   265 34c8:00e1   268 34c8:00e3   269 34c8:00e5   271 34c8:00e8
   272 34c8:00eb   273 34c8:00ef   274 34c8:00f0   281 34c8:00f2
   282 34c8:00f8   284 34c8:00fa   285 34c8:00fc   286 34c8:00fe
   287 34c8:0100   288 34c8:0102   289 34c8:0104   290 34c8:0107
   292 34c8:0109   293 34c8:010f   295 34c8:0115   296 34c8:0117
   299 34c8:0119   301 34c8:011b   303 34c8:011f   305 34c8:0122
   307 34c8:0127   308 34c8:0129   309 34c8:012a   310 34c8:012d
   311 34c8:012e   312 34c8:0130   314 34c8:0131   315 34c8:0133
   316 34c8:0134   317 34c8:0135   319 34c8:0138   320 34c8:0139
   321 34c8:013a   322 34c8:013e   324 34c8:013f   325 34c8:0142
   326 34c8:0143   328 34c8:0146   329 34c8:0148   332 34c8:014b
   333 34c8:014d   334 34c8:014e   335 34c8:0151   336 34c8:0152
   337 34c8:0154   339 34c8:0155   340 34c8:0157   341 34c8:0158
   342 34c8:0159   344 34c8:015c   345 34c8:015d   346 34c8:015e
   347 34c8:0162   349 34c8:0163   350 34c8:0166   351 34c8:0167
   353 34c8:016a   356 34c8:016d   359 34c8:0170

Line numbers for R:\MAX\lib\Lquilibr.lib(C_TLOAD.asm) segment C_TLOAD_TEXT

    31 34df:0002    56 34df:0002    58 34df:0004    59 34df:0005
    71 34df:0006    72 34df:0008    73 34df:000a    74 34df:000c
    76 34df:000e    77 34df:0010    78 34df:0012    80 34df:0014
    81 34df:0016    83 34df:0018    84 34df:001a    85 34df:001c
    87 34df:001e    88 34df:0020    89 34df:0022    91 34df:0024
    92 34df:0026    94 34df:0028    95 34df:002a    96 34df:002c
    98 34df:002e   100 34df:002f   101 34df:0031   109 34df:0033
   110 34df:0035   115 34df:0038   116 34df:003b   118 34df:003d
   119 34df:0040   124 34df:0042   125 34df:0044   127 34df:0047
   129 34df:0049   130 34df:004c   135 34df:004e   136 34df:0050
   137 34df:0053   139 34df:0055   141 34df:0058   143 34df:005a
   145 34df:005c   147 34df:005e   148 34df:0061   152 34df:0063
   155 34df:0065   159 34df:0068   160 34df:006a   162 34df:006d
   164 34df:0070   165 34df:0073   167 34df:0075   168 34df:0078
   170 34df:007a   171 34df:007d   173 34df:007f   174 34df:0082
   176 34df:0084   177 34df:0087   179 34df:0089   181 34df:008a
   184 34df:008c   186 34df:008e   189 34df:0090   191 34df:0093
   194 34df:0095   196 34df:0098   198 34df:0099   200 34df:009b
   201 34df:009d   202 34df:009f   204 34df:00a2   210 34df:00a3
   218 34df:00a3   219 34df:00a4   221 34df:00a5   222 34df:00a7
   223 34df:00a9   224 34df:00ab   226 34df:00ad   228 34df:00af
   233 34df:00b1   235 34df:00b3   237 34df:00b4

Line numbers for R:\MAX\lib\Lquilibr.lib(CPU.asm) segment CPU_TEXT

    86 34ea:0006   100 34ea:0006   101 34ea:0007   102 34ea:0008
   103 34ea:000a   113 34ea:000c   114 34ea:000e   115 34ea:0016
   117 34ea:0018   119 34ea:001a   120 34ea:0022   122 34ea:0024
   124 34ea:0029   125 34ea:002b   126 34ea:002d   128 34ea:002e
   132 34ea:002f   134 34ea:0032   135 34ea:0033   139 34ea:0034
   141 34ea:0039   142 34ea:003b   143 34ea:003d   144 34ea:003f
   145 34ea:0042   146 34ea:0045   147 34ea:0048   148 34ea:004a
   150 34ea:004c   151 34ea:004e   152 34ea:0050   153 34ea:0052
   155 34ea:0054   183 34ea:0059   184 34ea:005a   185 34ea:005b
   186 34ea:005d   191 34ea:0062   192 34ea:0065   193 34ea:0068
   194 34ea:0069   195 34ea:006a   196 34ea:006b   197 34ea:006c
   198 34ea:006f   199 34ea:0071   201 34ea:0074   207 34ea:0077
   208 34ea:0079   210 34ea:007b   212 34ea:007f   213 34ea:0081
   214 34ea:0087   216 34ea:0089   217 34ea:008b   218 34ea:008d
   220 34ea:008f   221 34ea:0095   222 34ea:0097   224 34ea:009b
   230 34ea:009e   231 34ea:00a3   233 34ea:00a7   235 34ea:00af
   236 34ea:00b2   241 34ea:00b8   242 34ea:00bd   243 34ea:00c2
   245 34ea:00c7   246 34ea:00ce   248 34ea:00d0   249 34ea:00d7
   251 34ea:00d9   252 34ea:00e0   254 34ea:00e2   256 34ea:00e9
   263 34ea:00f1   264 34ea:00f8   265 34ea:00fd   267 34ea:0101
   268 34ea:0106   269 34ea:010b   271 34ea:0110   272 34ea:0116
   274 34ea:011a   276 34ea:011c   278 34ea:0124   280 34ea:0126
   282 34ea:0129   284 34ea:012b   290 34ea:012e   291 34ea:0131
   292 34ea:0133   293 34ea:0138   297 34ea:013a   298 34ea:013d
   302 34ea:0141   303 34ea:0146   309 34ea:0148   310 34ea:014b
   311 34ea:014e   312 34ea:0150   313 34ea:0152   316 34ea:0154
   317 34ea:0157   318 34ea:015a   319 34ea:015b   320 34ea:015c
   321 34ea:015d   324 34ea:015f   325 34ea:0162   326 34ea:0163
   327 34ea:0164   330 34ea:0166   334 34ea:0169   335 34ea:016a
   336 34ea:016c   337 34ea:016e   338 34ea:016f   339 34ea:0172
   340 34ea:0176   341 34ea:0179   342 34ea:017a   343 34ea:017c
   344 34ea:017d   345 34ea:017e   346 34ea:017f   347 34ea:0180
   348 34ea:0181   349 34ea:0182   350 34ea:0183   351 34ea:0184
   352 34ea:0186   356 34ea:0187   363 34ea:018b   365 34ea:0191
   366 34ea:0196   368 34ea:0198   369 34ea:019a   370 34ea:019e
   371 34ea:01a2   372 34ea:01a4   373 34ea:01a7   374 34ea:01a9
   375 34ea:01ab   376 34ea:01ad   377 34ea:01b0   378 34ea:01b3
   385 34ea:01b5   387 34ea:01b8   388 34ea:01bb   389 34ea:01bd
   392 34ea:01c0   396 34ea:01c3   397 34ea:01c7   398 34ea:01ca
   400 34ea:01cd   402 34ea:01d0   403 34ea:01d4   404 34ea:01d7
   406 34ea:01d9   408 34ea:01de   409 34ea:01e1   410 34ea:01e3
   411 34ea:01e8   413 34ea:01ee   414 34ea:01f1   415 34ea:01f3
   417 34ea:01f4   418 34ea:01f9   420 34ea:01fb   421 34ea:01fe
   422 34ea:0203   426 34ea:0205   429 34ea:0208   430 34ea:020d
   432 34ea:020f   434 34ea:0215   436 34ea:0218   438 34ea:021b
   439 34ea:021e   441 34ea:0220   442 34ea:0223   446 34ea:0225
   447 34ea:0227   448 34ea:022c   449 34ea:0231   450 34ea:0236
   451 34ea:0239   452 34ea:023c   453 34ea:0242   455 34ea:0244
   459 34ea:024a   460 34ea:0250   465 34ea:0256   466 34ea:025b
   468 34ea:025d   470 34ea:025f   471 34ea:0262   473 34ea:0264
   474 34ea:0269   476 34ea:026e   483 34ea:0270   484 34ea:0273
   485 34ea:0275   486 34ea:0277   487 34ea:0279   488 34ea:027b
   490 34ea:027d   491 34ea:0283   492 34ea:0285   493 34ea:0287
   494 34ea:0289   495 34ea:028b   496 34ea:028d   497 34ea:0290
   498 34ea:0293   499 34ea:0295   509 34ea:029b   510 34ea:02a0
   512 34ea:02a2   513 34ea:02a7   515 34ea:02a9   516 34ea:02af
   517 34ea:02b1   519 34ea:02b3   524 34ea:02b7   525 34ea:02ba
   526 34ea:02be   527 34ea:02c1   529 34ea:02c3   530 34ea:02c4
   532 34ea:02c5   542 34ea:02c9   547 34ea:02c9   549 34ea:02cd
   550 34ea:02d0   552 34ea:02d3   553 34ea:02d7   554 34ea:02da
   555 34ea:02dd   557 34ea:02e0   558 34ea:02e3   559 34ea:02e9
   560 34ea:02ed   562 34ea:02f0   564 34ea:02f4   565 34ea:02f6

Line numbers for R:\MAX\lib\Lquilibr.lib(DCACHE.asm) segment DCACHE_TEXT

    97 3519:0024   112 3519:0024   113 3519:0028   114 3519:0029
   115 3519:002d   116 3519:002e   117 3519:002f   118 3519:0030
   119 3519:0036   120 3519:0037   122 3519:0038   128 3519:0039
   145 3519:0039   147 3519:003a   148 3519:003b   149 3519:003c
   150 3519:003e   151 3519:0042   152 3519:0043   154 3519:0044
   155 3519:0045   156 3519:0049   158 3519:004a   160 3519:004b
   161 3519:004e   162 3519:0050   164 3519:0052   167 3519:0056
   173 3519:0057   176 3519:0057   177 3519:0058   178 3519:005d
   179 3519:0060   181 3519:0062   183 3519:0067   184 3519:0068
   189 3519:006d   192 3519:006d   193 3519:0072   198 3519:0077
   208 3519:0077   209 3519:007c   210 3519:0081   212 3519:0083
   215 3519:0088   216 3519:0089   218 3519:008e   219 3519:008f
   221 3519:0098   222 3519:009b   226 3519:009d   227 3519:00a0
   228 3519:00a4   231 3519:00a8   232 3519:00ac   233 3519:00b0
   234 3519:00b1   235 3519:00b4   237 3519:00b8   238 3519:00bc
   239 3519:00c0   242 3519:00c3   243 3519:00c5   244 3519:00c9
   245 3519:00cd   247 3519:00d0   250 3519:00d9   251 3519:00da
   253 3519:00e0   258 3519:00e1   266 3519:00e1   271 3519:00e2
   279 3519:00e2   280 3519:00e4   285 3519:00e5   311 3519:00e5
   314 3519:00ec   315 3519:00f0   316 3519:00f2   317 3519:00f4
   318 3519:00f6   319 3519:00fa   322 3519:00fc   324 3519:00fd
   325 3519:0101   326 3519:0105   327 3519:0107   330 3519:010b
   332 3519:010f   335 3519:0110   337 3519:0112   340 3519:0118
   361 3519:0119   375 3519:0119   376 3519:011c   377 3519:011f
   378 3519:0123   380 3519:0127   386 3519:0128   399 3519:0128
   400 3519:012b   401 3519:012f   402 3519:0133   404 3519:0136
   410 3519:0137   422 3519:0137   424 3519:0139   425 3519:013e
   427 3519:0140   430 3519:0145   431 3519:0148   432 3519:014c
   434 3519:0150   436 3519:0156   439 3519:0172   442 3519:0174
   448 3519:0175   460 3519:0175   462 3519:0176   463 3519:0179
   466 3519:017b   467 3519:0180   469 3519:0182   472 3519:018d
   473 3519:0190   476 3519:0192   477 3519:0194   478 3519:0198
   479 3519:019c   481 3519:019f   483 3519:01a4   486 3519:01a5
   492 3519:01a6   517 3519:01a6   518 3519:01a7   520 3519:01a9
   522 3519:01b0   524 3519:01b7   525 3519:01bb   526 3519:01bd
   528 3519:01c2   530 3519:01c4   531 3519:01c7   533 3519:01c9
   537 3519:01cc   539 3519:01d0   540 3519:01d7   541 3519:01dd
   542 3519:01e3   543 3519:01e9   545 3519:01ee   546 3519:01f1
   547 3519:01f3   548 3519:01f5   550 3519:01f7   551 3519:01f9
   553 3519:01fb   554 3519:01fd   556 3519:01ff   557 3519:0204
   558 3519:0207   562 3519:0209   563 3519:020e   564 3519:022a
   566 3519:0246   567 3519:0248   568 3519:024a   571 3519:024c
   572 3519:024f   573 3519:0252   574 3519:0254   577 3519:0256
   578 3519:0257   579 3519:025c   580 3519:0261   581 3519:0266
   582 3519:026b   584 3519:026c   585 3519:026f   586 3519:0271
   589 3519:0273   590 3519:0276   591 3519:0278   592 3519:027a
   593 3519:027d   594 3519:0281   596 3519:0286   598 3519:0289
   601 3519:028a   606 3519:028d   607 3519:028f   609 3519:0293
   612 3519:0294   614 3519:0299   617 3519:029d   619 3519:029e
   622 3519:02a3   623 3519:02a6   624 3519:02a8   625 3519:02aa
   628 3519:02ac   629 3519:02ad   630 3519:02af   631 3519:02b1
   633 3519:02b3   635 3519:02b5   637 3519:02b7   640 3519:02b8
   641 3519:02b9   645 3519:02be   646 3519:02c3   647 3519:02c6
   648 3519:02c8   650 3519:02cc   653 3519:02cd   656 3519:02d2
   657 3519:02d6   658 3519:02da   661 3519:02df   662 3519:02e1
   663 3519:02e5   665 3519:02ea   667 3519:02f1   668 3519:02f8
   670 3519:02fa   672 3519:02fe   673 3519:0304   675 3519:0306
   676 3519:0308   677 3519:030f   685 3519:0311   686 3519:0314
   688 3519:0316   689 3519:0317   690 3519:031b   692 3519:031d
   693 3519:031e   694 3519:0322   696 3519:0323   697 3519:0324
   700 3519:0326   701 3519:0328   702 3519:032b   706 3519:032d
   707 3519:032f   711 3519:0331   712 3519:0336   713 3519:033a
   715 3519:033b   716 3519:0341   719 3519:0343   720 3519:0349
   722 3519:034b   723 3519:0352   726 3519:0354   727 3519:0358
   728 3519:035f   731 3519:0361   732 3519:0364   734 3519:0366
   736 3519:0368   737 3519:036f   743 3519:0371   745 3519:0375
   746 3519:0378   748 3519:037a   750 3519:037c   751 3519:0383
   754 3519:0385   759 3519:038c   761 3519:0391   764 3519:0396
   765 3519:0398   768 3519:039a   769 3519:03a5   770 3519:03b0
   773 3519:03b5   774 3519:03b8   777 3519:03ba   778 3519:03be
   779 3519:03c1   781 3519:03c3   782 3519:03c7   784 3519:03cd
   785 3519:03d2   787 3519:03d4   789 3519:03d8   790 3519:03dc
   793 3519:03e2   794 3519:03e7   796 3519:03e9   797 3519:03ec
   802 3519:03ee   804 3519:03f2   807 3519:03f9   809 3519:03fa

Line numbers for R:\MAX\lib\Lquilibr.lib(EMSINFO.asm) segment EMSINFO_TEXT

    65 3558:000c    66 3558:000f    70 3558:0010    71 3558:0014
    72 3558:0017    73 3558:0019    74 3558:001b    77 3558:001e
    78 3558:0020    79 3558:0023    80 3558:0025    81 3558:0027
    83 3558:002a    84 3558:002e    85 3558:0030    87 3558:0033
    88 3558:0036    89 3558:0038    90 3558:003a    91 3558:003c
    93 3558:003f    94 3558:0041    98 3558:0043    99 3558:0045
   100 3558:0047   101 3558:0049   103 3558:004b   104 3558:004d
   105 3558:004f   106 3558:0051   108 3558:0053   109 3558:0056
   111 3558:0059   112 3558:005b   113 3558:005d   114 3558:005f
   116 3558:0061   119 3558:0063   121 3558:0067   122 3558:0069
   123 3558:006b   124 3558:006d   126 3558:006f   127 3558:0073
   129 3558:0077   130 3558:0079   131 3558:007b   132 3558:007d
   134 3558:007f   137 3558:0083   138 3558:0086   139 3558:008a
   141 3558:008e   142 3558:0092   144 3558:0094   145 3558:0097
   146 3558:0099   147 3558:009b   148 3558:009d   151 3558:00a1
   152 3558:00a4   153 3558:00a6   154 3558:00a8   155 3558:00aa
   158 3558:00ae   159 3558:00b1   160 3558:00b4   161 3558:00b6
   162 3558:00b8   164 3558:00ba   165 3558:00bd   168 3558:00c0
   169 3558:00c3   172 3558:00c6   173 3558:00c8   175 3558:00ca
   176 3558:00cd   179 3558:00d0   180 3558:00d1   201 3558:00d5
   203 3558:00d8   205 3558:00d9   206 3558:00dc   207 3558:00df
   208 3558:00e1   209 3558:00e3   210 3558:00e5   212 3558:00e8
   213 3558:00e9   234 3558:00ed   236 3558:00f0   238 3558:00f1
   239 3558:00f4   240 3558:00f7   241 3558:00f9   242 3558:00fb
   243 3558:00fd   245 3558:0100   246 3558:0102   247 3558:0103
   267 3558:0107   269 3558:010a   271 3558:010b   272 3558:010e
   273 3558:0111   274 3558:0113   275 3558:0115   276 3558:0117
   278 3558:011a   279 3558:011c   280 3558:011d   300 3558:0121
   302 3558:0124   303 3558:0127   304 3558:012a   305 3558:012c
   306 3558:012e   307 3558:0130   309 3558:0133   310 3558:0135
   329 3558:0139   331 3558:013c   332 3558:013f   333 3558:0142
   334 3558:0144   335 3558:0146   336 3558:0148   337 3558:014a
   339 3558:014c

Line numbers for R:\MAX\lib\Lquilibr.lib(GAMEPORT.asm) segment GAMEPORT_TEXT

    40 3558:0156    47 3558:0156    48 3558:0157    50 3558:015c
    51 3558:0162    53 3558:0164    55 3558:0169    61 3558:016a
    74 3558:016a    76 3558:016e    77 3558:0171    80 3558:0173
    83 3558:0178    84 3558:017d    86 3558:0182    87 3558:0183
    88 3558:018a    89 3558:018f    91 3558:0190    92 3558:0193
    93 3558:0195    94 3558:0196    95 3558:0198    96 3558:019a
    98 3558:019c   100 3558:01a3   101 3558:01a4   103 3558:01a6
   104 3558:01a8   105 3558:01aa   107 3558:01ac   108 3558:01b2
   112 3558:01b4   115 3558:01b9   116 3558:01ba   117 3558:01bf
   118 3558:01c4   120 3558:01c5   123 3558:01c9   129 3558:01ca
   139 3558:01ca   140 3558:01cc   141 3558:01ce   142 3558:01d1
   144 3558:01d3   145 3558:01d5   146 3558:01d7   147 3558:01da
   148 3558:01db   150 3558:01dd

Line numbers for R:\MAX\lib\Lquilibr.lib(launder.c) segment LAUNDER_TEXT

    15 3575:000e    18 3575:0015    19 3575:0020    21 3575:0030
    22 3575:0037     0 3575:003b

Line numbers for R:\MAX\lib\Lquilibr.lib(MBOOT.asm) segment NCODE

    92 4310:0000    95 4310:0003    96 4310:0004    97 4310:0007
    98 4310:000b    99 4310:000f   100 4310:0012   102 4310:0014
   103 4310:0016   104 4310:0018   105 4310:001a   107 4310:001c
   108 4310:001f   110 4310:0021   111 4310:0024   112 4310:0027
   113 4310:0029   114 4310:002c   117 4310:002e   118 4310:0030
   120 4310:0032   121 4310:0035   123 4310:0037   125 4310:0039
   127 4310:003c   142 4310:003d   144 4310:0043   145 4310:0047
   146 4310:004a   147 4310:004b   148 4310:004c   149 4310:004d
   152 4310:004e   154 4310:004f   155 4310:0050   156 4310:0051
   157 4310:0053   159 4310:0055   162 4310:005b   187 4310:005c
   190 4310:005d   193 4310:005f   194 4310:0060   195 4310:0065
   197 4310:0067   198 4310:0069   200 4310:006b   201 4310:006d
   203 4310:006f   204 4310:0072   207 4310:0074   208 4310:0079
   209 4310:007f   212 4310:0081   214 4310:0082   235 4310:0083
   239 4310:008b   240 4310:008e   241 4310:0090   242 4310:0091
   247 4310:0093   248 4310:0096   249 4310:0098   250 4310:009a
   251 4310:009c   252 4310:00a0   254 4310:00a2   255 4310:00a5
   256 4310:00a8   258 4310:00aa   261 4310:00ae   264 4310:00b0
   265 4310:00b4   266 4310:00b6   268 4310:00b8   269 4310:00ba
   271 4310:00bc   272 4310:00be   275 4310:00c0   276 4310:00c5
   282 4310:00c7   285 4310:00cb   286 4310:00cf   287 4310:00d2
   289 4310:00d4   290 4310:00d6   291 4310:00d9   293 4310:00db
   294 4310:00de   298 4310:00e0   299 4310:00e4   302 4310:00e6
   303 4310:00ea   304 4310:00ec   306 4310:00ee   307 4310:00ef
   310 4310:00f1   311 4310:00f4   314 4310:00f6   315 4310:00f9
   317 4310:00fc   318 4310:00fe   319 4310:0101   321 4310:0103
   322 4310:0104   325 4310:0106   326 4310:0108   327 4310:010b
   329 4310:010d   331 4310:010e   334 4310:0116   365 4310:0117
   366 4310:0118   368 4310:011a   370 4310:011c   371 4310:011f
   374 4310:0121   375 4310:0125   376 4310:0129   377 4310:012c
   379 4310:012e   380 4310:0134   382 4310:013a   383 4310:013d
   384 4310:0140   386 4310:0142   387 4310:0148   389 4310:014e
   390 4310:0152   392 4310:0155   395 4310:0157   397 4310:0158

Line numbers for R:\MAX\lib\Lquilibr.lib(mbparse.c) segment MBPARSE_TEXT

    53 3578:000c    56 3578:0013    57 3578:0026    59 3578:0036
     0 3578:0039    64 3578:003a    67 3578:0045    68 3578:0062
    70 3578:0072    71 3578:0077     0 3578:007d    79 3578:007e
    82 3578:0089    83 3578:00aa    88 3578:00db    90 3578:00dd
     0 3578:00e3    99 3578:00e4   107 3578:00ed   118 3578:00f5
   119 3578:010e   121 3578:0121   123 3578:0153   126 3578:0181
   129 3578:0187   130 3578:01a4   131 3578:01d1   133 3578:01e5
   137 3578:01e7   141 3578:01ed   142 3578:0210   147 3578:0228
   148 3578:0242   149 3578:024b   151 3578:025e   152 3578:0260
   153 3578:028b   157 3578:029a   158 3578:02ad   165 3578:02b2
   167 3578:02d2   169 3578:02ee   180 3578:02f3   182 3578:0318
   185 3578:0337   190 3578:0350   211 3578:035c   212 3578:0363
   213 3578:0377   214 3578:03a4   215 3578:03b9   216 3578:03ce
   221 3578:03e2   222 3578:03f0   227 3578:0407   229 3578:041a
   230 3578:042f   231 3578:0453   232 3578:0474   233 3578:048e
   234 3578:04a8   235 3578:04c2   236 3578:04e6   238 3578:04fb
   240 3578:04fd     0 3578:0503   248 3578:0504   253 3578:050c
   256 3578:056d   258 3578:0579   259 3578:05bf   260 3578:05d4
   261 3578:05e1   262 3578:05ea   263 3578:05f6   264 3578:0608
   265 3578:060c   273 3578:063c   274 3578:0666   276 3578:0676
   277 3578:06c0   278 3578:06f1   285 3578:0715   287 3578:0717
     0 3578:071d   318 3578:071e   321 3578:0726   322 3578:0739
   326 3578:0767   328 3578:076c     0 3578:0771   333 3578:0772
   336 3578:0776   337 3578:0780   341 3578:0792   343 3578:0796
     0 3578:079b   347 3578:079c   351 3578:07a4   352 3578:07bc
   351 3578:07d9   352 3578:07ef   355 3578:07f4   357 3578:07f6
     0 3578:07fb   361 3578:07fc   367 3578:0804   369 3578:081a
   370 3578:0824   371 3578:0837   373 3578:0846   374 3578:085b
   376 3578:086d   377 3578:089c   378 3578:08b0   380 3578:08bb
   381 3578:08c7   382 3578:08d1   383 3578:08d6   370 3578:08e1
   390 3578:08f8     0 3578:08ff   395 3578:0900   400 3578:0907
   401 3578:091a   403 3578:0927   407 3578:092f   408 3578:0934
   409 3578:0939   412 3578:0941   414 3578:0946     0 3578:094b
   419 3578:094c   424 3578:0954   426 3578:0964   427 3578:096e
   428 3578:097c   429 3578:098a   430 3578:0998   431 3578:099f
   432 3578:09a6   433 3578:09ad   437 3578:09bb   439 3578:09c0
     0 3578:09c7   444 3578:09c8   448 3578:09d0   449 3578:09d8
   450 3578:09ef   451 3578:09ff   456 3578:0a1e   458 3578:0a23
     0 3578:0a29   466 3578:0a2a   468 3578:0a31   492 3578:0a35
   471 3578:0a73   483 3578:0a7f   486 3578:0a96   489 3578:0ab6
   494 3578:0aba   496 3578:0ac1     0 3578:0ac7   501 3578:0ac8
   502 3578:0ace   503 3578:0ae0   504 3578:0af3   505 3578:0aff
   506 3578:0b12   507 3578:0b1e   510 3578:0b45   512 3578:0b4d
     0 3578:0b51   517 3578:0b52   525 3578:0b5a   535 3578:0b5f
   536 3578:0b70   542 3578:0b7c   546 3578:0b9d   551 3578:0ba5
   555 3578:0ba8   557 3578:0bc6   559 3578:0bcb   561 3578:0bec
   563 3578:0bfd   564 3578:0c15   566 3578:0c32   568 3578:0c52
   571 3578:0c68   572 3578:0c77   574 3578:0c89   575 3578:0c92
   576 3578:0ca5   577 3578:0ca7   579 3578:0cb5   580 3578:0cbd
   581 3578:0cc7   583 3578:0cca   584 3578:0ccf   594 3578:0cf0
   596 3578:0d01   598 3578:0d19   599 3578:0d21   604 3578:0d3c
   605 3578:0d4c   608 3578:0d56   585 3578:0d58   586 3578:0d6d
   587 3578:0d7b   588 3578:0d94   609 3578:0d96   614 3578:0da0
   616 3578:0dae   618 3578:0dcc   624 3578:0dd2   625 3578:0dda
   628 3578:0de8   630 3578:0deb     0 3578:0df1   635 3578:0df2
   636 3578:0dfa   639 3578:0dfd   641 3578:0e07   645 3578:0e14
   646 3578:0e1a   647 3578:0e2f   648 3578:0e3a   649 3578:0e41
   650 3578:0e43   646 3578:0e4a   653 3578:0e61   655 3578:0e63
   658 3578:0e6a   659 3578:0e7c   662 3578:0e9b   663 3578:0ea0
   664 3578:0eac   668 3578:0eb7   669 3578:0ec9   670 3578:0edb
   668 3578:0ee6   673 3578:0efc   674 3578:0f0e   675 3578:0f20
   676 3578:0f46   673 3578:0f52   683 3578:0f69   684 3578:0f7b
   685 3578:0f87   694 3578:0fa6   695 3578:0fd2   696 3578:0fe1
   697 3578:0ffe   698 3578:1012   699 3578:1023   700 3578:102c
   701 3578:103a   702 3578:103c   703 3578:1046   694 3578:1048
   706 3578:1069   709 3578:1070   710 3578:108b   711 3578:1096
   712 3578:1098   715 3578:109d   716 3578:10a3   719 3578:10a7
   721 3578:10a9     0 3578:10af   729 3578:10b0   730 3578:10b8
   732 3578:10bd   734 3578:10d2   737 3578:10eb   739 3578:1106
   742 3578:111e   743 3578:1133   755 3578:1145   758 3578:11bd
   762 3578:11c2   763 3578:11e9   766 3578:1208   768 3578:1228
   770 3578:123a   772 3578:123f   776 3578:125a   777 3578:127b
   779 3578:1285   781 3578:129a   782 3578:12a9   783 3578:12ba
   786 3578:12c1   787 3578:12d4   788 3578:12ea   776 3578:12f7
   793 3578:130e   794 3578:1321   801 3578:1333   803 3578:1344
   732 3578:134d   780 3578:1369   809 3578:136e   811 3578:1370
     0 3578:1377   825 3578:1378   826 3578:1380   830 3578:1385
   835 3578:139f   839 3578:13c6   844 3578:13db   846 3578:13f4
   847 3578:1402   853 3578:140b   855 3578:1442   856 3578:1449
   858 3578:1467   860 3578:1493   861 3578:149f   862 3578:14a6
   863 3578:14b0   868 3578:14bd   869 3578:14de   873 3578:14f4
   875 3578:14fa   876 3578:1506   877 3578:1526   878 3578:1546
   879 3578:1566   882 3578:156b   884 3578:156d   889 3578:1585
   890 3578:158f   891 3578:1594   893 3578:159e   894 3578:15b7
   896 3578:15c7   844 3578:15d5   900 3578:15f1   904 3578:15fe
   907 3578:1603   909 3578:1606     0 3578:160d   917 3578:160e
   925 3578:1616   927 3578:161b   930 3578:1628   934 3578:1644
   936 3578:164d   937 3578:1658   938 3578:1660   942 3578:1666
   945 3578:166e   946 3578:1683   955 3578:16a3   956 3578:16c0
   955 3578:16db   972 3578:16f2   974 3578:16fa   976 3578:170f
   977 3578:171c   980 3578:1725   987 3578:174e   999 3578:1758
  1014 3578:1774  1015 3578:1789  1020 3578:179d  1014 3578:1808
  1022 3578:1822  1026 3578:182e  1030 3578:1833  1031 3578:1839
  1036 3578:183d  1038 3578:1847  1039 3578:184d  1043 3578:1864
  1045 3578:1867     0 3578:186d  1051 3578:186e  1055 3578:1876
  1058 3578:18a1  1059 3578:18ab  1061 3578:18b5  1056 3578:18b9
  1063 3578:18bc     0 3578:18c1

Line numbers for R:\MAX\lib\Lquilibr.lib(MCA_POS.asm) segment MCA_POS_TEXT

    47 3704:0002    50 3704:0005    51 3704:0006    52 3704:0007
    53 3704:0008    57 3704:0009    58 3704:000e    59 3704:0011
    63 3704:0013    64 3704:0016    66 3704:0018    67 3704:001b
    72 3704:001d    73 3704:0020    74 3704:0024    75 3704:0027
    76 3704:0029    79 3704:002c    80 3704:002d    81 3704:002e
    86 3704:0032    98 3704:0032   100 3704:0037   101 3704:003a
   102 3704:003c   104 3704:003e   108 3704:0042   109 3704:0045
   110 3704:0047   112 3704:004b   114 3704:004c   115 3704:004f
   119 3704:0051   120 3704:0053   122 3704:0055   123 3704:0057
   126 3704:0059   131 3704:005b   132 3704:005d   133 3704:005f
   134 3704:0061   135 3704:0063   140 3704:0065   141 3704:0069
   142 3704:006a   144 3704:006c   145 3704:006e   147 3704:006f
   148 3704:0070   150 3704:0072   151 3704:0074   155 3704:0075
   157 3704:0076   159 3704:0079   160 3704:007a   163 3704:007b
   165 3704:007c   167 3704:007e   171 3704:007f   172 3704:0080
   173 3704:0081   175 3704:0083   176 3704:0085   177 3704:0086
   178 3704:0087   180 3704:0089   181 3704:008b   183 3704:008c
   184 3704:008f   188 3704:0091   189 3704:0093   191 3704:0095
   192 3704:0097   195 3704:0099   200 3704:009b   201 3704:009d
   204 3704:009f   206 3704:00a0   208 3704:00a2   211 3704:00a4
   213 3704:00a9

Line numbers for R:\MAX\lib\Lquilibr.lib(pos_test.c) segment POS_TEST_TEXT

    22 3704:00aa    24 3704:00b2    26 3704:00b5    27 3704:00c5
    28 3704:00c7    40 3704:00ce    30 3704:00e3    33 3704:00e8
    27 3704:00ed    42 3704:00f5    26 3704:00fa    43 3704:00fc
     0 3704:0101

Line numbers for R:\MAX\lib\Lquilibr.lib(qmaxpres.c) segment QMAXPRES_TEXT

    25 3714:0002    27 3714:000b    30 3714:0013    33 3714:0029
    34 3714:0048    35 3714:006c    36 3714:007c    38 3714:008d
    40 3714:0091    41 3714:0093     0 3714:0099    46 3714:009a
    48 3714:00a3    51 3714:00ab    54 3714:00c1    55 3714:00e0
    56 3714:00fe    57 3714:010e    59 3714:011f    61 3714:0123
    62 3714:0125     0 3714:012b    69 3714:012c    70 3714:0132
    71 3714:0137    74 3714:013c    75 3714:0151    79 3714:015b
    80 3714:015c    81 3714:015f    82 3714:0161    83 3714:0162
    84 3714:0164    86 3714:0167    87 3714:0169    88 3714:016c
    89 3714:016e    91 3714:0170    92 3714:0174    94 3714:0176
    95 3714:017c    96 3714:017f    97 3714:0180    98 3714:0181
    99 3714:0184   100 3714:0187   101 3714:0189   102 3714:018a
   104 3714:018f   105 3714:0192   106 3714:0195   107 3714:0197
   108 3714:019a   111 3714:019c   112 3714:019f     0 3714:01a3

Line numbers for R:\MAX\lib\Lquilibr.lib(RAMSCAN.asm) segment CPUID_SEG

    45 f000:00e0

Line numbers for R:\MAX\lib\Lquilibr.lib(RAMSCAN.asm) segment RAMSCAN_TEXT

    98 372e:0004   106 372e:0004   108 372e:000a   109 372e:0010
   110 372e:0015   111 372e:001a   113 372e:001f   118 372e:0020
   126 372e:0020   128 372e:0024   129 372e:0027   134 372e:0029
   135 372e:002e   137 372e:0030   138 372e:0032   140 372e:0034
   141 372e:003a   144 372e:003c   145 372e:0041   146 372e:0043
   149 372e:0045   150 372e:004b   151 372e:0051   154 372e:0057
   156 372e:005b   157 372e:005d   159 372e:005f   160 372e:0061
   162 372e:0063   163 372e:0065   165 372e:0067   166 372e:0069
   168 372e:006b   169 372e:006d   171 372e:006f   172 372e:0071
   174 372e:0073   177 372e:0075   179 372e:0078   182 372e:007c
   187 372e:007d   197 372e:007d   199 372e:007e   200 372e:0081
   202 372e:0083   203 372e:0085   204 372e:0087   206 372e:0089
   208 372e:008b   213 372e:008c   223 372e:008c   225 372e:008d
   226 372e:0091   227 372e:0093   229 372e:0095   230 372e:0097
   231 372e:0099   233 372e:009b   234 372e:009d   237 372e:009f
   239 372e:00a0   244 372e:00a1   254 372e:00a1   255 372e:00a2
   257 372e:00a3   261 372e:00a5   265 372e:00a8   266 372e:00ac
   267 372e:00af   269 372e:00b2   270 372e:00b4   272 372e:00b5
   277 372e:00b6   287 372e:00b6   288 372e:00b7   290 372e:00b8
   294 372e:00ba   295 372e:00be   296 372e:00c1   298 372e:00c4
   299 372e:00c6   301 372e:00c7   306 372e:00c8   319 372e:00c8
   321 372e:00cd   322 372e:00cf   324 372e:00d2   326 372e:00d3
   329 372e:00d5   331 372e:00d7   332 372e:00d8   333 372e:00db
   334 372e:00dd   336 372e:00de   338 372e:00e2   341 372e:00e4
   344 372e:00e9   349 372e:00ea   381 372e:00ea   383 372e:00f0
   384 372e:00f1   388 372e:00f4   389 372e:00f5   392 372e:00f6
   395 372e:00f8   397 372e:00fa   398 372e:00fe   399 372e:0101
   401 372e:0103   406 372e:0105   407 372e:0108   408 372e:010b
   409 372e:010e   410 372e:0110   414 372e:0112   418 372e:0117
   419 372e:011a   420 372e:011c   422 372e:011e   423 372e:0120
   424 372e:0122   426 372e:0124   428 372e:0125   433 372e:0127
   434 372e:012a   437 372e:012c   438 372e:0130   440 372e:0132
   441 372e:0135   443 372e:0137   445 372e:013a   451 372e:013b
   456 372e:013f   459 372e:0145   464 372e:0146   481 372e:0146
   483 372e:014a   485 372e:014d   489 372e:0152   490 372e:0154
   491 372e:015c   493 372e:0161   494 372e:0163   495 372e:0165
   496 372e:0169   498 372e:016e   499 372e:0172   501 372e:0177
   502 372e:0179   503 372e:017c   504 372e:0181   505 372e:0189
   507 372e:018e   509 372e:0192   510 372e:0195   512 372e:0198
   514 372e:019e   516 372e:01a1   519 372e:01a3   521 372e:01a7
   523 372e:01a9   526 372e:01ad   532 372e:01ae   557 372e:01ae
   558 372e:01af   560 372e:01b1   562 372e:01b6   563 372e:01b9
   564 372e:01bb   566 372e:01bd   567 372e:01c0   570 372e:01c2
   573 372e:01c5   575 372e:01c6   581 372e:01c7   599 372e:01c7
   601 372e:01ce   602 372e:01d1   604 372e:01d3   605 372e:01d5
   607 372e:01d7   608 372e:01d9   610 372e:01db   611 372e:01dd
   613 372e:01df   614 372e:01e1   617 372e:01e3   618 372e:01e6
   619 372e:01e9   623 372e:01eb   624 372e:01ef   626 372e:01f3
   628 372e:01f5   629 372e:01fc   632 372e:01fe   633 372e:0203
   635 372e:0205   636 372e:020a   638 372e:020c   639 372e:020e
   642 372e:0210   643 372e:0212   644 372e:0216   647 372e:0218
   650 372e:021e   655 372e:021f   683 372e:021f   684 372e:0220
   686 372e:0222   688 372e:0229   689 372e:022e   690 372e:0230
   693 372e:0232   694 372e:0234   697 372e:0237   705 372e:023c
   706 372e:023e   707 372e:0241   709 372e:0243   711 372e:0244
   712 372e:0245   718 372e:0246   719 372e:0249   720 372e:024c
   721 372e:024f   723 372e:0250   725 372e:0252   727 372e:0254
   729 372e:0257   730 372e:0259   731 372e:025b   732 372e:025d
   734 372e:025e   736 372e:0260   738 372e:0262   740 372e:0264
   742 372e:0265   745 372e:0267   747 372e:0269   750 372e:0270
   752 372e:0271

Line numbers for R:\MAX\lib\Lquilibr.lib(saveadf.c) segment SAVEADF_TEXT

    65 3755:0002    70 3755:0008    72 3755:000f    73 3755:0020
    77 3755:002a    78 3755:0033    82 3755:003c    87 3755:004c
    88 3755:0070    92 3755:0081    94 3755:0090    96 3755:009c
     0 3755:009f   107 3755:00a0   108 3755:00ae   109 3755:00cf
   111 3755:00d7   112 3755:00db     0 3755:00e1   149 3755:00e2
   165 3755:00eb   167 3755:00ff   168 3755:011d   169 3755:0122
   174 3755:012d   175 3755:0143   177 3755:0161   179 3755:0175
   180 3755:0190   183 3755:0196   185 3755:01a4   186 3755:01b8
   188 3755:01bf   189 3755:01f0   193 3755:021c   194 3755:0221
   200 3755:022f   202 3755:0248   206 3755:026c   207 3755:0284
   208 3755:0297   211 3755:0298   216 3755:02cb   217 3755:02d2
   221 3755:02e6   228 3755:0319   198 3755:0330   247 3755:033e
   249 3755:0348   250 3755:0358   253 3755:035e   255 3755:0366
   256 3755:0380   258 3755:039a   261 3755:03a1   264 3755:03a4
   266 3755:03b9   269 3755:03bc   252 3755:03ec   250 3755:03f9
   280 3755:0405   287 3755:0411   289 3755:0415   283 3755:041a
   284 3755:0424   290 3755:0426     0 3755:042b   314 3755:042c
   317 3755:0437   319 3755:044a   320 3755:0452   321 3755:045c
   325 3755:048e   326 3755:0491   330 3755:049d   332 3755:04aa
   334 3755:04b2     0 3755:04b7   343 3755:04b8   350 3755:04c1
   352 3755:04ce   354 3755:04e3   357 3755:0507   358 3755:0522
   361 3755:053f   366 3755:054b   371 3755:058c   372 3755:058e
     0 3755:0593   379 3755:0594   384 3755:059c   386 3755:05a9
   389 3755:05cd   390 3755:05e8   391 3755:0602   393 3755:060e
   395 3755:0610   397 3755:061a     0 3755:061f

Line numbers for R:\MAX\lib\Lquilibr.lib(SVGA_INF.asm) segment SVGA_INF_TEXT

   350 37b7:0000   362 37b7:0000   364 37b7:0006   365 37b7:0007
   366 37b7:0009   369 37b7:000f   371 37b7:0011   372 37b7:0013
   374 37b7:0015   375 37b7:0018   378 37b7:001a   381 37b7:001c
   384 37b7:0022   389 37b7:0023   402 37b7:0023   404 37b7:0024
   405 37b7:0027   407 37b7:0029   408 37b7:002d   409 37b7:0030
   411 37b7:0032   412 37b7:0036   413 37b7:0039   415 37b7:003b
   418 37b7:003d   420 37b7:003e   425 37b7:003f   436 37b7:003f
   438 37b7:0046   441 37b7:0049   442 37b7:004e   443 37b7:0050
   445 37b7:0052   449 37b7:0055   450 37b7:005a   451 37b7:005c
   453 37b7:005e   456 37b7:0061   466 37b7:0063   467 37b7:0067
   468 37b7:006b   469 37b7:006e   470 37b7:006f   471 37b7:0071
   474 37b7:0073   475 37b7:0077   476 37b7:007a   477 37b7:007e
   478 37b7:0084   479 37b7:0086   481 37b7:0088   483 37b7:008e
   487 37b7:0091   488 37b7:0093   489 37b7:0097   490 37b7:0099
   491 37b7:009c   492 37b7:009d   493 37b7:009e   495 37b7:00a0
   496 37b7:00a3   497 37b7:00a4   498 37b7:00a5   499 37b7:00a6
   500 37b7:00a9   502 37b7:00ab   503 37b7:00ad   504 37b7:00b0
   507 37b7:00b2   512 37b7:00b5   513 37b7:00b8   514 37b7:00bc
   515 37b7:00bf   516 37b7:00c0   517 37b7:00c2   519 37b7:00c4
   523 37b7:00c7   524 37b7:00ca   525 37b7:00ce   526 37b7:00d1
   527 37b7:00d2   528 37b7:00d4   530 37b7:00d6   534 37b7:00d9
   535 37b7:00dc   536 37b7:00e0   537 37b7:00e3   538 37b7:00e4
   539 37b7:00e6   541 37b7:00e8   542 37b7:00ee   546 37b7:00f1
   547 37b7:00f2   548 37b7:00f6   549 37b7:00fa   550 37b7:00fe
   551 37b7:0102   552 37b7:0105   553 37b7:0107   563 37b7:010a
   564 37b7:010c   565 37b7:010f   567 37b7:0113   568 37b7:0117
   572 37b7:0119   573 37b7:011c   574 37b7:011f   578 37b7:0123
   579 37b7:0125   580 37b7:0127   582 37b7:0129   583 37b7:012c
   584 37b7:012e   587 37b7:0131   596 37b7:0132   598 37b7:0136
   599 37b7:0138   600 37b7:0139   603 37b7:013a   604 37b7:013d
   606 37b7:013f   607 37b7:0141   609 37b7:0143   610 37b7:0146
   612 37b7:0149   613 37b7:014d   614 37b7:0150   615 37b7:0151
   616 37b7:0152   617 37b7:0154   618 37b7:0155   620 37b7:0157
   621 37b7:015a   624 37b7:015d   625 37b7:0160   627 37b7:0166
   629 37b7:0168   632 37b7:016c   633 37b7:0170   635 37b7:0174
   638 37b7:0176   641 37b7:017a   642 37b7:017e   644 37b7:0182
   645 37b7:0186   646 37b7:0189   647 37b7:018b   649 37b7:018d
   650 37b7:0193   651 37b7:0199   652 37b7:019b   653 37b7:019f
   654 37b7:01a2   655 37b7:01a4   657 37b7:01a6   658 37b7:01ac
   659 37b7:01b2   660 37b7:01b4   661 37b7:01b8   662 37b7:01bb
   663 37b7:01bd   665 37b7:01bf   666 37b7:01c5   668 37b7:01cb
   670 37b7:01cd   671 37b7:01d1   672 37b7:01d4   680 37b7:01d7
   681 37b7:01d9   682 37b7:01dd   683 37b7:01de   686 37b7:01df
   687 37b7:01e5   688 37b7:01eb   690 37b7:01f1   692 37b7:01f2
   696 37b7:01f6   697 37b7:01f8   698 37b7:01fb   700 37b7:01fd
   702 37b7:0202   703 37b7:0205   704 37b7:0206   705 37b7:0208
   707 37b7:0209   708 37b7:020b   710 37b7:020d   711 37b7:0210
   713 37b7:0213   715 37b7:0215   716 37b7:021a   718 37b7:021c
   720 37b7:0223   721 37b7:0227   722 37b7:022a   734 37b7:022c
   735 37b7:022e   736 37b7:0230   737 37b7:0233   738 37b7:0236
   740 37b7:0238   741 37b7:023b   742 37b7:023e   744 37b7:0240
   745 37b7:0243   747 37b7:0245   748 37b7:0248   749 37b7:024b
   751 37b7:024d   755 37b7:0250   756 37b7:0254   757 37b7:0256
   758 37b7:0259   759 37b7:025b   760 37b7:0260   762 37b7:0262
   764 37b7:0266   765 37b7:0269   769 37b7:026b   770 37b7:026f
   771 37b7:0272   772 37b7:0275   774 37b7:0279   777 37b7:027a
   779 37b7:027d   780 37b7:0281   783 37b7:0282   784 37b7:0285
   786 37b7:0287   796 37b7:028a   797 37b7:0294   798 37b7:029c
   799 37b7:029d   800 37b7:02a7   801 37b7:02a8   802 37b7:02aa
   803 37b7:02ac   807 37b7:02af   808 37b7:02b9   809 37b7:02bf
   810 37b7:02c1   811 37b7:02c8   812 37b7:02cd   813 37b7:02cf
   814 37b7:02d1   815 37b7:02d8   816 37b7:02db   817 37b7:02dd
   821 37b7:02e0   822 37b7:02e6   823 37b7:02ee   824 37b7:02f1
   825 37b7:02f3   826 37b7:02f5   828 37b7:02f8   829 37b7:0300
   830 37b7:0302   831 37b7:0309   832 37b7:0310   833 37b7:0312
   835 37b7:0317   836 37b7:0318   837 37b7:031a   839 37b7:031c
   840 37b7:0326   841 37b7:032d   842 37b7:032f   844 37b7:0331
   847 37b7:0337   848 37b7:0341   849 37b7:0348   851 37b7:034a
   854 37b7:0353   855 37b7:035a   856 37b7:0362   857 37b7:0364
   858 37b7:036b   859 37b7:0371   861 37b7:0373   862 37b7:0378
   864 37b7:037a   865 37b7:037b   866 37b7:037c   867 37b7:0383
   868 37b7:0384   871 37b7:0385   872 37b7:0387   873 37b7:038c
   874 37b7:0393   875 37b7:039d   876 37b7:03a3   877 37b7:03a5
   879 37b7:03a7   881 37b7:03a8   882 37b7:03af   884 37b7:03b6
   886 37b7:03c0   887 37b7:03c1   888 37b7:03c2   890 37b7:03c3
   891 37b7:03ca   893 37b7:03d4   894 37b7:03d5   896 37b7:03d7
   900 37b7:03da   901 37b7:03e2   902 37b7:03e5   903 37b7:03e7
   904 37b7:03e9   906 37b7:03ec   907 37b7:03f5   908 37b7:03fb
   909 37b7:03fd   910 37b7:0404   911 37b7:040d   912 37b7:0413
   913 37b7:0419   914 37b7:041b   916 37b7:041d   917 37b7:0426
   918 37b7:042c   919 37b7:042e   921 37b7:0430   922 37b7:0432
   924 37b7:0434   925 37b7:043a   926 37b7:043c   928 37b7:043e
   930 37b7:0444   931 37b7:044d   933 37b7:0455   936 37b7:0458
   937 37b7:0461   941 37b7:0469   942 37b7:046a   943 37b7:046e
   944 37b7:0472   945 37b7:0476   946 37b7:047a   947 37b7:047d
   949 37b7:047f   954 37b7:0482   957 37b7:0484   958 37b7:0487
   961 37b7:0489   966 37b7:048c   969 37b7:048e   970 37b7:0491
   973 37b7:0493   974 37b7:0496   977 37b7:0498   978 37b7:049b
   981 37b7:049d   982 37b7:04a0   985 37b7:04a2   986 37b7:04a5
   989 37b7:04a7   990 37b7:04aa   993 37b7:04ac   994 37b7:04af
   997 37b7:04b1   998 37b7:04b4  1001 37b7:04b6  1002 37b7:04b9
  1005 37b7:04bb  1008 37b7:04be  1009 37b7:04c2  1011 37b7:04c4
  1012 37b7:04ca  1016 37b7:04cd  1019 37b7:04d4  1025 37b7:04d5
  1039 37b7:04d5  1040 37b7:04d6  1041 37b7:04d8  1043 37b7:04db
  1045 37b7:04dd  1046 37b7:04e0  1048 37b7:04e2  1049 37b7:04e5
  1050 37b7:04e8  1052 37b7:04ea  1056 37b7:04ef  1057 37b7:04f1
  1058 37b7:04f3  1059 37b7:04f6  1060 37b7:04f8  1062 37b7:04fa
  1063 37b7:04fc  1065 37b7:04fe  1067 37b7:04ff  1073 37b7:0500
  1089 37b7:0500  1091 37b7:0504  1092 37b7:0506  1093 37b7:0509
  1094 37b7:050c  1095 37b7:0510  1097 37b7:0513  1100 37b7:0517
  1106 37b7:0518  1119 37b7:0518  1124 37b7:051f  1125 37b7:0522
  1126 37b7:0525  1128 37b7:0527  1131 37b7:052c  1132 37b7:052e
  1133 37b7:0530  1136 37b7:0534  1137 37b7:0537  1142 37b7:053a
  1143 37b7:0540  1144 37b7:0542  1145 37b7:0545  1147 37b7:0547
  1148 37b7:0549  1149 37b7:054c  1151 37b7:054e  1152 37b7:0550
  1153 37b7:0553  1155 37b7:0555  1156 37b7:0557  1157 37b7:055a
  1160 37b7:055c  1161 37b7:0562  1162 37b7:0564  1163 37b7:0567
  1165 37b7:0569  1167 37b7:056f  1168 37b7:0572  1171 37b7:0575
  1172 37b7:057f  1173 37b7:0587  1174 37b7:058c  1175 37b7:058f
  1176 37b7:0591  1178 37b7:0593  1180 37b7:0596  1181 37b7:0598
  1184 37b7:059b  1185 37b7:05a5  1186 37b7:05ad  1187 37b7:05b7
  1188 37b7:05bd  1189 37b7:05bf  1191 37b7:05c1  1192 37b7:05c4
  1195 37b7:05c7  1196 37b7:05c9  1198 37b7:05cb  1199 37b7:05ce
  1202 37b7:05d1  1203 37b7:05d3  1206 37b7:05d5  1209 37b7:05d8
  1210 37b7:05da  1212 37b7:05dc  1213 37b7:05df  1216 37b7:05e2
  1217 37b7:05e4  1219 37b7:05e6  1220 37b7:05e8  1222 37b7:05ea
  1223 37b7:05ed  1226 37b7:05f0  1230 37b7:05f3  1233 37b7:05f6
  1234 37b7:05f9  1237 37b7:05fc  1238 37b7:05ff  1239 37b7:0601
  1240 37b7:0603  1242 37b7:0605  1245 37b7:0608  1246 37b7:060a
  1247 37b7:060d  1248 37b7:0610  1249 37b7:0612  1250 37b7:0614
  1251 37b7:0616  1253 37b7:0618  1254 37b7:061a  1256 37b7:061c
  1257 37b7:061e  1259 37b7:0620  1260 37b7:0623  1261 37b7:0627
  1264 37b7:0629  1265 37b7:062c  1266 37b7:0630  1269 37b7:0632
  1270 37b7:0635  1271 37b7:0639  1274 37b7:063b  1275 37b7:063e
  1277 37b7:0642  1280 37b7:0645  1281 37b7:0648  1282 37b7:064a
  1284 37b7:064c  1285 37b7:064e  1287 37b7:0650  1288 37b7:0653
  1291 37b7:0656  1293 37b7:0659  1296 37b7:065c  1297 37b7:0666
  1298 37b7:066e  1299 37b7:066f  1300 37b7:0671  1302 37b7:0673
  1303 37b7:0676  1306 37b7:0679  1307 37b7:067c  1310 37b7:067f
  1315 37b7:0682  1318 37b7:0689  1324 37b7:068a  1338 37b7:068a
  1339 37b7:068b  1340 37b7:068d  1342 37b7:0690  1344 37b7:0692
  1345 37b7:0695  1347 37b7:0697  1348 37b7:069a  1349 37b7:069d
  1351 37b7:069f  1354 37b7:06a4  1355 37b7:06a6  1357 37b7:06a8
  1358 37b7:06ad  1360 37b7:06af  1361 37b7:06b4  1364 37b7:06b6
  1365 37b7:06ba  1366 37b7:06bd  1369 37b7:06bf  1370 37b7:06c0
  1371 37b7:06c1  1372 37b7:06c4  1373 37b7:06c6  1374 37b7:06c8
  1375 37b7:06cb  1376 37b7:06cd  1377 37b7:06d0  1378 37b7:06d3
  1379 37b7:06d4  1380 37b7:06d6  1382 37b7:06d8  1383 37b7:06da
  1384 37b7:06dc  1385 37b7:06de  1388 37b7:06e0  1392 37b7:06e3
  1394 37b7:06e5  1396 37b7:06e7  1398 37b7:06e8  1404 37b7:06e9
  1418 37b7:06e9  1423 37b7:06ec  1424 37b7:06ef  1425 37b7:06f2
  1427 37b7:06f4  1431 37b7:06f9  1432 37b7:06fb  1433 37b7:06fd
  1434 37b7:0700  1435 37b7:0702  1436 37b7:0706  1438 37b7:0708
  1439 37b7:070b  1440 37b7:070d  1443 37b7:070f  1447 37b7:0712
  1449 37b7:0715  1451 37b7:0718  1458 37b7:0719  1467 37b7:0719
  1469 37b7:0721  1470 37b7:0726  1473 37b7:072b  1474 37b7:0730
  1475 37b7:0732  1477 37b7:0737  1478 37b7:073a  1481 37b7:073c
  1482 37b7:0740  1488 37b7:0743  1489 37b7:0749  1490 37b7:074c
  1494 37b7:0750  1495 37b7:0756  1496 37b7:075a  1499 37b7:075e
  1502 37b7:0763  1503 37b7:0768  1506 37b7:076a  1507 37b7:076d
  1508 37b7:0771  1510 37b7:0773  1514 37b7:0776  1523 37b7:0778
  1524 37b7:077b  1525 37b7:077d  1526 37b7:077f  1528 37b7:0781
  1529 37b7:0783  1531 37b7:0785  1532 37b7:0787  1534 37b7:0789
  1538 37b7:078b  1539 37b7:078e  1540 37b7:0792  1541 37b7:0795
  1542 37b7:0796  1543 37b7:079a  1546 37b7:079b  1547 37b7:079d
  1549 37b7:079f  1550 37b7:07a2  1552 37b7:07a4  1553 37b7:07a7
  1554 37b7:07ab  1555 37b7:07ae  1556 37b7:07af  1557 37b7:07b3
  1560 37b7:07b4  1564 37b7:07b9  1566 37b7:07ba  1567 37b7:07bd
  1569 37b7:07bf  1570 37b7:07c1  1571 37b7:07c5  1572 37b7:07c8
  1574 37b7:07ca  1578 37b7:07cb  1581 37b7:07d3  1586 37b7:07d4
  1595 37b7:07d4  1597 37b7:07dc  1598 37b7:07e1  1601 37b7:07e6
  1602 37b7:07eb  1603 37b7:07ed  1606 37b7:07f2  1607 37b7:07f5
  1608 37b7:07f8  1610 37b7:07fd  1613 37b7:07ff  1614 37b7:0804
  1616 37b7:0806  1617 37b7:080b  1619 37b7:080d  1620 37b7:0812
  1622 37b7:0814  1623 37b7:0819  1626 37b7:081b  1627 37b7:081e
  1628 37b7:0822  1629 37b7:0825  1636 37b7:0829  1637 37b7:082c
  1638 37b7:0832  1639 37b7:0835  1640 37b7:083b  1641 37b7:083f
  1642 37b7:0845  1643 37b7:0849  1644 37b7:084d  1647 37b7:0853
  1649 37b7:0854  1652 37b7:0858  1653 37b7:085a  1654 37b7:085d
  1657 37b7:085f  1658 37b7:0863  1659 37b7:0866  1661 37b7:0868
  1664 37b7:0869  1665 37b7:086c  1666 37b7:086e  1668 37b7:0870
  1669 37b7:0872  1671 37b7:0874  1672 37b7:0876  1678 37b7:0878
  1679 37b7:087b  1680 37b7:087d  1683 37b7:0881  1686 37b7:0885
  1688 37b7:0889  1691 37b7:088f  1694 37b7:0897  1735 37b7:0898
  1747 37b7:0898  1749 37b7:089e  1750 37b7:08a1  1751 37b7:08ab
  1752 37b7:08b1  1753 37b7:08b3  1755 37b7:08b5  1757 37b7:08b8
  1758 37b7:08c2  1759 37b7:08ca  1760 37b7:08d4  1762 37b7:08d8
  1763 37b7:08de  1764 37b7:08e0  1765 37b7:08e2  1766 37b7:08e5
  1768 37b7:08e7  1769 37b7:08e9  1771 37b7:08eb  1772 37b7:08ed
  1774 37b7:08ef  1775 37b7:08f5  1777 37b7:08f7  1778 37b7:08fa
  1779 37b7:08fe  1781 37b7:08ff  1782 37b7:0905  1784 37b7:0906
  1785 37b7:0908  1786 37b7:090a  1788 37b7:090d  1789 37b7:090f
  1790 37b7:0912  1792 37b7:0914  1794 37b7:0916  1796 37b7:0918
  1798 37b7:091e  1804 37b7:091f  1816 37b7:091f  1818 37b7:0925
  1819 37b7:0928  1820 37b7:092c  1821 37b7:092e  1823 37b7:0930
  1824 37b7:0933  1827 37b7:0935  1828 37b7:0937  1830 37b7:0939
  1831 37b7:093c  1834 37b7:093e  1835 37b7:0941  1837 37b7:0943
  1838 37b7:0946  1841 37b7:0948  1844 37b7:094b  1846 37b7:0951
  1852 37b7:0952  1864 37b7:0952  1865 37b7:0954  1871 37b7:0957
  1883 37b7:0957  1885 37b7:095e  1886 37b7:0968  1887 37b7:096e
  1888 37b7:0970  1889 37b7:0977  1890 37b7:0981  1891 37b7:0987
  1892 37b7:0989  1893 37b7:0993  1894 37b7:099b  1895 37b7:099d
  1896 37b7:099f  1897 37b7:09a1  1898 37b7:09a4  1899 37b7:09a6
  1901 37b7:09a8  1903 37b7:09aa  1904 37b7:09ad  1907 37b7:09af
  1909 37b7:09b2  1911 37b7:09b4  1913 37b7:09bb  1919 37b7:09bc
  1931 37b7:09bc  1938 37b7:09be  1951 37b7:09be  1953 37b7:09c5
  1955 37b7:09c6  1957 37b7:09cc  1959 37b7:09ce  1960 37b7:09cf
  1961 37b7:09d0  1963 37b7:09d1  1965 37b7:09d7  1967 37b7:09dd
  1968 37b7:09de  1970 37b7:09e0  1971 37b7:09e1  1973 37b7:09e2
  1975 37b7:09e8  1976 37b7:09eb  1977 37b7:09ec  1979 37b7:09ee
  1982 37b7:09f0  1985 37b7:09f7  1991 37b7:09f8  2003 37b7:09f8
  2005 37b7:09fe  2006 37b7:0a01  2007 37b7:0a05  2008 37b7:0a08
  2010 37b7:0a0a  2012 37b7:0a10  2018 37b7:0a11  2030 37b7:0a11
  2031 37b7:0a13  2037 37b7:0a15  2046 37b7:0a15  2047 37b7:0a18
  2053 37b7:0a19  2080 37b7:0a19  2081 37b7:0a1a  2083 37b7:0a1c
  2085 37b7:0a20  2088 37b7:0a23  2089 37b7:0a26  2090 37b7:0a29
  2091 37b7:0a2c  2092 37b7:0a2d  2095 37b7:0a2f  2097 37b7:0a31
  2098 37b7:0a33  2100 37b7:0a35  2101 37b7:0a37  2102 37b7:0a3a
  2103 37b7:0a3b  2104 37b7:0a3e  2105 37b7:0a3f  2106 37b7:0a41
  2107 37b7:0a43  2109 37b7:0a45  2111 37b7:0a46  2113 37b7:0a47
  2116 37b7:0a49  2118 37b7:0a4a  2121 37b7:0a4e  2123 37b7:0a4f

Line numbers for R:\MAX\lib\Lquilibr.lib(VENDINFO.asm) segment VENDINFO_TEXT

    83 385c:0002    97 385c:0002    98 385c:0003    99 385c:0004
   100 385c:0006   102 385c:0009   104 385c:000b   105 385c:000e
   106 385c:0011   109 385c:0013   112 385c:0019   118 385c:001a
   132 385c:001a   134 385c:001d   135 385c:0023   137 385c:0025
   138 385c:0028   145 385c:002a   146 385c:002d   148 385c:002f
   149 385c:0032   150 385c:0033   151 385c:0035   153 385c:0037
   155 385c:0039   158 385c:003b   159 385c:003d   160 385c:003e
   162 385c:0040   164 385c:0042   165 385c:0045   167 385c:0047
   168 385c:004a   170 385c:004c   171 385c:004e   172 385c:0053
   174 385c:0055   175 385c:0056   178 385c:0058   179 385c:005a
   182 385c:005b   185 385c:005e   191 385c:005f   211 385c:005f
   213 385c:0063   214 385c:0066   217 385c:0068   218 385c:006f
   220 385c:0071   221 385c:0073   223 385c:0075   224 385c:0076
   225 385c:0078   227 385c:007a   229 385c:007c   230 385c:007e
   231 385c:0080   234 385c:0082   235 385c:0084   238 385c:0086
   241 385c:0089   244 385c:008d   250 385c:008e   264 385c:008e
   266 385c:008f   267 385c:0092   270 385c:0094   271 385c:009a
   274 385c:009c   275 385c:00a2   277 385c:00a4   278 385c:00a6
   279 385c:00a7   281 385c:00a9   283 385c:00ab   284 385c:00ae
   286 385c:00b0   287 385c:00b3   289 385c:00b5   290 385c:00b9
   291 385c:00bb   293 385c:00bd   294 385c:00bf   296 385c:00c1
   297 385c:00c3   300 385c:00c5   301 385c:00ca   302 385c:00cc
   305 385c:00ce   309 385c:00d3   312 385c:00d4

Line numbers for R:\MAX\lib\Lquilibr.lib(copyfile.c) segment COPYFILE_TEXT

    27 3869:0006    33 3869:000e    36 3869:0016    38 3869:002e
    39 3869:0038    42 3869:0040    43 3869:0048    46 3869:005b
    48 3869:0078    52 3869:007e    55 3869:0081    56 3869:0093
    58 3869:00a0    60 3869:00a7    61 3869:00b4    64 3869:00b9
    65 3869:00bf    66 3869:00dd    71 3869:00e5    76 3869:0100
    78 3869:0108   103 3869:0112   104 3869:0121   105 3869:0130
   106 3869:0149    68 3869:014c    69 3869:0156    73 3869:0158
    82 3869:015d    83 3869:0169    87 3869:0172    88 3869:0178
    90 3869:017d    91 3869:019b    92 3869:01af    93 3869:01b5
    94 3869:01ca    97 3869:01de    98 3869:01ef   100 3869:01f8
   108 3869:01fb     0 3869:0201   112 3869:0202   113 3869:0205
   114 3869:0218     0 3869:021b

Line numbers for R:\MAX\lib\Lquilibr.lib(stacker.c) segment STACKER_TEXT

    88 388a:000c    92 388a:0012    95 388a:001c    96 388a:001e
    97 388a:0021    98 388a:0024    99 388a:0026   100 388a:0029
   101 388a:002d   102 388a:002f   104 388a:0031   105 388a:0034
   108 388a:0037   111 388a:003a   115 388a:003d   117 388a:0046
   119 388a:0049     0 388a:004d   127 388a:004e   133 388a:0051
   134 388a:0057   135 388a:005c   136 388a:0061   138 388a:0067
   141 388a:007a   142 388a:0080   143 388a:0085   145 388a:008a
   147 388a:0090   148 388a:00a3   152 388a:00a8   154 388a:00aa
     0 388a:00ab   159 388a:00ac   161 388a:00af   162 388a:00bc
   163 388a:00c2   164 388a:00c7   166 388a:00cc   167 388a:00df
   168 388a:00e6   174 388a:00ec   176 388a:00ef     0 388a:00f3
   188 388a:00f4   191 388a:00fa   192 388a:010c   195 388a:0117
   197 388a:0127   201 388a:0132   202 388a:0134   204 388a:0137
   205 388a:013a   207 388a:013c   209 388a:013f   210 388a:0142
   211 388a:0143   212 388a:0145   215 388a:0147   220 388a:0157
   222 388a:0159     0 388a:015d   233 388a:015e   235 388a:0161
   238 388a:0167   242 388a:0175   247 388a:017d   250 388a:0193
   248 388a:0198   254 388a:019e   255 388a:01ab   260 388a:01b1
   261 388a:01be   268 388a:01c4   269 388a:01e2   272 388a:01e8
   275 388a:01f3     0 388a:01f5   382 388a:01f6   386 388a:01fc
   389 388a:0208   390 388a:0227   393 388a:0246   394 388a:0252
   400 388a:026f   401 388a:028b   402 388a:0295   403 388a:029a
   406 388a:02a6   418 388a:02c0   421 388a:02fe   424 388a:0304
   425 388a:0306   427 388a:030c   429 388a:033d   434 388a:035a
   440 388a:0361   443 388a:0395   444 388a:03a3   447 388a:03a9
     0 388a:03ad

Line numbers for R:\MAX\lib\Lquilibr.lib(truename.c) segment TRUENAME_TEXT

    21 38c4:000e    24 38c4:0013    25 38c4:0014    26 38c4:0015
    27 38c4:0016    29 38c4:0017    30 38c4:001a    34 38c4:001d
    35 38c4:001f    37 38c4:0021    38 38c4:0022    39 38c4:0023
    40 38c4:0024    42 38c4:0025    45 38c4:0027    48 38c4:002c
    50 38c4:0032     0 38c4:0037    59 38c4:0038    62 38c4:0043
    63 38c4:0058    66 38c4:006a     0 38c4:006f    73 38c4:0070
    77 38c4:0077    78 38c4:008b    80 38c4:009f    81 38c4:00ac
    83 38c4:00b9    85 38c4:00ca     0 38c4:00cd    92 38c4:00ce
    97 38c4:00da    98 38c4:00f1   100 38c4:0108   101 38c4:012e
   104 38c4:013b     0 38c4:0141

Line numbers for R:\MAX\lib\Lquilibr.lib(VCPI_CRC.asm) segment VCPI_CRC_TEXT

   219 38d8:0002   230 38d8:0082   256 38d8:0083   263 38d8:0085
   264 38d8:008b   266 38d8:008d   267 38d8:008f   268 38d8:0091
   269 38d8:0093   270 38d8:0095   271 38d8:0097   272 38d8:009a
   274 38d8:009c   275 38d8:009e   278 38d8:00a0   280 38d8:00a2
   281 38d8:00a6   283 38d8:00a9   285 38d8:00af   286 38d8:00b2
   287 38d8:00b6   289 38d8:00b8   292 38d8:00bb   294 38d8:00be
   295 38d8:00c4   296 38d8:00c6   297 38d8:00c8   302 38d8:00cc
   303 38d8:00ce   304 38d8:00d0   306 38d8:00d2   307 38d8:00d7
   308 38d8:00de   310 38d8:00e4   312 38d8:00ea   313 38d8:00ef
   315 38d8:00f1   316 38d8:00f7   318 38d8:0101   319 38d8:0104
   320 38d8:0108   322 38d8:010e   323 38d8:010f   328 38d8:0110
   330 38d8:0116   331 38d8:011a   333 38d8:011e   334 38d8:0121
   385 38d8:0124   389 38d8:0127   391 38d8:012b   393 38d8:012f
   394 38d8:0135   396 38d8:0139   399 38d8:013c   401 38d8:0140
   403 38d8:0157   405 38d8:015a   407 38d8:015e   408 38d8:0163
   409 38d8:0169   416 38d8:016d   417 38d8:0173   418 38d8:0177
   419 38d8:017a   420 38d8:0183   421 38d8:0189   422 38d8:018b
   423 38d8:018e   426 38d8:0197   428 38d8:019b   429 38d8:019d
   431 38d8:01a2   433 38d8:01a4   435 38d8:01a7   439 38d8:01ab
   440 38d8:01b1   441 38d8:01b5   442 38d8:01b9   444 38d8:01bd
   445 38d8:01be   450 38d8:01bf   454 38d8:01c2   455 38d8:01c7
   456 38d8:01cc   458 38d8:01d1   475 38d8:01d7   476 38d8:01d9
   477 38d8:01db   479 38d8:01dd   481 38d8:01de   489 38d8:01f5
   490 38d8:01f7   493 38d8:01f8   496 38d8:01fe   497 38d8:0200
   500 38d8:0201   501 38d8:0203   504 38d8:0205   505 38d8:0208
   516 38d8:020a   518 38d8:020b   519 38d8:0210   520 38d8:0215
   521 38d8:0219   522 38d8:021e   524 38d8:0224   526 38d8:022a
   527 38d8:022f   529 38d8:0231   531 38d8:023a   532 38d8:023d
   534 38d8:0240   535 38d8:0242   536 38d8:0244   537 38d8:0249
   538 38d8:024d   540 38d8:0252   541 38d8:0255   542 38d8:0258
   544 38d8:025a   545 38d8:0260   547 38d8:0265   548 38d8:0267
   549 38d8:026a   551 38d8:026c   552 38d8:026e   555 38d8:0271
   556 38d8:0273   557 38d8:0278   558 38d8:027c   560 38d8:0281
   562 38d8:0284   564 38d8:0286   565 38d8:0288   566 38d8:028a
   568 38d8:028c   569 38d8:028e   570 38d8:0290   572 38d8:0295
   574 38d8:0297   575 38d8:029d   578 38d8:02a2   580 38d8:02a4
   582 38d8:02a6   583 38d8:02a8   584 38d8:02aa   586 38d8:02ac
   587 38d8:02ae   588 38d8:02b0   590 38d8:02b5   597 38d8:02b7
   601 38d8:02bb   602 38d8:02bd   609 38d8:02c0   610 38d8:02c3
   611 38d8:02c5   612 38d8:02c7   613 38d8:02cb   614 38d8:02cd
   615 38d8:02d1   616 38d8:02d3   617 38d8:02d7   618 38d8:02dd
   619 38d8:02df   620 38d8:02e1   621 38d8:02e5   622 38d8:02ea
   624 38d8:02ec   625 38d8:02ee   628 38d8:02ef   629 38d8:02f1
   630 38d8:02f3   636 38d8:02f9   637 38d8:02fa   639 38d8:02fb
   642 38d8:02fd   644 38d8:02fe   645 38d8:02ff   646 38d8:0304
   648 38d8:0306   650 38d8:030a   652 38d8:030e   653 38d8:030f
   655 38d8:0311   657 38d8:0314   670 38d8:0315   671 38d8:0317
   672 38d8:031a   673 38d8:031e   674 38d8:0320   687 38d8:0321
   688 38d8:0323   689 38d8:0327   690 38d8:032b   691 38d8:032f
   692 38d8:0332   704 38d8:0333   708 38d8:0337   709 38d8:033c
   710 38d8:0341   711 38d8:0344   712 38d8:0346   716 38d8:0349
   717 38d8:034e   718 38d8:0353   719 38d8:0356   720 38d8:0358
   724 38d8:035b   725 38d8:0360   726 38d8:0365   727 38d8:0368
   728 38d8:036a   732 38d8:036d   733 38d8:0372   734 38d8:0377
   735 38d8:037a   736 38d8:037c   740 38d8:0380   741 38d8:0383
   742 38d8:0385   743 38d8:0388   744 38d8:038a   748 38d8:038d
   749 38d8:0392   751 38d8:0397   752 38d8:0399   753 38d8:039f
   754 38d8:03a2   755 38d8:03a4   757 38d8:03a7   759 38d8:03ab
   772 38d8:03ac   774 38d8:03ae   775 38d8:03b7   777 38d8:03bd
   778 38d8:03c1   780 38d8:03c5   782 38d8:03c7   795 38d8:03c8
   797 38d8:03cf   798 38d8:03d3   802 38d8:03d7   803 38d8:03db
   807 38d8:03df   809 38d8:03e0   810 38d8:03e4   813 38d8:03e7
   814 38d8:03ec   815 38d8:03f0   817 38d8:0407   818 38d8:040a
   819 38d8:040e   821 38d8:0410   822 38d8:0415   823 38d8:041a
   824 38d8:041e   826 38d8:0435   827 38d8:0438   828 38d8:043c
   830 38d8:043e   835 38d8:043f   836 38d8:0444   837 38d8:0449
   838 38d8:044d   840 38d8:0453   841 38d8:0458   842 38d8:045d
   847 38d8:0461   848 38d8:0466   849 38d8:046b   850 38d8:046f
   852 38d8:0475   853 38d8:047a   854 38d8:047f   858 38d8:0483
   859 38d8:0489   863 38d8:048f   864 38d8:0498   866 38d8:049e
   868 38d8:04a5   892 38d8:04a6   893 38d8:04a7   895 38d8:04a9
   897 38d8:04ae   898 38d8:04b2   899 38d8:04b6   901 38d8:04b8
   902 38d8:04bd   904 38d8:04bf   905 38d8:04c3   907 38d8:04ca
   909 38d8:04cd   910 38d8:04d2   911 38d8:04d6   912 38d8:04da
   913 38d8:04de   914 38d8:04e2   915 38d8:04e6   920 38d8:04ea
   921 38d8:04ed   923 38d8:04f1   925 38d8:04f6   927 38d8:04f7
   940 38d8:04fa   942 38d8:0500   943 38d8:0503   944 38d8:0505
   945 38d8:0509   947 38d8:050d   948 38d8:0510   949 38d8:0512
   950 38d8:0516   952 38d8:051a   953 38d8:051e   954 38d8:0524
   955 38d8:052a   956 38d8:052e   957 38d8:0533   959 38d8:0537
   960 38d8:053b   961 38d8:0540   963 38d8:0544   964 38d8:0549
   965 38d8:054d   966 38d8:0564   968 38d8:0569   969 38d8:056d
   970 38d8:0572   972 38d8:0576   974 38d8:057c

Line numbers for R:\MAX\lib\Lquilibr.lib(SSTOR.asm) segment SSTOR_TEXT

    47 392f:000e    80 392f:000e    81 392f:0011    83 392f:0015
    84 392f:0018    85 392f:001a    86 392f:001d    87 392f:001f
    89 392f:0021    90 392f:0022    93 392f:0023    95 392f:0025
    96 392f:0027    98 392f:0028    99 392f:002a   100 392f:002c
   101 392f:0030   103 392f:0032   104 392f:0036   106 392f:0038
   109 392f:003b   110 392f:0040   112 392f:0042   113 392f:0046
   114 392f:004a   117 392f:004e   118 392f:0052   120 392f:0055