
 LoadHi

 Start         Length     Name                   Class
 0001:00000000 000002D14H _LTEXT                 CODE 32-bit
 0001:00002D14 00000133CH _LDATA                 CODE 32-bit
 0002:00000000 00000352CH _ITEXT                 ICODE 32-bit
 0002:0000352C 000001838H _IDATA                 ICODE 32-bit
 0003:00000000 000000000H _TEXT                  PCODE 32-bit
 0003:00000000 000000000H _DATA                  PCODE 32-bit
 0003:00000000 0000020E1H _RCODE                 RCODE 16-bit

 Origin   Group
 0002:0   _IGROUP
 0001:0   _LGROUP
 0003:0   _PGROUP
 0000:0   FLAT

 Address       Export                  Alias

 0001:00003C38 LoadHi_DDB              LoadHi_DDB

  Address         Publics by Name

 0001:00003C34       $VDD2_Get_Version
 0000:00000014  Abs  @CHECK1L
 0000:00000200  Abs  @CHECKLIMIT
 0000:00000500  Abs  @CHECKSTART
 0000:00000010  Abs  @MAX_FREE_REG
 0000:00000006  Abs  @PAGING_IMPORT_L
 0000:00000FF0  Abs  @PATCH1
 0000:00000FF0  Abs  @PATCH2
 0000:00000003  Abs  @PATCHOFF1
 0000:00000011  Abs  @PATCHOFF2
 0001:00002943       @VDD2_Get_Version
 0001:00003C94       ActualAddInstanceItem
 0001:00003C9C       ActualDOSMGRInstanceDev
 0001:00003C98       ActualTGV86Mem
 0001:00002E24       ADDL_INST
 0002:00001AC8       ADD_HIGHDOS_INSTANCE_ITEM
 0002:00001BAE       ADD_LOWDOS_ITEM
 0002:00001AE5       Add_UMB_Instance_Item_300
 0002:00001B1C       Add_UMB_Instance_Item_310
 0001:00000FF3       AFTER_VDD_INT10
 0001:00002D82       AGROUP_4GB3
 0002:00003491       AllocateLoadHi_InstanceMapStruc
 0001:00002DA6       ARENA_ANCHOR
 0001:00002DF4       ASSIGN_BMP
 0002:00002A28       ATTACH_ZMAX
 0001:00001DA2       B0_PFAULT
 0001:00000F03       BEFORE_VDD_INT10
 0001:00000F5C       BEFORE_VDD_INT10_GRAPHICSMODE
 0000:00000030  Abs  BETA_H
 0000:00000031  Abs  BETA_T
 0000:00000030  Abs  BETA_U
 0000:00000008  Abs  BINVERS_H
 0000:00000003  Abs  BINVERS_TU
 0003:00001F53       BLOCK_MOVE
 0001:00000056       CACHE_ROMS
 0001:0000011B       CALC_PnPSUM
 0001:00003C78       CB_LoadHi_Inst_Buf_ptr
 0001:00003C7C       CB_LoadHi_Inst_Hand
 0001:00002D48       CFG_LIN
 0002:00003705       CHECK1
 0002:00004C83       CHECK_WIN_MODEL
 0001:000007A9       CHK_CFG_FLAG
 0001:000001A7       CHK_FLEX_IO
 0002:000019D5       CHK_TYPE_1
 0002:00001A11       CHK_TYPE_2
 0002:00002927       CHK_VIDEO_ROMS
 0001:000007C3       CMPSBI
 0001:000008C1       CODESRCH
 0001:00000795       CONSUME
 0001:00000DE2       Control_Call_Hook
 0001:00002D60       CON_C0000
 0001:00002D64       CON_C6000
 0001:00002D68       CON_C7000
 0001:00002D6C       CON_C8000
 0001:000034C8       CR2DATA
 0001:000034E0       CR2FLAG
 0001:00000C41       CR2INT01
 0001:000034E2       CR2INT01_IVEC
 0001:000034D8       CR2OFF
 0001:0000350E       CR2_PTE
 0001:00003810       CreateVMHandle
 0001:000034EB       CT_RAM_AB
 0001:000034EC       CT_RAM_CD
 0001:000034ED       CT_RAM_EF
 0001:000034EA       CT_ROMCFG
 0002:000019A3       CULL
 0001:00002DCA       CULLNAME_LEN
 0001:00002DC6       CULLNAME_PTR
 0002:00004A18       CULL_LIST
 0001:00003320       DBG_FLAG
 0001:00002D30       DEVICE_LIST
 0003:0000204A       DEVNAME_MAX
 0003:0000094D       DEVNAME_SMART
 0001:00002D50       DEV_CB_LEN
 0001:00002D54       DEV_CB_OFFSET
 0001:00002DD6       DEV_HDR_PTR
 0003:00000880       DEV_HNDL
 0001:00000410       DISPLAY
 0002:00000AB1       DISP_RAMERR
 0002:000021AE       DMCH_ArenaTrashed
 0001:00003846       DOSMAX
 0001:0000144D       DOSMAXCreateVM_A0PageAllocateFa
 0001:000014D0       DOSMAXCreateVM_B0PageAllocateFa
 0001:00000E54       DOSMAX_Callback
 0001:00000E69       DOSMAX_Call_Back
 0001:0000105E       DOSMAX_CreateSemaphoreFailed
 0001:00001358       DOSMAX_CREATEVM
 0001:00001365       DOSMAX_Create_VM
 0001:00001615       DOSMAX_DESTROYVM
 0001:00001632       DOSMAX_Destroy_VM
 0002:00002558       DOSMAX_DEVICEINIT
 0002:00002182       DOSMAX_FINDSPAN
 0002:00002645       DOSMAX_INITCOMPLETE
 0001:000016DA       DOSMAX_LCL_Hook_V86_Page
 0001:00003816       DOSMAX_PERVMOFF
 0001:00000EAB       DOSMAX_SetOff
 0001:00000EB8       DOSMAX_Set_Off
 0002:00002178       DOSMAX_SHORT
 0002:000021F2       DOSMAX_SYSCRITINIT
 0001:00000EE1       DOSMAX_SystemExit
 0001:00000ED4       DOSMAX_SYSTEMEXIT
 0001:0000169C       DOSMAX_VMNOTEXECUTEABLE
 0001:000016A9       DOSMAX_VM_Not_Executeable
 0001:0000382E       DOSMGR_CALLER
 0001:0000194F       DOSMGR_EXEC_VM_ARENATRASHED
 0001:00003844       DOSUMB_MAC
 0001:00002DA2       DOS_FLAG
 0001:00002DA0       DOS_VER_H
 0001:00002DA1       DOS_VER_L
 0002:00001587       DO_TYPE_1
 0002:000015C3       DO_TYPE_3
 0002:000017B7       DO_TYPE_4
 0002:00001832       DO_TYPE_5
 0001:00002DBA       DSTK_CNT
 0001:000021C1       DSTK_SUB
 0003:00000871       EMMNAME
 0003:00000B30       EMS_BUF
 0003:0000093F       ENVNAM_BM
 0003:000009A7       ENVNAM_EC
 0003:000009B3       ENVNAM_MAXVXD
 0003:000009E6       ENVNAM_PATH
 0003:000009DF       ENVNAM_WINDIR
 0003:000009BA       ENVSTR_DEBUG
 0003:000009B0       ENVSTR_OK
 0003:00000949       ENVSTR_VDS
 0002:00000E5E       EXCLUDE_MONO
 0002:000027F7       EXCLUDE_PVGA
 0001:0000391B       EXEC_NAME
 0001:0000391F       EXEC_NAMEL
 0001:00003483       FEP_FLAG
 0001:00002D92       FGROUP_DS
 0003:00000956       FILENAME_SMART
 0001:0000060D       FIND_ENV_PGM
 0002:00001D05       FIND_WINA20
 0001:00003C70       FirstUMBPage
 0002:00003534       FIRST_NONSPAN
 0001:00001965       FIX_DOSUMB
 0002:00001D5C       FIX_DRDOS
 0001:00002D74       FLEXROM_CNT
 0001:00002D70       FLEXROM_LIN
 0002:000006DD       FLEXSUB
 0001:00000C36       FLUSH_TLB
 0001:00001F73       FreePerVM
 0001:0000017A       FREE_LCL_ITEMS
 0002:000014E5       GetOneSel
 0002:00001471       GetSelPair
 0002:00001FFD       Get_Device_Info
 0001:00000DF0       Get_Hooks_To_Install
 0001:00000E07       Get_Mapped_Page_Num
 0002:00001FF6       Get_Ptr_To_Instance_Data_List
 0002:00001E20       GET_SYSTEM_OPTION
 0002:00001FD4       Get_UMB_Info
 0001:00003C84       GlobalDeviceList
 0001:000038F5       GLOBAL_V86_LIN
 0001:000038F9       GLOBAL_V86_VEC
 0001:0000098B       GotTheZeroEntry
 0001:00003CC0       GT30A_Hook_Flags
 0001:000009B0       HARPO_LCL_HOOK_V86_PAGE
 0001:000009E3       HARPO_LCL_VDD_PF_HOOK
 0001:000034BC       HARPO_OLD_HOOK_V86_PAGE
 0001:000034C0       HARPO_OLD_VDD_PF_HOOK
 0001:00002E00       HIGHDOS_MAP
 0002:0000045E       HOOKPROC
 0002:0000054B       HOOK_SYSINI
 0002:00002870       HOOK_VDD_SYSCRITINIT
 0002:00002526       I10Stub
 0000:0000001F  Abs  I10Stub_Entry
 0000:0000002B  Abs  I10Stub_Exit
 0001:00002D8A       IGROUP_CS
 0001:00002D8C       IGROUP_DS
 0001:00002D7A       IGROUP_LIN
 0003:0000087C       IMPORT_PTR
 0003:0000087A       IMPORT_VER
 0003:00000805       INFO
 0003:00000804       INFO_CTL
 0002:00001E38       INIT_HARPO
 0001:00003C88       InstanceDataList
 0002:00001511       InstanceMagic
 0001:0000390D       INT10_STUB_ADDR
 0003:00000939       INT67_FUNC
 0001:00003923       INTERCEPTS_LIN
 0002:00000EF6       ISHEX
 0001:00000741       ISWHITE
 0001:00001085       IsWindowed
 0002:00000A6F       IZIT_INROM
 0002:00004C74       IZIT_WIN3_MODEL
 0001:00002D8E       JGROUP_CS
 0001:00002D90       JGROUP_DS
 0001:00002D7E       JGROUP_LIN
 0001:00001FC8       KillClientSelectors
 0003:000009FE       KRNL386_FILE
 0001:00002DB6       LaDSTK_TAB
 0001:00002D20       LaPnPBIOS
 0001:00001CB3       LCL_AGV86DA
 0001:0000261C       LCL_ASSIGN_DEVICE_V86_PAGES
 0001:00001D86       LCL_CopyPageTable_ODD
 0001:00001CC8       LCL_COPY_PAGE_TABLE
 0003:000009DE       LCL_DOSMAX_FLAG
 0001:00001814       LCL_DOSMGR_ExecVM
 0001:00001807       LCL_DOSMGR_EXEC_VM
 0001:000001EA       LCL_GETSET_HMA_INFO
 0001:000025AA       LCL_GET_DEVICE_V86_PAGES_ARRAY
 0002:00000631       LCL_GET_PROFILE_BOOLEAN
 0001:000016B4       LCL_HOOK_V86_PAGE
 0001:000007EC       LCL_INT41
 0001:000008F9       LCL_PageAllocate
 0001:00002693       LCL_PHYS_INTO_V86
 0002:0000352C       LCL_PnP_PMCS
 0002:00003530       LCL_PnP_PMDS
 0001:000024C9       LCL_VDD_CONTROL_PROC
 0001:000016F4       LCL_VDD_PF_HOOK
 0001:000019C2       LCL_VDD_PIF_STATE
 0001:00001A2D       LCL_VDD_PIF_STATE_BadBits
 0001:00001BD0       LCL_VDD_PIF_STATE_BadQPEMagic
 0001:00001BF9       LCL_VDD_PIF_STATE_BadQPEVersion
 0001:00001B72       LCL_VDD_PIF_STATE_QPE_ReadFaile
 0001:0000281F       LH_V86_EMM_Fix_Proc
 0001:0000285F       LH_V86_EMM_Fix_Proc2
 0001:0000286E       LH_V86_EMM_Fix_Proc2a
 0002:00003139       LH_V86_Fix_Proc
 0000:00000032  Abs  LI10Stub
 0003:00000AB0       LINEBUF
 0003:00000888       LOADER_SVC
 0002:00003148       LoadHi_Add_Instance_Item
 0001:0000277C       LoadHi_Control
 0001:00003C38       LoadHi_DDB
 0002:00002F21       LoadHi_Device_Init
 0002:0000323F       LoadHi_InstanceInitComplete
 0001:00002980       LoadHi_Instance_Create_VM
 0001:00002A9D       LoadHi_Instance_Destroy_VM
 0002:000030AC       LoadHi_Instance_Device
 0002:000030C7       LoadHi_Instance_From_EDX_Size_E
 0001:00003CD0       LoadHi_Instance_MapHand
 0001:00003CCC       LoadHi_Instance_MapLaddr
 0001:00003CDC       LoadHi_Instance_Map_Table_Ptr_A
 0001:00003E5C       LoadHi_Instance_Map_Table_Size_
 0001:00002A11       LoadHi_Instance_Resume_VM
 0001:00003CD8       LoadHi_Instance_SnapHand
 0001:00003CD4       LoadHi_Instance_SnapLaddr
 0001:00002A53       LoadHi_Instance_Suspend_VM
 0001:00002CDE       LoadHi_Instance_VMDestroy
 0001:00002CE2       LoadHi_Instance_VMSuspend
 0001:00003ED0       LoadHi_Inst_Page_Owner_Actual
 0001:00003CC8       LoadHi_Inst_VM_Buf_Size
 0001:000028B0       LoadHi_Int21ISR
 0002:00003104       LoadHi_IsDeviceGlobal
 0001:000027EA       LoadHi_Map_Pages
 0001:000028D7       LoadHi_SystemExit
 0002:00002A80       LoadHi_Sys_Critical_Init
 0001:0000287A       LoadHi_Sys_VM_Init
 0001:00002AD9       LoadHi_Take_Instance_SnapShot
 0001:0000295E       LoadHi_TestGlobalV86Mem
 0001:00002D9A       lpfnUTL_VXD2MAX
 0001:00002D94       lpfnXMS_VXD2MAX
 0002:00001C28       MAC_PASS1
 0002:00001C89       MAC_PASS2
 0003:00000930       MAXEMS_0
 0003:00000934       MAXEMS_4
 0003:00000E36       MIN_BUF_PAGES
 0003:00000E38       MIN_MAP_PAGES
 0003:0000038E       MSG_16M_NONSUP
 0003:000003E8       MSG_16M_NOXRAM
 0003:00000429       MSG_16M_REDUCE
 0002:000037E6       MSG_1ST_PTL_UGH
 0002:000039C7       MSG_ADP2_UGH
 0002:0000470D       MSG_AIIF_UGH
 0002:0000466B       MSG_AUIIF_UGH
 0003:00000708       MSG_BADVER
 0002:00003E0E       MSG_BAGDTS_UGH
 0001:00003A40       MSG_CAP_BADQPE
 0001:00003927       MSG_CAP_SHORT
 0002:00003D1B       MSG_CFG_PTL_UGH
 0003:0000067B       MSG_CHKENV_BOV
 0002:000037A7       MSG_CR3_PTL_UGH
 0003:000000BE       MSG_CRLF
 0002:00003C9C       MSG_DOSMAX
 0003:0000069E       MSG_DUP_DEVICE
 0003:000005ED       MSG_EMSDC
 0003:0000055A       MSG_EMSDC_BOV
 0001:0000364D       MSG_FLEX1
 0001:00003683       MSG_FLEX1_H1
 0001:00003689       MSG_FLEX2
 0001:000036B4       MSG_FLEX2_H1
 0001:000036BB       MSG_FLEX2_H2
 0002:000038BB       MSG_FLX_PTL_UGH
 0002:00003EB9       MSG_FTL_AI01
 0002:00003F0E       MSG_FTL_AI02
 0002:00003F63       MSG_FTL_AI03
 0002:0000400D       MSG_FTL_AI04
 0002:00004064       MSG_FTL_AI05
 0002:000040C5       MSG_FTL_AI06
 0002:00004129       MSG_FTL_AI07
 0002:00004184       MSG_FTL_AI08
 0002:000041E4       MSG_FTL_AI09
 0002:00004240       MSG_FTL_AI10
 0002:0000431B       MSG_FTL_AI11
 0002:00004761       MSG_FTL_AI12
 0002:000047C5       MSG_FTL_AI13
 0002:00004451       MSG_FTL_AI14
 0002:00003FB8       MSG_FTL_AI15
 0002:00004371       MSG_FTL_AI16
 0002:000043F5       MSG_FTL_AI17
 0002:000042BB       MSG_FTL_AI18
 0001:000036C6       MSG_FTL_FLEX1
 0001:00003714       MSG_FTL_FLEX3
 0002:00003825       MSG_GDPA_UGH
 0002:00003E66       MSG_GDTSNC_UGH
 0003:000002C3       MSG_GETREF
 0002:000046BC       MSG_HAF_UGH
 0001:00003623       MSG_HFF_UGH
 0002:00003CE3       MSG_HVF_UGH
 0002:00003B79       MSG_IDATA_PRESS
 0003:00000252       MSG_IMPORT_INFO
 0003:00000273       MSG_IMPORT_INFO0
 0003:00000275       MSG_IMPORT_INFO1
 0003:0000027B       MSG_IMPORT_INFO2
 0003:000000F7       MSG_IMPORT_IOCTL1
 0003:00000186       MSG_IMPORT_IOCTL2
 0003:000001CA       MSG_IMPORT_IOCTL3
 0003:0000020E       MSG_IMPORT_IOCTL4
 0003:00000146       MSG_IMPORT_NOTCHR
 0003:00000291       MSG_IMPORT_NULL
 0003:000000C1       MSG_IMPORT_OPEN
 0002:00004993       MSG_INST
 0002:000049AE       MSG_INST0
 0002:000049B5       MSG_INST1
 0002:000049BE       MSG_INST_DEV
 0002:000049D9       MSG_INST_DEV0
 0002:000049E0       MSG_INST_DEV1
 0002:00004295       MSG_INST_LSEG
 0002:000049E9       MSG_INST_NAME
 0002:00004A06       MSG_INST_NAME0
 0002:000043D1       MSG_INST_UMB
 0003:00000597       MSG_INT67
 0003:000005CF       MSG_INT67_H
 0001:000035DC       MSG_MPB2_UGH
 0002:00003C2F       MSG_MPB_UGH
 0002:00003DC2       MSG_MPTL3_UGH
 0002:00003A4E       MSG_MPTL4_UGH
 0002:00004909       MSG_MPTL5_UGH
 0002:00003867       MSG_MPTL_UGH
 0003:00000644       MSG_NOKRNL
 0003:000006CF       MSG_NOMAX
 0001:0000375B       MSG_NOQPOPUP_CAPTION
 0001:0000377F       MSG_NOQPOPUP_TEXT
 0003:00000744       MSG_NOSTACKS
 0002:00003C76       MSG_NOVHD
 0002:00004824       MSG_NO_WINA20
 0002:00003CB9       MSG_NU_WRN
 0003:00000050       MSG_PAK
 0003:0000035F       MSG_PAKORESC
 0002:00003A0F       MSG_PIV2_UGH
 0001:0000359D       MSG_PIV3_UGH
 0002:0000494F       MSG_PnP_PTL_UGH
 0003:00000686       MSG_PSWD
 0001:00003554       MSG_PTL_UGH
 0003:00000312       MSG_PUTREF
 0002:00003ACB       MSG_RAMPAM_HDR
 0002:00003B63       MSG_RAMPAM_UGH
 0002:00003B6C       MSG_RAMPAM_UGH1
 0002:00003B71       MSG_RAMPAM_UGH2
 0002:00003981       MSG_RAMSCAN_UGH
 0002:0000375D       MSG_REF_PTL_UGH
 0003:00002053       MSG_RMI
 0002:00003B9E       MSG_ROMADP_UGH
 0002:00003A90       MSG_ROMPAM_UGH
 0002:00003AB6       MSG_ROMPAM_UGH0
 0002:00003BEB       MSG_ROMPIV_UGH
 0002:0000393B       MSG_ROMSCAN_UGH
 0002:00003724       MSG_SCI
 0003:0000045C       MSG_SMART_BOV
 0003:0000049A       MSG_SMART_SNS
 0003:00000522       MSG_SMART_SWD
 0002:00003D67       MSG_STU_PTL_UGH
 0001:00003AAE       MSG_TXT_BADQPELEN
 0001:00003A66       MSG_TXT_BADQPEREAD
 0001:00003957       MSG_TXT_SHORT
 0002:0000461D       MSG_UHAF_UGH
 0002:00004861       MSG_UPD_UGH1
 0002:000048B5       MSG_UPD_UGH2
 0003:000007BF       MSG_UPD_VER
 0003:000007FB       MSG_UPD_VER0
 0003:000007FD       MSG_UPD_VER1
 0002:000044B0       MSG_VLW1_UGH
 0002:000044F9       MSG_VLW2_UGH
 0002:00004542       MSG_VLW3_UGH
 0002:0000458B       MSG_VLW4_UGH
 0002:000045D4       MSG_VLW5_UGH
 0002:00003903       MSG_VS_UGH
 0002:0000371C       NAM_386LOAD
 0001:00000DE0       NearRet
 0003:00000E40       NETBIOS_BLK
 0003:00000E3E       NETHEAPSIZE
 0001:00003909       NEW_INT10
 0001:00001A90       NoDotPIF
 0001:00001A5E       NoFilenameColon
 0001:000015D7       NOQPOPUP_CB
 0001:00003840       NUL_PAGE_PTE
 0001:00003C74       NumUMBPages
 0001:00002D28       OffPnP_PMCS
 0001:00002D2C       OffPnP_PMOFF
 0001:00002D24       OffPnP_RMVEC
 0001:000034C4       OLDCR2
 0001:00002D38       OLDREF_LIN
 0001:00003832       OLD_AGV86DA
 0001:0000382A       OLD_COPY_PAGE_TABLE
 0001:00003822       OLD_DOSMGR_EXEC_VM
 0002:00003701       OLD_DOSMGR_Instance_Device
 0001:00002DC2       OLD_GETSET_HMA_INFO
 0001:0000381E       OLD_HOOK_V86_PAGE
 0001:00003905       OLD_INT10
 0001:000034B0       OLD_PageAllocate
 0001:00002D18       OLD_PnP_PMCS
 0001:00002D1C       OLD_PnP_PMDS
 0001:00003836       OLD_VDD_PF_HOOK
 0001:00003826       OLD_VDD_PIF_STATE
 0001:00002DA8       OVRMAC
 0001:00002DAA       OVRMAC_PAGE
 0001:00000590       P2LERROR
 0001:000034B4       PageAllocate_CALLER
 0001:000034B8       PageAllocate_PTE
 0001:00000A25       PAGEFAULT_PM
 0001:00000A1C       PAGEFAULT_V86
 0003:0000086B       PAGING_IMPORT
 0002:0000030C       PATCH_PnP
 0002:00002790       PATCH_XGA
 0003:00000A2E       PATH_BUF
 0003:00000AAE       PATH_BUF_PTR
 0001:00002D44       PDIR_LIN
 0001:00002DBE       PDSTKCOM
 0001:00002D58       PENDING_ERROR
 0001:00002D40       PF_PM_OLD
 0001:00002D3C       PF_V86_OLD
 0001:00002D84       PGROUP_CS
 0001:00002D86       PGROUP_DS
 0001:00002D88       PGROUP_DS3
 0001:00002D76       PGROUP_LIN
 0001:00000560       PHYS2LIN
 0001:0000383E       PIF_HANDLE
 0001:00002451       PMAPI_GetDOSMAXInfo
 0001:00000350       PMAPI_GetSwatVer
 0001:0000035F       PMAPI_GetSysVMHandle
 0001:00000392       PMAPI_GetTimeSliceInfo
 0001:00000347       PMAPI_GetVer
 0001:0000035B       PMAPI_GetVMHandle
 0001:0000036B       PMAPI_GetVMInfo
 0001:00001E73       PMAPI_IgnoreModeSwitch
 0001:00001ED7       PMAPI_IgnoreModeSwitch_BadSpin
 0001:00001DD6       PMAPI_RegisterCallback
 0001:000003BC       PMAPI_SetTimeSliceInfo
 0001:00001F36       PMAPI_SignalSemaphore
 0001:00001F61       PMAPI_SIGSEM_NOSEMAPHORE
 0001:00001F0E       PMAPI_Terminate
 0001:00001E41       PMAPI_UnregisterCallback
 0001:00002D14       PMI_FLAG
 0002:00003538       PMI_PAGE_MAP
 0001:00000328       PM_API
 0003:00000E3A       PRIVATE_MAP_PAGES
 0002:00002F03       ProcessPageInMonoDispArea
 0000:00000080  Abs  PSP_PARM_COUNT
 0000:00000081  Abs  PSP_PARM_STRING
 0003:00000D32       PTE_BUF
 0003:00000E32       PTE_BUFZ
 0003:00000E34       PTE_OFFSET
 0003:00000882       QMAX_DSHI
 0001:000003E3       QMAX_HELPER
 0003:00000935       QMAX_INT67
 0003:00000884       QMAX_VER
 0001:00003915       QPOPUP_CALLBACK
 0001:00002028       QPOPUP_EVENTPROC
 0002:00002597       QPOPUP_EVENTPROC_AllocStub_Fail
 0001:0000214B       QPOPUP_EVENTPROC_LDTAlloc2Faile
 0001:000020DD       QPOPUP_EVENTPROC_LDTAllocFailed
 0002:00000B8D       RAM_AMM
 0002:0000355C       RAM_ERRMAP
 0002:00000A07       RAM_SCAN
 0001:00000C15       READ_CHIPSET
 0001:00000C00       READ_CR3
 0003:00000E80       Real_Mode_Hook
 0003:0000088E       REFDATA_LEN
 0003:00000890       REFDATA_VER
 0003:00000896       REF_DATA_LIN
 0003:00000892       REF_DATA_PHYS
 0001:00002D34       REF_LIN
 0001:000000D7       REST_PnP
 0001:00000D5B       REST_PTE
 0003:00001208       RMI_ADJUST_REFDATA_PTR
 0003:0000088C       RMI_BX
 0003:00001787       RMI_CALC_PAGES
 0003:00001C3A       RMI_CHKENV
 0003:00001870       RMI_CHK_16M
 0003:0000193D       RMI_CHK_BM
 0003:00001C98       RMI_CHK_DUPVXD
 0003:00001995       RMI_CHK_EMSDISK
 0003:0000154B       RMI_CHK_FLEXROM
 0003:00000FF5       RMI_CHK_MAXVXD
 0003:00001588       RMI_CHK_VIDEO
 0003:0000136B       RMI_CMPSBI
 0003:0000138E       RMI_CMPSBNI
 0003:00001CB2       RMI_DOSMAX
 0003:000016F2       RMI_FIX_DRDOS
 0003:000016A5       RMI_FIX_VIDEO
 0003:00000802       RMI_FLAG
 0003:000014A1       RMI_GETDEC
 0003:00001BFC       RMI_GETENV
 0003:00001D2C       RMI_GETLINE
 0003:00001EFC       RMI_GETPTE
 0003:0000124F       RMI_GET_DOSVER
 0003:00001081       RMI_GET_PAGING_IMPORT
 0003:00001271       RMI_GET_REFDATA
 0003:00001513       RMI_GET_WINDIR
 0003:00001828       RMI_INT67B
 0003:000014DB       RMI_ISDEC
 0003:00001D87       RMI_MAX_OPEN
 0003:00001BDD       RMI_OPENKRNL
 0003:000014E3       RMI_PAUSE
 0003:00001E4F       RMI_PHYS2LIN
 0003:000012EB       RMI_PUT_REFDATA
 0003:00001028       RMI_REFDATA_LEN
 0003:00001060       RMI_REFDATA_VER
 0003:0000089A       RMI_REF_DATA
 0003:00001CED       RMI_SCAN_LSEG
 0003:00000FDA       RMI_SHOW_BANNER
 0003:000013AF       RMI_SKIPWHITE
 0003:000018B7       RMI_SMARTAAR
 0003:000013BC       RMI_SYSINI_FLAGS
 0003:00000035       RMI_TODEC
 0003:00000010       RMI_TOHEX
 0003:00001FB8       RMI_UPD
 0002:00000C2B       ROM_AMM
 0001:00002DE8       ROM_BMP
 0002:000007A1       ROM_SCAN
 0002:000018C4       SCAN_ARENA
 0002:00002A12       SCAN_FOR_SIG
 0001:00002011       ScheduleCleanup
 0001:00001FF5       ScheduleQpopup
 0001:00001046       SemaphoreBlock
 0001:00000C27       SEND_CHIPSET
 0002:0000142A       SetupDesc
 0002:00001390       SetupGDTE
 0002:000013FA       SetupGDTE2
 0002:0000075F       SETUP_FLEXCONS
 0002:00000677       SETUP_FLEXROM
 0002:00000D8D       SETUP_HIGHDOS_MAPS
 0002:00000D4E       SETUP_OPTIONS
 0002:00001046       SETUP_QMAX
 0002:0000045F       SET_DBG_FLAG
 0001:00001D95       ShellMessage
 0001:00001DA1       ShellMessageCB
 0001:000015E4       SHELL_Message_Callback
 0001:000015FC       SHELL_Message_Callback_BadVMHan
 0001:00000447       SHOW_CRS
 0002:00001DBA       SHOW_INSTANCE_DEVICE
 0002:00001D87       SHOW_INSTANCE_ITEM
 0002:00001DEB       SHOW_INSTNAME
 0001:00002D4C       SIS_LIN
 0001:0000074A       SKIPWHITE
 0003:00000962       SMART_IOCTL
 0001:00001E82       StartOf_PMAPI_IgnoreModeSwitch
 0001:00001F1B       StartOf_PMAPI_Terminate
 0001:00002035       StartOf_QPOPUP_EVENTPROC
 0003:00000A0B       STR_386ENH
 0002:00004C2C       STR_DOSMAX
 0002:00004C58       STR_DOSMAXBREAK
 0002:00004C3F       STR_DOSMAXDEF
 0002:00004C33       STR_DOSMAXFONTS
 0002:00004C64       STR_DOSMAXJUGGLE
 0002:00004C4D       STR_DOSMAXMONO
 0002:000036F5       STR_FixupPMBIOS
 0002:000036D8       STR_HARPO
 0002:000036DE       STR_HARPOBREAK
 0002:000036E9       STR_HarpoHookB8
 0003:00000A13       STR_NETHEAPSIZE
 0003:00000990       STR_PARADISE
 0001:00003B99       STR_PROPDLL
 0001:00003BA4       STR_PROPEXT
 0002:00003570       STR_QUALITAS
 0003:000009C9       STR_RMBRK
 0003:00000A1F       STR_VIRTUALHIGHDOS
 0003:00000998       STR_WDIGITAL
 0001:00001586       SuspendIfNotRegistered
 0001:000015B3       SuspendIfNotRegistered_NoCallba
 0002:000022E7       SVM_AllocDOSBuffer_Failed
 0002:00002342       SVM_AllocFontBuffer_Failed
 0002:000023BE       SVM_AssignDeviceV86Pages_Failed
 0002:000025FB       SVM_DefaultQPE
 0001:000023FA       SVM_EXEC_BADFLAG
 0001:00003814       SVM_FLAG
 0002:000023E8       SVM_HookV86Page_Failed
 0002:000024D0       SVM_Hook_AGV86DA_Failed
 0002:00002447       SVM_Hook_CopyPageTable_Failed
 0002:00002471       SVM_Hook_DOSMGRExecVM_Failed
 0002:0000241D       SVM_Hook_HookV86Page_Failed
 0002:0000249B       SVM_Hook_VDDPIFState_Failed
 0001:00002255       SVM_INT21
 0001:0000381A       SVM_MAX_PAGES_B0
 0001:00001258       SVM_PM_SaveRestoreState
 0002:000024FC       SVM_Shell_Hook_Prop_Failed
 0001:0000109D       SVM_SwitchStacks
 0001:000010DC       SVM_XlatFont
 0001:00002BC0       Swap_LoadHi_Instance_Page
 0001:000010D3       Switch_Stacks
 0003:000009EB       SYSINI_FILE
 0003:000009F7       SYSTEM_PATH
 0002:00000000       SYS_CRITICAL_INIT
 0001:00003898       szDefaultQPE
 0001:00003848       szPIFName
 0001:000038E8       sz_DefaultQPE
 0002:00000D36       TEST_PAGEMAP
 0001:00000421       TOHEX
 0001:00000774       TOKENIZE
 0001:00002488       UNHOOK_VDD
 0002:000026A8       UPD_CHECK_WIN
 0001:0000031F       V86API_GetVer
 0001:0000030D       V86API_UTIL2MAX
 0001:000002FB       V86API_XMS2MAX
 0001:00001283       V86INT10_ENTRY_IGNORE_A0
 0001:00001331       V86INT10_EXIT_IGNORE_A0
 0001:000005AA       V86LIN2WIN
 0001:000005C8       V86LIN2WIN_BEFORE_SVI
 0001:000002B0       V86_API
 0001:00001157       V86_INT10_ENTRY
 0001:000011CE       V86_INT10_Entry_MissedINT10InPM
 0001:00001173       V86_INT10_Entry_UghNoDOSMAX
 0001:000012AA       V86_INT10_EXIT
 0001:00000208       V86_INT21
 0001:00003BB6       VDD_COUNT
 0001:00003BB4       VDD_FLAG
 0001:0000383A       VDD_PF_PAGE
 0000:00000323  Abs  VER
 0000:00000008  Abs  VERH
 0000:00000003  Abs  VERL
 0000:00000020  Abs  VERSLTR1
 0000:000000CD  Abs  VERSLTR2
 0000:00000038  Abs  VERS_H
 0000:00000803  Abs  VERS_HTU
 0000:00000030  Abs  VERS_T
 0000:00000033  Abs  VERS_U
 0003:00000E3C       VIRTUALHIGHDOS
 0001:0000003D       VMAX_CREATE_VM
 0001:00000036       VMAX_DESTROY_VM
 0002:00000F09       VMAX_DEVICE_INIT
 0002:00001026       VMAX_INIT_COMPLETE
 0001:00000132       VMAX_SYSTEM_EXIT
 0001:00000161       VMAX_SYS_CRITICAL_EXIT
 0001:00000000       VMAX_SYS_VM_INIT
 0001:0000002F       VMAX_VM_NOT_EXECUTEABLE
 0001:00003CC4       VMM_Vers
 0003:00000886       WIN386_VER
 0001:00002DA4       WIN3_VERSION
 0001:000038FD       XLATFONT_V86_LIN
 0001:00003901       XLATFONT_V86_VEC
 0003:0000093B       XMS_VEC
 0001:00002464       XUPD_CHECK_WIN
 0001:0000273C       ZMAX_CONTROL
 0001:00003BD4       ZMAX_DDB
 0002:00002A50       ZMAX_DEVICE_INIT
 0001:0000274A       ZMAX_VM_INIT

  Address         Publics by Value

 0000:00000003  Abs  VERL
 0000:00000003  Abs  @PATCHOFF1
 0000:00000003  Abs  BINVERS_TU
 0000:00000006  Abs  @PAGING_IMPORT_L
 0000:00000008  Abs  VERH
 0000:00000008  Abs  BINVERS_H
 0000:00000010  Abs  @MAX_FREE_REG
 0000:00000011  Abs  @PATCHOFF2
 0000:00000014  Abs  @CHECK1L
 0000:0000001F  Abs  I10Stub_Entry
 0000:00000020  Abs  VERSLTR1
 0000:0000002B  Abs  I10Stub_Exit
 0000:00000030  Abs  BETA_H
 0000:00000030  Abs  BETA_U
 0000:00000030  Abs  VERS_T
 0000:00000031  Abs  BETA_T
 0000:00000032  Abs  LI10Stub
 0000:00000033  Abs  VERS_U
 0000:00000038  Abs  VERS_H
 0000:00000080  Abs  PSP_PARM_COUNT
 0000:00000081  Abs  PSP_PARM_STRING
 0000:000000CD  Abs  VERSLTR2
 0000:00000200  Abs  @CHECKLIMIT
 0000:00000323  Abs  VER
 0000:00000500  Abs  @CHECKSTART
 0000:00000803  Abs  VERS_HTU
 0000:00000FF0  Abs  @PATCH1
 0000:00000FF0  Abs  @PATCH2
 0001:00000000       VMAX_SYS_VM_INIT
 0001:0000002F       VMAX_VM_NOT_EXECUTEABLE
 0001:00000036       VMAX_DESTROY_VM
 0001:0000003D       VMAX_CREATE_VM
 0001:00000056       CACHE_ROMS
 0001:000000D7       REST_PnP
 0001:0000011B       CALC_PnPSUM
 0001:00000132       VMAX_SYSTEM_EXIT
 0001:00000161       VMAX_SYS_CRITICAL_EXIT
 0001:0000017A       FREE_LCL_ITEMS
 0001:000001A7       CHK_FLEX_IO
 0001:000001EA       LCL_GETSET_HMA_INFO
 0001:00000208       V86_INT21
 0001:000002B0       V86_API
 0001:000002FB       V86API_XMS2MAX
 0001:0000030D       V86API_UTIL2MAX
 0001:0000031F       V86API_GetVer
 0001:00000328       PM_API
 0001:00000347       PMAPI_GetVer
 0001:00000350       PMAPI_GetSwatVer
 0001:0000035B       PMAPI_GetVMHandle
 0001:0000035F       PMAPI_GetSysVMHandle
 0001:0000036B       PMAPI_GetVMInfo
 0001:00000392       PMAPI_GetTimeSliceInfo
 0001:000003BC       PMAPI_SetTimeSliceInfo
 0001:000003E3       QMAX_HELPER
 0001:00000410       DISPLAY
 0001:00000421       TOHEX
 0001:00000447       SHOW_CRS
 0001:00000560       PHYS2LIN
 0001:00000590       P2LERROR
 0001:000005AA       V86LIN2WIN
 0001:000005C8       V86LIN2WIN_BEFORE_SVI
 0001:0000060D       FIND_ENV_PGM
 0001:00000741       ISWHITE
 0001:0000074A       SKIPWHITE
 0001:00000774       TOKENIZE
 0001:00000795       CONSUME
 0001:000007A9       CHK_CFG_FLAG
 0001:000007C3       CMPSBI
 0001:000007EC       LCL_INT41
 0001:000008C1       CODESRCH
 0001:000008F9       LCL_PageAllocate
 0001:0000098B       GotTheZeroEntry
 0001:000009B0       HARPO_LCL_HOOK_V86_PAGE
 0001:000009E3       HARPO_LCL_VDD_PF_HOOK
 0001:00000A1C       PAGEFAULT_V86
 0001:00000A25       PAGEFAULT_PM
 0001:00000C00       READ_CR3
 0001:00000C15       READ_CHIPSET
 0001:00000C27       SEND_CHIPSET
 0001:00000C36       FLUSH_TLB
 0001:00000C41       CR2INT01
 0001:00000D5B       REST_PTE
 0001:00000DE0       NearRet
 0001:00000DE2       Control_Call_Hook
 0001:00000DF0       Get_Hooks_To_Install
 0001:00000E07       Get_Mapped_Page_Num
 0001:00000E54       DOSMAX_Callback
 0001:00000E69       DOSMAX_Call_Back
 0001:00000EAB       DOSMAX_SetOff
 0001:00000EB8       DOSMAX_Set_Off
 0001:00000ED4       DOSMAX_SYSTEMEXIT
 0001:00000EE1       DOSMAX_SystemExit
 0001:00000F03       BEFORE_VDD_INT10
 0001:00000F5C       BEFORE_VDD_INT10_GRAPHICSMODE
 0001:00000FF3       AFTER_VDD_INT10
 0001:00001046       SemaphoreBlock
 0001:0000105E       DOSMAX_CreateSemaphoreFailed
 0001:00001085       IsWindowed
 0001:0000109D       SVM_SwitchStacks
 0001:000010D3       Switch_Stacks
 0001:000010DC       SVM_XlatFont
 0001:00001157       V86_INT10_ENTRY
 0001:00001173       V86_INT10_Entry_UghNoDOSMAX
 0001:000011CE       V86_INT10_Entry_MissedINT10InPM
 0001:00001258       SVM_PM_SaveRestoreState
 0001:00001283       V86INT10_ENTRY_IGNORE_A0
 0001:000012AA       V86_INT10_EXIT
 0001:00001331       V86INT10_EXIT_IGNORE_A0
 0001:00001358       DOSMAX_CREATEVM
 0001:00001365       DOSMAX_Create_VM
 0001:0000144D       DOSMAXCreateVM_A0PageAllocateFa
 0001:000014D0       DOSMAXCreateVM_B0PageAllocateFa
 0001:00001586       SuspendIfNotRegistered
 0001:000015B3       SuspendIfNotRegistered_NoCallba
 0001:000015D7       NOQPOPUP_CB
 0001:000015E4       SHELL_Message_Callback
 0001:000015FC       SHELL_Message_Callback_BadVMHan
 0001:00001615       DOSMAX_DESTROYVM
 0001:00001632       DOSMAX_Destroy_VM
 0001:0000169C       DOSMAX_VMNOTEXECUTEABLE
 0001:000016A9       DOSMAX_VM_Not_Executeable
 0001:000016B4       LCL_HOOK_V86_PAGE
 0001:000016DA       DOSMAX_LCL_Hook_V86_Page
 0001:000016F4       LCL_VDD_PF_HOOK
 0001:00001807       LCL_DOSMGR_EXEC_VM
 0001:00001814       LCL_DOSMGR_ExecVM
 0001:0000194F       DOSMGR_EXEC_VM_ARENATRASHED
 0001:00001965       FIX_DOSUMB
 0001:000019C2       LCL_VDD_PIF_STATE
 0001:00001A2D       LCL_VDD_PIF_STATE_BadBits
 0001:00001A5E       NoFilenameColon
 0001:00001A90       NoDotPIF
 0001:00001B72       LCL_VDD_PIF_STATE_QPE_ReadFaile
 0001:00001BD0       LCL_VDD_PIF_STATE_BadQPEMagic
 0001:00001BF9       LCL_VDD_PIF_STATE_BadQPEVersion
 0001:00001CB3       LCL_AGV86DA
 0001:00001CC8       LCL_COPY_PAGE_TABLE
 0001:00001D86       LCL_CopyPageTable_ODD
 0001:00001D95       ShellMessage
 0001:00001DA1       ShellMessageCB
 0001:00001DA2       B0_PFAULT
 0001:00001DD6       PMAPI_RegisterCallback
 0001:00001E41       PMAPI_UnregisterCallback
 0001:00001E73       PMAPI_IgnoreModeSwitch
 0001:00001E82       StartOf_PMAPI_IgnoreModeSwitch
 0001:00001ED7       PMAPI_IgnoreModeSwitch_BadSpin
 0001:00001F0E       PMAPI_Terminate
 0001:00001F1B       StartOf_PMAPI_Terminate
 0001:00001F36       PMAPI_SignalSemaphore
 0001:00001F61       PMAPI_SIGSEM_NOSEMAPHORE
 0001:00001F73       FreePerVM
 0001:00001FC8       KillClientSelectors
 0001:00001FF5       ScheduleQpopup
 0001:00002011       ScheduleCleanup
 0001:00002028       QPOPUP_EVENTPROC
 0001:00002035       StartOf_QPOPUP_EVENTPROC
 0001:000020DD       QPOPUP_EVENTPROC_LDTAllocFailed
 0001:0000214B       QPOPUP_EVENTPROC_LDTAlloc2Faile
 0001:000021C1       DSTK_SUB
 0001:00002255       SVM_INT21
 0001:000023FA       SVM_EXEC_BADFLAG
 0001:00002451       PMAPI_GetDOSMAXInfo
 0001:00002464       XUPD_CHECK_WIN
 0001:00002488       UNHOOK_VDD
 0001:000024C9       LCL_VDD_CONTROL_PROC
 0001:000025AA       LCL_GET_DEVICE_V86_PAGES_ARRAY
 0001:0000261C       LCL_ASSIGN_DEVICE_V86_PAGES
 0001:00002693       LCL_PHYS_INTO_V86
 0001:0000273C       ZMAX_CONTROL
 0001:0000274A       ZMAX_VM_INIT
 0001:0000277C       LoadHi_Control
 0001:000027EA       LoadHi_Map_Pages
 0001:0000281F       LH_V86_EMM_Fix_Proc
 0001:0000285F       LH_V86_EMM_Fix_Proc2
 0001:0000286E       LH_V86_EMM_Fix_Proc2a
 0001:0000287A       LoadHi_Sys_VM_Init
 0001:000028B0       LoadHi_Int21ISR
 0001:000028D7       LoadHi_SystemExit
 0001:00002943       @VDD2_Get_Version
 0001:0000295E       LoadHi_TestGlobalV86Mem
 0001:00002980       LoadHi_Instance_Create_VM
 0001:00002A11       LoadHi_Instance_Resume_VM
 0001:00002A53       LoadHi_Instance_Suspend_VM
 0001:00002A9D       LoadHi_Instance_Destroy_VM
 0001:00002AD9       LoadHi_Take_Instance_SnapShot
 0001:00002BC0       Swap_LoadHi_Instance_Page
 0001:00002CDE       LoadHi_Instance_VMDestroy
 0001:00002CE2       LoadHi_Instance_VMSuspend
 0001:00002D14       PMI_FLAG
 0001:00002D18       OLD_PnP_PMCS
 0001:00002D1C       OLD_PnP_PMDS
 0001:00002D20       LaPnPBIOS
 0001:00002D24       OffPnP_RMVEC
 0001:00002D28       OffPnP_PMCS
 0001:00002D2C       OffPnP_PMOFF
 0001:00002D30       DEVICE_LIST
 0001:00002D34       REF_LIN
 0001:00002D38       OLDREF_LIN
 0001:00002D3C       PF_V86_OLD
 0001:00002D40       PF_PM_OLD
 0001:00002D44       PDIR_LIN
 0001:00002D48       CFG_LIN
 0001:00002D4C       SIS_LIN
 0001:00002D50       DEV_CB_LEN
 0001:00002D54       DEV_CB_OFFSET
 0001:00002D58       PENDING_ERROR
 0001:00002D60       CON_C0000
 0001:00002D64       CON_C6000
 0001:00002D68       CON_C7000
 0001:00002D6C       CON_C8000
 0001:00002D70       FLEXROM_LIN
 0001:00002D74       FLEXROM_CNT
 0001:00002D76       PGROUP_LIN
 0001:00002D7A       IGROUP_LIN
 0001:00002D7E       JGROUP_LIN
 0001:00002D82       AGROUP_4GB3
 0001:00002D84       PGROUP_CS
 0001:00002D86       PGROUP_DS
 0001:00002D88       PGROUP_DS3
 0001:00002D8A       IGROUP_CS
 0001:00002D8C       IGROUP_DS
 0001:00002D8E       JGROUP_CS
 0001:00002D90       JGROUP_DS
 0001:00002D92       FGROUP_DS
 0001:00002D94       lpfnXMS_VXD2MAX
 0001:00002D9A       lpfnUTL_VXD2MAX
 0001:00002DA0       DOS_VER_H
 0001:00002DA1       DOS_VER_L
 0001:00002DA2       DOS_FLAG
 0001:00002DA4       WIN3_VERSION
 0001:00002DA6       ARENA_ANCHOR
 0001:00002DA8       OVRMAC
 0001:00002DAA       OVRMAC_PAGE
 0001:00002DB6       LaDSTK_TAB
 0001:00002DBA       DSTK_CNT
 0001:00002DBE       PDSTKCOM
 0001:00002DC2       OLD_GETSET_HMA_INFO
 0001:00002DC6       CULLNAME_PTR
 0001:00002DCA       CULLNAME_LEN
 0001:00002DD6       DEV_HDR_PTR
 0001:00002DE8       ROM_BMP
 0001:00002DF4       ASSIGN_BMP
 0001:00002E00       HIGHDOS_MAP
 0001:00002E24       ADDL_INST
 0001:00003320       DBG_FLAG
 0001:00003483       FEP_FLAG
 0001:000034B0       OLD_PageAllocate
 0001:000034B4       PageAllocate_CALLER
 0001:000034B8       PageAllocate_PTE
 0001:000034BC       HARPO_OLD_HOOK_V86_PAGE
 0001:000034C0       HARPO_OLD_VDD_PF_HOOK
 0001:000034C4       OLDCR2
 0001:000034C8       CR2DATA
 0001:000034D8       CR2OFF
 0001:000034E0       CR2FLAG
 0001:000034E2       CR2INT01_IVEC
 0001:000034EA       CT_ROMCFG
 0001:000034EB       CT_RAM_AB
 0001:000034EC       CT_RAM_CD
 0001:000034ED       CT_RAM_EF
 0001:0000350E       CR2_PTE
 0001:00003554       MSG_PTL_UGH
 0001:0000359D       MSG_PIV3_UGH
 0001:000035DC       MSG_MPB2_UGH
 0001:00003623       MSG_HFF_UGH
 0001:0000364D       MSG_FLEX1
 0001:00003683       MSG_FLEX1_H1
 0001:00003689       MSG_FLEX2
 0001:000036B4       MSG_FLEX2_H1
 0001:000036BB       MSG_FLEX2_H2
 0001:000036C6       MSG_FTL_FLEX1
 0001:00003714       MSG_FTL_FLEX3
 0001:0000375B       MSG_NOQPOPUP_CAPTION
 0001:0000377F       MSG_NOQPOPUP_TEXT
 0001:00003810       CreateVMHandle
 0001:00003814       SVM_FLAG
 0001:00003816       DOSMAX_PERVMOFF
 0001:0000381A       SVM_MAX_PAGES_B0
 0001:0000381E       OLD_HOOK_V86_PAGE
 0001:00003822       OLD_DOSMGR_EXEC_VM
 0001:00003826       OLD_VDD_PIF_STATE
 0001:0000382A       OLD_COPY_PAGE_TABLE
 0001:0000382E       DOSMGR_CALLER
 0001:00003832       OLD_AGV86DA
 0001:00003836       OLD_VDD_PF_HOOK
 0001:0000383A       VDD_PF_PAGE
 0001:0000383E       PIF_HANDLE
 0001:00003840       NUL_PAGE_PTE
 0001:00003844       DOSUMB_MAC
 0001:00003846       DOSMAX
 0001:00003848       szPIFName
 0001:00003898       szDefaultQPE
 0001:000038E8       sz_DefaultQPE
 0001:000038F5       GLOBAL_V86_LIN
 0001:000038F9       GLOBAL_V86_VEC
 0001:000038FD       XLATFONT_V86_LIN
 0001:00003901       XLATFONT_V86_VEC
 0001:00003905       OLD_INT10
 0001:00003909       NEW_INT10
 0001:0000390D       INT10_STUB_ADDR
 0001:00003915       QPOPUP_CALLBACK
 0001:0000391B       EXEC_NAME
 0001:0000391F       EXEC_NAMEL
 0001:00003923       INTERCEPTS_LIN
 0001:00003927       MSG_CAP_SHORT
 0001:00003957       MSG_TXT_SHORT
 0001:00003A40       MSG_CAP_BADQPE
 0001:00003A66       MSG_TXT_BADQPEREAD
 0001:00003AAE       MSG_TXT_BADQPELEN
 0001:00003B99       STR_PROPDLL
 0001:00003BA4       STR_PROPEXT
 0001:00003BB4       VDD_FLAG
 0001:00003BB6       VDD_COUNT
 0001:00003BD4       ZMAX_DDB
 0001:00003C34       $VDD2_Get_Version
 0001:00003C38       LoadHi_DDB
 0001:00003C70       FirstUMBPage
 0001:00003C74       NumUMBPages
 0001:00003C78       CB_LoadHi_Inst_Buf_ptr
 0001:00003C7C       CB_LoadHi_Inst_Hand
 0001:00003C84       GlobalDeviceList
 0001:00003C88       InstanceDataList
 0001:00003C94       ActualAddInstanceItem
 0001:00003C98       ActualTGV86Mem
 0001:00003C9C       ActualDOSMGRInstanceDev
 0001:00003CC0       GT30A_Hook_Flags
 0001:00003CC4       VMM_Vers
 0001:00003CC8       LoadHi_Inst_VM_Buf_Size
 0001:00003CCC       LoadHi_Instance_MapLaddr
 0001:00003CD0       LoadHi_Instance_MapHand
 0001:00003CD4       LoadHi_Instance_SnapLaddr
 0001:00003CD8       LoadHi_Instance_SnapHand
 0001:00003CDC       LoadHi_Instance_Map_Table_Ptr_A
 0001:00003E5C       LoadHi_Instance_Map_Table_Size_
 0001:00003ED0       LoadHi_Inst_Page_Owner_Actual
 0002:00000000       SYS_CRITICAL_INIT
 0002:0000030C       PATCH_PnP
 0002:0000045E       HOOKPROC
 0002:0000045F       SET_DBG_FLAG
 0002:0000054B       HOOK_SYSINI
 0002:00000631       LCL_GET_PROFILE_BOOLEAN
 0002:00000677       SETUP_FLEXROM
 0002:000006DD       FLEXSUB
 0002:0000075F       SETUP_FLEXCONS
 0002:000007A1       ROM_SCAN
 0002:00000A07       RAM_SCAN
 0002:00000A6F       IZIT_INROM
 0002:00000AB1       DISP_RAMERR
 0002:00000B8D       RAM_AMM
 0002:00000C2B       ROM_AMM
 0002:00000D36       TEST_PAGEMAP
 0002:00000D4E       SETUP_OPTIONS
 0002:00000D8D       SETUP_HIGHDOS_MAPS
 0002:00000E5E       EXCLUDE_MONO
 0002:00000EF6       ISHEX
 0002:00000F09       VMAX_DEVICE_INIT
 0002:00001026       VMAX_INIT_COMPLETE
 0002:00001046       SETUP_QMAX
 0002:00001390       SetupGDTE
 0002:000013FA       SetupGDTE2
 0002:0000142A       SetupDesc
 0002:00001471       GetSelPair
 0002:000014E5       GetOneSel
 0002:00001511       InstanceMagic
 0002:00001587       DO_TYPE_1
 0002:000015C3       DO_TYPE_3
 0002:000017B7       DO_TYPE_4
 0002:00001832       DO_TYPE_5
 0002:000018C4       SCAN_ARENA
 0002:000019A3       CULL
 0002:000019D5       CHK_TYPE_1
 0002:00001A11       CHK_TYPE_2
 0002:00001AC8       ADD_HIGHDOS_INSTANCE_ITEM
 0002:00001AE5       Add_UMB_Instance_Item_300
 0002:00001B1C       Add_UMB_Instance_Item_310
 0002:00001BAE       ADD_LOWDOS_ITEM
 0002:00001C28       MAC_PASS1
 0002:00001C89       MAC_PASS2
 0002:00001D05       FIND_WINA20
 0002:00001D5C       FIX_DRDOS
 0002:00001D87       SHOW_INSTANCE_ITEM
 0002:00001DBA       SHOW_INSTANCE_DEVICE
 0002:00001DEB       SHOW_INSTNAME
 0002:00001E20       GET_SYSTEM_OPTION
 0002:00001E38       INIT_HARPO
 0002:00001FD4       Get_UMB_Info
 0002:00001FF6       Get_Ptr_To_Instance_Data_List
 0002:00001FFD       Get_Device_Info
 0002:00002178       DOSMAX_SHORT
 0002:00002182       DOSMAX_FINDSPAN
 0002:000021AE       DMCH_ArenaTrashed
 0002:000021F2       DOSMAX_SYSCRITINIT
 0002:000022E7       SVM_AllocDOSBuffer_Failed
 0002:00002342       SVM_AllocFontBuffer_Failed
 0002:000023BE       SVM_AssignDeviceV86Pages_Failed
 0002:000023E8       SVM_HookV86Page_Failed
 0002:0000241D       SVM_Hook_HookV86Page_Failed
 0002:00002447       SVM_Hook_CopyPageTable_Failed
 0002:00002471       SVM_Hook_DOSMGRExecVM_Failed
 0002:0000249B       SVM_Hook_VDDPIFState_Failed
 0002:000024D0       SVM_Hook_AGV86DA_Failed
 0002:000024FC       SVM_Shell_Hook_Prop_Failed
 0002:00002526       I10Stub
 0002:00002558       DOSMAX_DEVICEINIT
 0002:00002597       QPOPUP_EVENTPROC_AllocStub_Fail
 0002:000025FB       SVM_DefaultQPE
 0002:00002645       DOSMAX_INITCOMPLETE
 0002:000026A8       UPD_CHECK_WIN
 0002:00002790       PATCH_XGA
 0002:000027F7       EXCLUDE_PVGA
 0002:00002870       HOOK_VDD_SYSCRITINIT
 0002:00002927       CHK_VIDEO_ROMS
 0002:00002A12       SCAN_FOR_SIG
 0002:00002A28       ATTACH_ZMAX
 0002:00002A50       ZMAX_DEVICE_INIT
 0002:00002A80       LoadHi_Sys_Critical_Init
 0002:00002F03       ProcessPageInMonoDispArea
 0002:00002F21       LoadHi_Device_Init
 0002:000030AC       LoadHi_Instance_Device
 0002:000030C7       LoadHi_Instance_From_EDX_Size_E
 0002:00003104       LoadHi_IsDeviceGlobal
 0002:00003139       LH_V86_Fix_Proc
 0002:00003148       LoadHi_Add_Instance_Item
 0002:0000323F       LoadHi_InstanceInitComplete
 0002:00003491       AllocateLoadHi_InstanceMapStruc
 0002:0000352C       LCL_PnP_PMCS
 0002:00003530       LCL_PnP_PMDS
 0002:00003534       FIRST_NONSPAN
 0002:00003538       PMI_PAGE_MAP
 0002:0000355C       RAM_ERRMAP
 0002:00003570       STR_QUALITAS
 0002:000036D8       STR_HARPO
 0002:000036DE       STR_HARPOBREAK
 0002:000036E9       STR_HarpoHookB8
 0002:000036F5       STR_FixupPMBIOS
 0002:00003701       OLD_DOSMGR_Instance_Device
 0002:00003705       CHECK1
 0002:0000371C       NAM_386LOAD
 0002:00003724       MSG_SCI
 0002:0000375D       MSG_REF_PTL_UGH
 0002:000037A7       MSG_CR3_PTL_UGH
 0002:000037E6       MSG_1ST_PTL_UGH
 0002:00003825       MSG_GDPA_UGH
 0002:00003867       MSG_MPTL_UGH
 0002:000038BB       MSG_FLX_PTL_UGH
 0002:00003903       MSG_VS_UGH
 0002:0000393B       MSG_ROMSCAN_UGH
 0002:00003981       MSG_RAMSCAN_UGH
 0002:000039C7       MSG_ADP2_UGH
 0002:00003A0F       MSG_PIV2_UGH
 0002:00003A4E       MSG_MPTL4_UGH
 0002:00003A90       MSG_ROMPAM_UGH
 0002:00003AB6       MSG_ROMPAM_UGH0
 0002:00003ACB       MSG_RAMPAM_HDR
 0002:00003B63       MSG_RAMPAM_UGH
 0002:00003B6C       MSG_RAMPAM_UGH1
 0002:00003B71       MSG_RAMPAM_UGH2
 0002:00003B79       MSG_IDATA_PRESS
 0002:00003B9E       MSG_ROMADP_UGH
 0002:00003BEB       MSG_ROMPIV_UGH
 0002:00003C2F       MSG_MPB_UGH
 0002:00003C76       MSG_NOVHD
 0002:00003C9C       MSG_DOSMAX
 0002:00003CB9       MSG_NU_WRN
 0002:00003CE3       MSG_HVF_UGH
 0002:00003D1B       MSG_CFG_PTL_UGH
 0002:00003D67       MSG_STU_PTL_UGH
 0002:00003DC2       MSG_MPTL3_UGH
 0002:00003E0E       MSG_BAGDTS_UGH
 0002:00003E66       MSG_GDTSNC_UGH
 0002:00003EB9       MSG_FTL_AI01
 0002:00003F0E       MSG_FTL_AI02
 0002:00003F63       MSG_FTL_AI03
 0002:00003FB8       MSG_FTL_AI15
 0002:0000400D       MSG_FTL_AI04
 0002:00004064       MSG_FTL_AI05
 0002:000040C5       MSG_FTL_AI06
 0002:00004129       MSG_FTL_AI07
 0002:00004184       MSG_FTL_AI08
 0002:000041E4       MSG_FTL_AI09
 0002:00004240       MSG_FTL_AI10
 0002:00004295       MSG_INST_LSEG
 0002:000042BB       MSG_FTL_AI18
 0002:0000431B       MSG_FTL_AI11
 0002:00004371       MSG_FTL_AI16
 0002:000043D1       MSG_INST_UMB
 0002:000043F5       MSG_FTL_AI17
 0002:00004451       MSG_FTL_AI14
 0002:000044B0       MSG_VLW1_UGH
 0002:000044F9       MSG_VLW2_UGH
 0002:00004542       MSG_VLW3_UGH
 0002:0000458B       MSG_VLW4_UGH
 0002:000045D4       MSG_VLW5_UGH
 0002:0000461D       MSG_UHAF_UGH
 0002:0000466B       MSG_AUIIF_UGH
 0002:000046BC       MSG_HAF_UGH
 0002:0000470D       MSG_AIIF_UGH
 0002:00004761       MSG_FTL_AI12
 0002:000047C5       MSG_FTL_AI13
 0002:00004824       MSG_NO_WINA20
 0002:00004861       MSG_UPD_UGH1
 0002:000048B5       MSG_UPD_UGH2
 0002:00004909       MSG_MPTL5_UGH
 0002:0000494F       MSG_PnP_PTL_UGH
 0002:00004993       MSG_INST
 0002:000049AE       MSG_INST0
 0002:000049B5       MSG_INST1
 0002:000049BE       MSG_INST_DEV
 0002:000049D9       MSG_INST_DEV0
 0002:000049E0       MSG_INST_DEV1
 0002:000049E9       MSG_INST_NAME
 0002:00004A06       MSG_INST_NAME0
 0002:00004A18       CULL_LIST
 0002:00004C2C       STR_DOSMAX
 0002:00004C33       STR_DOSMAXFONTS
 0002:00004C3F       STR_DOSMAXDEF
 0002:00004C4D       STR_DOSMAXMONO
 0002:00004C58       STR_DOSMAXBREAK
 0002:00004C64       STR_DOSMAXJUGGLE
 0002:00004C74       IZIT_WIN3_MODEL
 0002:00004C83       CHECK_WIN_MODEL
 0003:00000010       RMI_TOHEX
 0003:00000035       RMI_TODEC
 0003:00000050       MSG_PAK
 0003:000000BE       MSG_CRLF
 0003:000000C1       MSG_IMPORT_OPEN
 0003:000000F7       MSG_IMPORT_IOCTL1
 0003:00000146       MSG_IMPORT_NOTCHR
 0003:00000186       MSG_IMPORT_IOCTL2
 0003:000001CA       MSG_IMPORT_IOCTL3
 0003:0000020E       MSG_IMPORT_IOCTL4
 0003:00000252       MSG_IMPORT_INFO
 0003:00000273       MSG_IMPORT_INFO0
 0003:00000275       MSG_IMPORT_INFO1
 0003:0000027B       MSG_IMPORT_INFO2
 0003:00000291       MSG_IMPORT_NULL
 0003:000002C3       MSG_GETREF
 0003:00000312       MSG_PUTREF
 0003:0000035F       MSG_PAKORESC
 0003:0000038E       MSG_16M_NONSUP
 0003:000003E8       MSG_16M_NOXRAM
 0003:00000429       MSG_16M_REDUCE
 0003:0000045C       MSG_SMART_BOV
 0003:0000049A       MSG_SMART_SNS
 0003:00000522       MSG_SMART_SWD
 0003:0000055A       MSG_EMSDC_BOV
 0003:00000597       MSG_INT67
 0003:000005CF       MSG_INT67_H
 0003:000005ED       MSG_EMSDC
 0003:00000644       MSG_NOKRNL
 0003:0000067B       MSG_CHKENV_BOV
 0003:00000686       MSG_PSWD
 0003:0000069E       MSG_DUP_DEVICE
 0003:000006CF       MSG_NOMAX
 0003:00000708       MSG_BADVER
 0003:00000744       MSG_NOSTACKS
 0003:000007BF       MSG_UPD_VER
 0003:000007FB       MSG_UPD_VER0
 0003:000007FD       MSG_UPD_VER1
 0003:00000802       RMI_FLAG
 0003:00000804       INFO_CTL
 0003:00000805       INFO
 0003:0000086B       PAGING_IMPORT
 0003:00000871       EMMNAME
 0003:0000087A       IMPORT_VER
 0003:0000087C       IMPORT_PTR
 0003:00000880       DEV_HNDL
 0003:00000882       QMAX_DSHI
 0003:00000884       QMAX_VER
 0003:00000886       WIN386_VER
 0003:00000888       LOADER_SVC
 0003:0000088C       RMI_BX
 0003:0000088E       REFDATA_LEN
 0003:00000890       REFDATA_VER
 0003:00000892       REF_DATA_PHYS
 0003:00000896       REF_DATA_LIN
 0003:0000089A       RMI_REF_DATA
 0003:00000930       MAXEMS_0
 0003:00000934       MAXEMS_4
 0003:00000935       QMAX_INT67
 0003:00000939       INT67_FUNC
 0003:0000093B       XMS_VEC
 0003:0000093F       ENVNAM_BM
 0003:00000949       ENVSTR_VDS
 0003:0000094D       DEVNAME_SMART
 0003:00000956       FILENAME_SMART
 0003:00000962       SMART_IOCTL
 0003:00000990       STR_PARADISE
 0003:00000998       STR_WDIGITAL
 0003:000009A7       ENVNAM_EC
 0003:000009B0       ENVSTR_OK
 0003:000009B3       ENVNAM_MAXVXD
 0003:000009BA       ENVSTR_DEBUG
 0003:000009C9       STR_RMBRK
 0003:000009DE       LCL_DOSMAX_FLAG
 0003:000009DF       ENVNAM_WINDIR
 0003:000009E6       ENVNAM_PATH
 0003:000009EB       SYSINI_FILE
 0003:000009F7       SYSTEM_PATH
 0003:000009FE       KRNL386_FILE
 0003:00000A0B       STR_386ENH
 0003:00000A13       STR_NETHEAPSIZE
 0003:00000A1F       STR_VIRTUALHIGHDOS
 0003:00000A2E       PATH_BUF
 0003:00000AAE       PATH_BUF_PTR
 0003:00000AB0       LINEBUF
 0003:00000B30       EMS_BUF
 0003:00000D32       PTE_BUF
 0003:00000E32       PTE_BUFZ
 0003:00000E34       PTE_OFFSET
 0003:00000E36       MIN_BUF_PAGES
 0003:00000E38       MIN_MAP_PAGES
 0003:00000E3A       PRIVATE_MAP_PAGES
 0003:00000E3C       VIRTUALHIGHDOS
 0003:00000E3E       NETHEAPSIZE
 0003:00000E40       NETBIOS_BLK
 0003:00000E80       Real_Mode_Hook
 0003:00000FDA       RMI_SHOW_BANNER
 0003:00000FF5       RMI_CHK_MAXVXD
 0003:00001028       RMI_REFDATA_LEN
 0003:00001060       RMI_REFDATA_VER
 0003:00001081       RMI_GET_PAGING_IMPORT
 0003:00001208       RMI_ADJUST_REFDATA_PTR
 0003:0000124F       RMI_GET_DOSVER
 0003:00001271       RMI_GET_REFDATA
 0003:000012EB       RMI_PUT_REFDATA
 0003:0000136B       RMI_CMPSBI
 0003:0000138E       RMI_CMPSBNI
 0003:000013AF       RMI_SKIPWHITE
 0003:000013BC       RMI_SYSINI_FLAGS
 0003:000014A1       RMI_GETDEC
 0003:000014DB       RMI_ISDEC
 0003:000014E3       RMI_PAUSE
 0003:00001513       RMI_GET_WINDIR
 0003:0000154B       RMI_CHK_FLEXROM
 0003:00001588       RMI_CHK_VIDEO
 0003:000016A5       RMI_FIX_VIDEO
 0003:000016F2       RMI_FIX_DRDOS
 0003:00001787       RMI_CALC_PAGES
 0003:00001828       RMI_INT67B
 0003:00001870       RMI_CHK_16M
 0003:000018B7       RMI_SMARTAAR
 0003:0000193D       RMI_CHK_BM
 0003:00001995       RMI_CHK_EMSDISK
 0003:00001BDD       RMI_OPENKRNL
 0003:00001BFC       RMI_GETENV
 0003:00001C3A       RMI_CHKENV
 0003:00001C98       RMI_CHK_DUPVXD
 0003:00001CB2       RMI_DOSMAX
 0003:00001CED       RMI_SCAN_LSEG
 0003:00001D2C       RMI_GETLINE
 0003:00001D87       RMI_MAX_OPEN
 0003:00001E4F       RMI_PHYS2LIN
 0003:00001EFC       RMI_GETPTE
 0003:00001F53       BLOCK_MOVE
 0003:00001FB8       RMI_UPD
 0003:0000204A       DEVNAME_MAX
 0003:00002053       MSG_RMI

Program entry point at 0003:2030
