
 Start  Stop   Length Name                   Class
 00000H 0076BH 0076CH RCODE                  RCODE
 0076CH 0076CH 00000H RDATA                  RDATA
 00770H 00770H 00000H STACK                  PROG
 00770H 00E93H 00724H CODE                   PROG
 00E94H 00E98H 00005H DATA                   DATA
 00EA0H 00EEFH 00050H DATZ                   DATA
 00EF0H 02271H 01382H NCODE                  NCODE
 02274H 02959H 006E6H NDATA                  NDATA
 02960H 02960H 00000H NLSEG                  NDATA
 02960H 031EFH 00890H ACODE                  ZDATA
 031F0H 03463H 00274H ADATA                  ZDATA
 03470H 0350FH 000A0H DTAIL                  ZDATA
 03510H 0352BH 0001CH SEG_LEN                ZDATA
 0352CH 03547H 0001CH SEG_TAB                ZDATA
 03548H 03563H 0001CH SEG_ACT                ZDATA
 03564H 035B1H 0004EH SEG_TXT                ZDATA
 035B2H 04205H 00C54H UCODE                  UCODE
 04208H 04307H 00100H UDATA                  UDATA
 04308H 04327H 00020H ZZTAIL                 ZZDATA

 Origin   Group
 0077:0   PGROUP
 0000:0   RGROUP

  Address         Publics by Name

 0000:0008  Abs  @CFG_CLOSEHI
 0000:0010  Abs  @CFG_CLOSELOW
 0000:0004  Abs  @CFG_DRVSPC
 0000:1000  Abs  @CFG_GSIZE
 0000:0040  Abs  @CFG_PROTMAN
 0000:2040  Abs  @CFG_PTOPF
 0000:2000  Abs  @CFG_TOPF
 0000:0022  Abs  @DCBYTE
 0000:3833  Abs  @GSIZE_PAT1
 0000:4D36  Abs  @GSIZE_PAT2
 0077:3AA7       ALTPATHSEP
 0077:1E58       AZS_ARGS
 0077:1F10       AZS_ERRMAC
 0077:2B8F       AZS_ERRMEM
 0077:2BBE       AZS_EXEC
 0077:2BBE       AZS_FILE
 0077:1F36       AZS_LOADLO
 0077:1F68       AZS_NOLOAD
 0077:2B5B       AZS_NOROOM
 0077:21A9       AZS_NOTPRES
 0077:207C       AZS_PRESS
 0077:2033       AZS_SIZELO
 0077:2C6A       AZS_UGHCHG
 0077:2C8C       AZS_UGHCHG1
 0077:2C9A       AZS_UGHCHG2
 0077:2BEA       AZS_UGHEMS
 0077:2C2A       AZS_UGHROOM
 0077:20BD       AZS_WINERR
 0077:2AC8       AZS_XDOS
 0077:2B40       AZS_XHI
 0077:1F8D       AZS_XHILOAD
 0077:2B03       AZS_XLOW
 0077:209D       AZS_XMAXLOW
 0077:2168       AZS_XVER
 0077:1DB2       BASNAME
 0077:2D01       BAS_SIGN
 0077:2D07       BAS_VER
 0000:0030  Abs  BETA_H
 0000:0030  Abs  BETA_T
 0000:0034  Abs  BETA_U
 0077:336A       BIN2HEX_SUB
 0000:0008  Abs  BINVERS_H
 0000:0003  Abs  BINVERS_TU
 0077:1808       BYT2PAR
 0077:0106       CBLOCKDEV
 0077:3AB8       CFGFILE
 0077:0742       CFGFLAGS
 0077:3AC4       CFGLINE
 0077:3AC4       CFGPATH
 0077:387B       CHECK_DATE
 0077:1836       CHECK_EMSPTE
 0077:31AF       CHECK_MEM
 0077:3843       CHECK_NAME
 0077:1034       CHECK_PATCH
 0077:34D8       CHECK_SETVER
 0077:04CA       CHKLSTLST
 0077:27AC       CHK_DBLSPBACK
 0077:189A       CLEAR_EMSPTE
 0077:331D       CLEAR_MEM
 0077:2D3F       CM2_FLAG
 0077:2DD8       CMDARG_ACT
 0077:2DA0       CMDARG_LEN
 0077:2DBC       CMDARG_TAB
 0077:22D0       CMDCHK_DEVS
 0077:22B2       CMDCHK_DISPLAY
 0077:22E4       CMDCHK_FLEXFRAME
 0077:22BA       CMDCHK_GETSIZE
 0077:22BF       CMDCHK_GROUP
 0077:22C6       CMDCHK_INT
 0077:22CB       CMDCHK_NOPAUSE
 0077:22D7       CMDCHK_PRGREG
 0077:2309       CMDCHK_PROG
 0077:22DE       CMDCHK_QUIET
 0077:22EA       CMDCHK_SIZE
 0077:22FA       CMDCHK_TERSE
 0077:22F2       CMDCHK_VDS
 0077:2D3D       CMD_FLAG
 0077:3B94       COMPSIZE
 0077:3283       COMP_MEM
 0077:07EB       COMSEG
 0077:1D96       CON10
 0077:2775       COPY_LSEG
 0077:32D3       COPY_MEM
 0077:2D57       CURINT67_VEC
 0077:3358       DB2HEX
 0077:2A82       DBLSP_MOD1
 0077:2A9D       DBLSP_MOD1B
 0077:2A92       DBLSP_MOD2
 0077:2AB0       DBLSP_MOD2B
 0077:2ABB       DBLSP_MOD3
 0077:3A17       DD2DEC
 0077:3A82       DD2DEC_DIG
 0077:390E       DEC2BIN
 0077:05BC       DECHAIN_LOADER
 0000:0000       DEVDRV0
 0000:0025       DEVDRV1
 0000:0118       DEVDRV10
 0000:0133       DEVDRV11
 0000:014E       DEVDRV12
 0000:0169       DEVDRV13
 0000:0184       DEVDRV14
 0000:019F       DEVDRV15
 0000:01BA       DEVDRV16
 0000:01D5       DEVDRV17
 0000:01F0       DEVDRV18
 0000:020B       DEVDRV19
 0000:0040       DEVDRV2
 0000:0226       DEVDRV20
 0000:0241       DEVDRV21
 0000:025C       DEVDRV22
 0000:0277       DEVDRV23
 0000:0292       DEVDRV24
 0000:02AD       DEVDRV25
 0000:02C8       DEVDRV26
 0000:02E3       DEVDRV27
 0000:02FE       DEVDRV28
 0000:0319       DEVDRV29
 0000:005B       DEVDRV3
 0000:0334       DEVDRV30
 0000:034F       DEVDRV31
 0000:036A       DEVDRV32
 0000:0385       DEVDRV33
 0000:03A0       DEVDRV34
 0000:03BB       DEVDRV35
 0000:03D6       DEVDRV36
 0000:03F1       DEVDRV37
 0000:040C       DEVDRV38
 0000:0427       DEVDRV39
 0000:0076       DEVDRV4
 0000:0442       DEVDRV40
 0000:045D       DEVDRV41
 0000:0478       DEVDRV42
 0000:0493       DEVDRV43
 0000:04AE       DEVDRV44
 0000:04C9       DEVDRV45
 0000:04E4       DEVDRV46
 0000:04FF       DEVDRV47
 0000:051A       DEVDRV48
 0000:0535       DEVDRV49
 0000:0091       DEVDRV5
 0000:0550       DEVDRV50
 0000:056B       DEVDRV51
 0000:0586       DEVDRV52
 0000:05A1       DEVDRV53
 0000:05BC       DEVDRV54
 0000:05D7       DEVDRV55
 0000:05F2       DEVDRV56
 0000:060D       DEVDRV57
 0000:0628       DEVDRV58
 0000:0643       DEVDRV59
 0000:00AC       DEVDRV6
 0000:065E       DEVDRV60
 0000:0679       DEVDRV61
 0000:0694       DEVDRV62
 0000:06AF       DEVDRV63
 0000:06CA       DEVDRV64
 0000:06E5       DEVDRV65
 0000:0700       DEVDRV66
 0000:071B       DEVDRV67
 0000:0736       DEVDRV68
 0000:0751       DEVDRV69
 0000:00C7       DEVDRV7
 0000:00E2       DEVDRV8
 0000:00FD       DEVDRV9
 0077:0107       DEVDRVTBL
 0077:03F2       DEV_CLEANUP
 0077:1D9C       DEV_HNDL
 0077:0237       DEV_INTR_COM
 0000:0018       DEV_LINTR0
 0000:003D       DEV_LINTR1
 0000:0130       DEV_LINTR10
 0000:014B       DEV_LINTR11
 0000:0166       DEV_LINTR12
 0000:0181       DEV_LINTR13
 0000:019C       DEV_LINTR14
 0000:01B7       DEV_LINTR15
 0000:01D2       DEV_LINTR16
 0000:01ED       DEV_LINTR17
 0000:0208       DEV_LINTR18
 0000:0223       DEV_LINTR19
 0000:0058       DEV_LINTR2
 0000:023E       DEV_LINTR20
 0000:0259       DEV_LINTR21
 0000:0274       DEV_LINTR22
 0000:028F       DEV_LINTR23
 0000:02AA       DEV_LINTR24
 0000:02C5       DEV_LINTR25
 0000:02E0       DEV_LINTR26
 0000:02FB       DEV_LINTR27
 0000:0316       DEV_LINTR28
 0000:0331       DEV_LINTR29
 0000:0073       DEV_LINTR3
 0000:034C       DEV_LINTR30
 0000:0367       DEV_LINTR31
 0000:0382       DEV_LINTR32
 0000:039D       DEV_LINTR33
 0000:03B8       DEV_LINTR34
 0000:03D3       DEV_LINTR35
 0000:03EE       DEV_LINTR36
 0000:0409       DEV_LINTR37
 0000:0424       DEV_LINTR38
 0000:043F       DEV_LINTR39
 0000:008E       DEV_LINTR4
 0000:045A       DEV_LINTR40
 0000:0475       DEV_LINTR41
 0000:0490       DEV_LINTR42
 0000:04AB       DEV_LINTR43
 0000:04C6       DEV_LINTR44
 0000:04E1       DEV_LINTR45
 0000:04FC       DEV_LINTR46
 0000:0517       DEV_LINTR47
 0000:0532       DEV_LINTR48
 0000:054D       DEV_LINTR49
 0000:00A9       DEV_LINTR5
 0000:0568       DEV_LINTR50
 0000:0583       DEV_LINTR51
 0000:059E       DEV_LINTR52
 0000:05B9       DEV_LINTR53
 0000:05D4       DEV_LINTR54
 0000:05EF       DEV_LINTR55
 0000:060A       DEV_LINTR56
 0000:0625       DEV_LINTR57
 0000:0640       DEV_LINTR58
 0000:065B       DEV_LINTR59
 0000:00C4       DEV_LINTR6
 0000:0676       DEV_LINTR60
 0000:0691       DEV_LINTR61
 0000:06AC       DEV_LINTR62
 0000:06C7       DEV_LINTR63
 0000:06E2       DEV_LINTR64
 0000:06FD       DEV_LINTR65
 0000:0718       DEV_LINTR66
 0000:0733       DEV_LINTR67
 0000:074E       DEV_LINTR68
 0000:0769       DEV_LINTR69
 0000:00DF       DEV_LINTR7
 0000:00FA       DEV_LINTR8
 0000:0115       DEV_LINTR9
 0000:0015       DEV_LSTRA0
 0000:003A       DEV_LSTRA1
 0000:012D       DEV_LSTRA10
 0000:0148       DEV_LSTRA11
 0000:0163       DEV_LSTRA12
 0000:017E       DEV_LSTRA13
 0000:0199       DEV_LSTRA14
 0000:01B4       DEV_LSTRA15
 0000:01CF       DEV_LSTRA16
 0000:01EA       DEV_LSTRA17
 0000:0205       DEV_LSTRA18
 0000:0220       DEV_LSTRA19
 0000:0055       DEV_LSTRA2
 0000:023B       DEV_LSTRA20
 0000:0256       DEV_LSTRA21
 0000:0271       DEV_LSTRA22
 0000:028C       DEV_LSTRA23
 0000:02A7       DEV_LSTRA24
 0000:02C2       DEV_LSTRA25
 0000:02DD       DEV_LSTRA26
 0000:02F8       DEV_LSTRA27
 0000:0313       DEV_LSTRA28
 0000:032E       DEV_LSTRA29
 0000:0070       DEV_LSTRA3
 0000:0349       DEV_LSTRA30
 0000:0364       DEV_LSTRA31
 0000:037F       DEV_LSTRA32
 0000:039A       DEV_LSTRA33
 0000:03B5       DEV_LSTRA34
 0000:03D0       DEV_LSTRA35
 0000:03EB       DEV_LSTRA36
 0000:0406       DEV_LSTRA37
 0000:0421       DEV_LSTRA38
 0000:043C       DEV_LSTRA39
 0000:008B       DEV_LSTRA4
 0000:0457       DEV_LSTRA40
 0000:0472       DEV_LSTRA41
 0000:048D       DEV_LSTRA42
 0000:04A8       DEV_LSTRA43
 0000:04C3       DEV_LSTRA44
 0000:04DE       DEV_LSTRA45
 0000:04F9       DEV_LSTRA46
 0000:0514       DEV_LSTRA47
 0000:052F       DEV_LSTRA48
 0000:054A       DEV_LSTRA49
 0000:00A6       DEV_LSTRA5
 0000:0565       DEV_LSTRA50
 0000:0580       DEV_LSTRA51
 0000:059B       DEV_LSTRA52
 0000:05B6       DEV_LSTRA53
 0000:05D1       DEV_LSTRA54
 0000:05EC       DEV_LSTRA55
 0000:0607       DEV_LSTRA56
 0000:0622       DEV_LSTRA57
 0000:063D       DEV_LSTRA58
 0000:0658       DEV_LSTRA59
 0000:00C1       DEV_LSTRA6
 0000:0673       DEV_LSTRA60
 0000:068E       DEV_LSTRA61
 0000:06A9       DEV_LSTRA62
 0000:06C4       DEV_LSTRA63
 0000:06DF       DEV_LSTRA64
 0000:06FA       DEV_LSTRA65
 0000:0715       DEV_LSTRA66
 0000:0730       DEV_LSTRA67
 0000:074B       DEV_LSTRA68
 0000:0766       DEV_LSTRA69
 0000:00DC       DEV_LSTRA7
 0000:00F7       DEV_LSTRA8
 0000:0112       DEV_LSTRA9
 0077:0193       DEV_STRA_COM
 0077:00EE       DH_PTR
 0077:0FD6       DISP_COPY
 0077:0BD0       DISP_ERRMSG
 0077:0C07       DISP_TEXT
 0077:1D98       DOSVER
 0077:00F2       DRVEND_VEC
 0077:0311       DRVSPC_HOOK
 0077:0346       DRVSPC_UNHOOK
 0077:0000       DRVSTART
 0077:00F8       DRV_FLAG
 0077:00FA       DSBACK_PTR
 0077:3361       DW2HEX
 0077:1DA0       EES
 0077:0746       EMMDEV
 0077:2D63       EMMSIZE
 0077:3B14       EMSSAVE
 0077:1D9E       EMS_HNDL
 0077:00F6       END_SEG
 0077:1B0A       EXEC_BLK
 0077:1B08       EXEC_INTMAC
 0077:1B0A       EXEC_LOD
 0077:1D90       EXEC_LODLO
 0077:1E44       EXEC_PRGMAC
 0077:1E48       EXEC_PRGNPAR
 0077:0740       EXEC_PSP
 0077:1B0C       EXEC_REL
 0077:1D92       EXE_NPAR
 0077:1E18       F0MOD
 0077:1E25       F0MOD_JC
 0077:1E1D       F0MOD_OFF1
 0077:1E21       F0MOD_OFF2
 0077:21F0       FCN_DEVS
 0077:0B90       FCN_DISPLAY
 0077:3390       FCN_FLEXFRAME
 0077:33B9       FCN_GETSIZE
 0077:33ED       FCN_GROUP
 0077:3418       FCN_INT
 0077:3421       FCN_NOPAUSE
 0077:342A       FCN_PRGREG
 0077:345B       FCN_QUIET
 0077:3464       FCN_SIZE
 0077:34D0       FCN_VDS
 0077:1E28       FILE_HEAD
 0077:1797       FILL_MEM
 0077:286A       FIND_BASE
 0077:255E       FIND_MEM
 0077:15C5       FIND_MIS
 0077:191D       FIND_OWNER
 0077:1565       FIND_PAT
 0077:14DD       FIND_REGION
 0077:30ED       FMT_CHG
 0077:26FA       FM_JMP_HI
 0077:33B1       FORCE_GETSIZE
 0077:2D81       FRAMESEG
 0077:36F3       GETLINE
 0077:195A       GETMEM
 0077:152E       GETMEM_REG
 0077:1972       GETMEM_SRCH
 0077:19F3       GETMEM_SUB
 0077:355E       GETPARAS
 0077:15F8       GETSIZE
 0077:0776       GETSIZE_IDELTA
 0077:0774       GETSIZE_RDELTA
 0077:2D90       GTAIL
 0077:24C1       HMALLOC
 0077:0772       HSIZE_DELTA
 0077:1D86       I12_DELTA
 0077:3B98       IDENTIFY
 0077:2D01       INFO
 0000:0066  Abs  INFOSIZE
 0077:2D00       INFO_CTL
 0077:1218       INFO_READ
 0077:1245       INFO_WRITE
 0077:0C89       INITIAL
 0077:223A       INIT_PARMS
 0077:0F6F       INST24
 0077:2E42       INST67
 0077:0821       INSTALL
 0077:09CE       INSTALL_LOW
 0077:2E98       INST_EMS
 0077:0074       INT21
 0077:11E3       INT23
 0077:11E4       INT24
 0077:0734       INT2F_TEMP
 0077:0753       INT67
 0077:06C7       INT_NPAR
 0077:3A9A       INVALID_FID
 0077:296D       IZITEMS
 0077:13E7       KEYWAIT
 0077:1D94       LC2_FLAG
 0077:1B2E       LCLINT24_VEC
 0077:1B32       LCL_FID
 0077:1B04       LCL_FLAG
 0077:0F57       LCL_INT24
 0077:036A       LCL_INT2F
 0077:1B32       LCL_PATH
 0077:1E54       LENPARA
 0077:1334       LINK_LSEG
 0077:126D       LINK_TLSEG
 0077:0AEF       LOADHI
 0077:0953       LOADLOW
 0077:2D43       LOADSEG
 0077:3977       LOADSIZE
 0077:394D       LOADSUB
 0077:3903       LOWERCASE
 0000:0020       LOW_INTR_COM
 0000:001B       LOW_STRA_COM
 0077:00FE       LPBDBLSPACE_MOVED
 0077:0102       LPBLOCAL_DRIVECOUNT
 0077:0000       LSEG
 0077:1B24       LSEGSEG
 0077:006F       LSEG_TAIL
 0077:00EA       LSEG_TAIL4
 0077:21E9       MACALG
 0077:21E8       MACLOC
 0077:1AD2       MAC_FREE
 0077:1180       MAC_MERGE
 0077:2CBC       MAPTAB
 0077:1E52       MAXPARA
 0077:2D53       MGRINT21_VEC
 0077:0770       MIN_HOLE
 0077:1A2E       MODMEM
 0077:2541       MOVE_PRG
 0077:2D39       MSC_FLAG
 0077:20E5       MSG_COPY
 0077:1DBC       MSG_CRLF
 0077:1B26       MSG_DEVICE
 0000:000E  Abs  NCMDARGS
 0077:13F8       NEWLINE
 0077:2A80       NEXTAVL
 0077:2CEC       NMAPS
 0077:1426       NOLOAD_PRESS
 0077:0FB3       NR_INT21
 0077:3AA8       NUMBERS_HI
 0077:2D29       OLDDOS
 0077:0780       OLDINT12
 0077:006F       OLDINT21_VEC
 0077:1D88       OLDINT23_VEC
 0077:1D8C       OLDINT24_VEC
 0077:0730       OLDINT2F_VEC
 0077:074F       OLDINT67_PATCH
 0077:076A       OLDINT67_VEC
 0077:1B82       OLDSTK_VEC
 0077:2D83       ONEPTE
 0077:23A9       OPEN_FILE
 0077:1B06       OPT_FLAG
 0077:2D2F       P1ST_MAC
 0077:2CF0       PAACNT
 0077:2CEE       PAAOFF
 0077:17F9       PAR2BYT
 0077:1B20       PARG_VEC
 0077:374E       PARSE_FLAGS
 0077:0744       PATCHFLAGS
 0077:1B12       PATH_END
 0077:1B14       PCURDEV
 0077:1B08       PDEVEND
 0077:1B0E       PDEV_VEC
 0077:1B1A       PFID_LEN
 0077:1B18       PFID_NAM
 0077:1B16       PFID_OFF
 0077:1B1C       PFID_ROOM
 0077:3BB4       PIDENT
 0077:2D25       PORT67
 0077:2D3B       POVR_MAC
 0077:3A98       PREVMAC
 0077:1DBB       PRGREG
 0077:1E4E       PRGSIZE
 0077:1DBF       PROT_NAME
 0077:2D0B       QMAX_OWNR
 0077:3570       READCFG
 0077:3209       RELO_MEM
 0077:1818       REROUTE_I67
 0077:1E56       RESPARA
 0077:0F96       REST24
 0077:1448       REST67
 0077:11FB       REST_2324
 0077:2FBD       REST_EMS
 0077:03BA       REST_INIT_END_VEC
 0077:07DA       REST_INT12
 0077:0079       RES_INT21
 0077:0032       RES_INTR_COM
 0077:0054       RES_INTR_DEF
 0077:0061       RES_STRA_COM
 0077:00EA       RH_VEC
 0077:3178       SAVE_2324
 0077:03D6       SAVE_INIT_END_VEC
 0077:0782       SAVE_INT12
 0077:0049       SBO_HPTR
 0077:0041       SBO_THOFF
 0077:0FF8       SEARCH_MODEL
 0077:148C       SET_EES
 0077:0C26       SET_END_SEG
 0077:29A3       SET_MAPTAB
 0077:3135       SKIP_FID
 0077:1175       SKIP_WHITE
 0077:0740       START_DATZ
 0077:1E4A       STKSIZE
 0077:353A       STRNICMP
 0077:0043       TARG_SEG
 0077:1B86       TEMPSTK
 0077:1D86       TEMPSTKZ
 0077:0075       TMPINT21_VEC
 0077:1E46       TOPFILL
 0077:1070       TOPFILL_CHECK
 0077:2CF2       TOTEMS
 0077:0073       UDDPB_CNT
 0077:1DC8       UMBSEGS
 0077:12C7       UNLINK_TLSEG
 0077:1818       UNROUTE_I67
 0000:0323  Abs  VER
 0000:0008  Abs  VERH
 0000:0003  Abs  VERL
 0000:0020  Abs  VERSLTR1
 0000:00CD  Abs  VERSLTR2
 0000:0038  Abs  VERS_H
 0000:0803  Abs  VERS_HTU
 0000:0030  Abs  VERS_T
 0000:0033  Abs  VERS_U
 0077:312A       WAITFF
 0077:0705       WINOUT
 0077:06C9       WINOUT_INIT
 0077:0728       WINRUN
 0077:0724       WINVXD_VEC
 0077:1D9A       XDOSVER
 0077:3BB8       ZTAIL

  Address         Publics by Value

 0000:0000       DEVDRV0
 0000:0003  Abs  VERL
 0000:0003  Abs  BINVERS_TU
 0000:0004  Abs  @CFG_DRVSPC
 0000:0008  Abs  BINVERS_H
 0000:0008  Abs  @CFG_CLOSEHI
 0000:0008  Abs  VERH
 0000:000E  Abs  NCMDARGS
 0000:0010  Abs  @CFG_CLOSELOW
 0000:0015       DEV_LSTRA0
 0000:0018       DEV_LINTR0
 0000:001B       LOW_STRA_COM
 0000:0020  Abs  VERSLTR1
 0000:0020       LOW_INTR_COM
 0000:0022  Abs  @DCBYTE
 0000:0025       DEVDRV1
 0000:0030  Abs  VERS_T
 0000:0030  Abs  BETA_T
 0000:0030  Abs  BETA_H
 0000:0033  Abs  VERS_U
 0000:0034  Abs  BETA_U
 0000:0038  Abs  VERS_H
 0000:003A       DEV_LSTRA1
 0000:003D       DEV_LINTR1
 0000:0040       DEVDRV2
 0000:0040  Abs  @CFG_PROTMAN
 0000:0055       DEV_LSTRA2
 0000:0058       DEV_LINTR2
 0000:005B       DEVDRV3
 0000:0066  Abs  INFOSIZE
 0000:0070       DEV_LSTRA3
 0000:0073       DEV_LINTR3
 0000:0076       DEVDRV4
 0000:008B       DEV_LSTRA4
 0000:008E       DEV_LINTR4
 0000:0091       DEVDRV5
 0000:00A6       DEV_LSTRA5
 0000:00A9       DEV_LINTR5
 0000:00AC       DEVDRV6
 0000:00C1       DEV_LSTRA6
 0000:00C4       DEV_LINTR6
 0000:00C7       DEVDRV7
 0000:00CD  Abs  VERSLTR2
 0000:00DC       DEV_LSTRA7
 0000:00DF       DEV_LINTR7
 0000:00E2       DEVDRV8
 0000:00F7       DEV_LSTRA8
 0000:00FA       DEV_LINTR8
 0000:00FD       DEVDRV9
 0000:0112       DEV_LSTRA9
 0000:0115       DEV_LINTR9
 0000:0118       DEVDRV10
 0000:012D       DEV_LSTRA10
 0000:0130       DEV_LINTR10
 0000:0133       DEVDRV11
 0000:0148       DEV_LSTRA11
 0000:014B       DEV_LINTR11
 0000:014E       DEVDRV12
 0000:0163       DEV_LSTRA12
 0000:0166       DEV_LINTR12
 0000:0169       DEVDRV13
 0000:017E       DEV_LSTRA13
 0000:0181       DEV_LINTR13
 0000:0184       DEVDRV14
 0000:0199       DEV_LSTRA14
 0000:019C       DEV_LINTR14
 0000:019F       DEVDRV15
 0000:01B4       DEV_LSTRA15
 0000:01B7       DEV_LINTR15
 0000:01BA       DEVDRV16
 0000:01CF       DEV_LSTRA16
 0000:01D2       DEV_LINTR16
 0000:01D5       DEVDRV17
 0000:01EA       DEV_LSTRA17
 0000:01ED       DEV_LINTR17
 0000:01F0       DEVDRV18
 0000:0205       DEV_LSTRA18
 0000:0208       DEV_LINTR18
 0000:020B       DEVDRV19
 0000:0220       DEV_LSTRA19
 0000:0223       DEV_LINTR19
 0000:0226       DEVDRV20
 0000:023B       DEV_LSTRA20
 0000:023E       DEV_LINTR20
 0000:0241       DEVDRV21
 0000:0256       DEV_LSTRA21
 0000:0259       DEV_LINTR21
 0000:025C       DEVDRV22
 0000:0271       DEV_LSTRA22
 0000:0274       DEV_LINTR22
 0000:0277       DEVDRV23
 0000:028C       DEV_LSTRA23
 0000:028F       DEV_LINTR23
 0000:0292       DEVDRV24
 0000:02A7       DEV_LSTRA24
 0000:02AA       DEV_LINTR24
 0000:02AD       DEVDRV25
 0000:02C2       DEV_LSTRA25
 0000:02C5       DEV_LINTR25
 0000:02C8       DEVDRV26
 0000:02DD       DEV_LSTRA26
 0000:02E0       DEV_LINTR26
 0000:02E3       DEVDRV27
 0000:02F8       DEV_LSTRA27
 0000:02FB       DEV_LINTR27
 0000:02FE       DEVDRV28
 0000:0313       DEV_LSTRA28
 0000:0316       DEV_LINTR28
 0000:0319       DEVDRV29
 0000:0323  Abs  VER
 0000:032E       DEV_LSTRA29
 0000:0331       DEV_LINTR29
 0000:0334       DEVDRV30
 0000:0349       DEV_LSTRA30
 0000:034C       DEV_LINTR30
 0000:034F       DEVDRV31
 0000:0364       DEV_LSTRA31
 0000:0367       DEV_LINTR31
 0000:036A       DEVDRV32
 0000:037F       DEV_LSTRA32
 0000:0382       DEV_LINTR32
 0000:0385       DEVDRV33
 0000:039A       DEV_LSTRA33
 0000:039D       DEV_LINTR33
 0000:03A0       DEVDRV34
 0000:03B5       DEV_LSTRA34
 0000:03B8       DEV_LINTR34
 0000:03BB       DEVDRV35
 0000:03D0       DEV_LSTRA35
 0000:03D3       DEV_LINTR35
 0000:03D6       DEVDRV36
 0000:03EB       DEV_LSTRA36
 0000:03EE       DEV_LINTR36
 0000:03F1       DEVDRV37
 0000:0406       DEV_LSTRA37
 0000:0409       DEV_LINTR37
 0000:040C       DEVDRV38
 0000:0421       DEV_LSTRA38
 0000:0424       DEV_LINTR38
 0000:0427       DEVDRV39
 0000:043C       DEV_LSTRA39
 0000:043F       DEV_LINTR39
 0000:0442       DEVDRV40
 0000:0457       DEV_LSTRA40
 0000:045A       DEV_LINTR40
 0000:045D       DEVDRV41
 0000:0472       DEV_LSTRA41
 0000:0475       DEV_LINTR41
 0000:0478       DEVDRV42
 0000:048D       DEV_LSTRA42
 0000:0490       DEV_LINTR42
 0000:0493       DEVDRV43
 0000:04A8       DEV_LSTRA43
 0000:04AB       DEV_LINTR43
 0000:04AE       DEVDRV44
 0000:04C3       DEV_LSTRA44
 0000:04C6       DEV_LINTR44
 0000:04C9       DEVDRV45
 0000:04DE       DEV_LSTRA45
 0000:04E1       DEV_LINTR45
 0000:04E4       DEVDRV46
 0000:04F9       DEV_LSTRA46
 0000:04FC       DEV_LINTR46
 0000:04FF       DEVDRV47
 0000:0514       DEV_LSTRA47
 0000:0517       DEV_LINTR47
 0000:051A       DEVDRV48
 0000:052F       DEV_LSTRA48
 0000:0532       DEV_LINTR48
 0000:0535       DEVDRV49
 0000:054A       DEV_LSTRA49
 0000:054D       DEV_LINTR49
 0000:0550       DEVDRV50
 0000:0565       DEV_LSTRA50
 0000:0568       DEV_LINTR50
 0000:056B       DEVDRV51
 0000:0580       DEV_LSTRA51
 0000:0583       DEV_LINTR51
 0000:0586       DEVDRV52
 0000:059B       DEV_LSTRA52
 0000:059E       DEV_LINTR52
 0000:05A1       DEVDRV53
 0000:05B6       DEV_LSTRA53
 0000:05B9       DEV_LINTR53
 0000:05BC       DEVDRV54
 0000:05D1       DEV_LSTRA54
 0000:05D4       DEV_LINTR54
 0000:05D7       DEVDRV55
 0000:05EC       DEV_LSTRA55
 0000:05EF       DEV_LINTR55
 0000:05F2       DEVDRV56
 0000:0607       DEV_LSTRA56
 0000:060A       DEV_LINTR56
 0000:060D       DEVDRV57
 0000:0622       DEV_LSTRA57
 0000:0625       DEV_LINTR57
 0000:0628       DEVDRV58
 0000:063D       DEV_LSTRA58
 0000:0640       DEV_LINTR58
 0000:0643       DEVDRV59
 0000:0658       DEV_LSTRA59
 0000:065B       DEV_LINTR59
 0000:065E       DEVDRV60
 0000:0673       DEV_LSTRA60
 0000:0676       DEV_LINTR60
 0000:0679       DEVDRV61
 0000:068E       DEV_LSTRA61
 0000:0691       DEV_LINTR61
 0000:0694       DEVDRV62
 0000:06A9       DEV_LSTRA62
 0000:06AC       DEV_LINTR62
 0000:06AF       DEVDRV63
 0000:06C4       DEV_LSTRA63
 0000:06C7       DEV_LINTR63
 0000:06CA       DEVDRV64
 0000:06DF       DEV_LSTRA64
 0000:06E2       DEV_LINTR64
 0000:06E5       DEVDRV65
 0000:06FA       DEV_LSTRA65
 0000:06FD       DEV_LINTR65
 0000:0700       DEVDRV66
 0000:0715       DEV_LSTRA66
 0000:0718       DEV_LINTR66
 0000:071B       DEVDRV67
 0000:0730       DEV_LSTRA67
 0000:0733       DEV_LINTR67
 0000:0736       DEVDRV68
 0000:074B       DEV_LSTRA68
 0000:074E       DEV_LINTR68
 0000:0751       DEVDRV69
 0000:0766       DEV_LSTRA69
 0000:0769       DEV_LINTR69
 0077:0000       LSEG
 0077:0000       DRVSTART
 0077:0032       RES_INTR_COM
 0077:0041       SBO_THOFF
 0077:0043       TARG_SEG
 0077:0049       SBO_HPTR
 0077:0054       RES_INTR_DEF
 0077:0061       RES_STRA_COM
 0077:006F       LSEG_TAIL
 0077:006F       OLDINT21_VEC
 0077:0073       UDDPB_CNT
 0077:0074       INT21
 0077:0075       TMPINT21_VEC
 0077:0079       RES_INT21
 0000:0803  Abs  VERS_HTU
 0077:00EA       RH_VEC
 0077:00EA       LSEG_TAIL4
 0077:00EE       DH_PTR
 0077:00F2       DRVEND_VEC
 0077:00F6       END_SEG
 0077:00F8       DRV_FLAG
 0077:00FA       DSBACK_PTR
 0077:00FE       LPBDBLSPACE_MOVED
 0077:0102       LPBLOCAL_DRIVECOUNT
 0077:0106       CBLOCKDEV
 0077:0107       DEVDRVTBL
 0077:0193       DEV_STRA_COM
 0077:0237       DEV_INTR_COM
 0077:0311       DRVSPC_HOOK
 0077:0346       DRVSPC_UNHOOK
 0077:036A       LCL_INT2F
 0077:03BA       REST_INIT_END_VEC
 0077:03D6       SAVE_INIT_END_VEC
 0077:03F2       DEV_CLEANUP
 0077:04CA       CHKLSTLST
 0077:05BC       DECHAIN_LOADER
 0077:06C7       INT_NPAR
 0077:06C9       WINOUT_INIT
 0077:0705       WINOUT
 0077:0724       WINVXD_VEC
 0077:0728       WINRUN
 0077:0730       OLDINT2F_VEC
 0077:0734       INT2F_TEMP
 0077:0740       START_DATZ
 0077:0740       EXEC_PSP
 0077:0742       CFGFLAGS
 0077:0744       PATCHFLAGS
 0077:0746       EMMDEV
 0077:074F       OLDINT67_PATCH
 0077:0753       INT67
 0077:076A       OLDINT67_VEC
 0077:0770       MIN_HOLE
 0077:0772       HSIZE_DELTA
 0077:0774       GETSIZE_RDELTA
 0077:0776       GETSIZE_IDELTA
 0077:0780       OLDINT12
 0077:0782       SAVE_INT12
 0077:07DA       REST_INT12
 0077:07EB       COMSEG
 0077:0821       INSTALL
 0000:1000  Abs  @CFG_GSIZE
 0077:0953       LOADLOW
 0077:09CE       INSTALL_LOW
 0077:0AEF       LOADHI
 0077:0B90       FCN_DISPLAY
 0077:0BD0       DISP_ERRMSG
 0077:0C07       DISP_TEXT
 0077:0C26       SET_END_SEG
 0077:0C89       INITIAL
 0077:0F57       LCL_INT24
 0077:0F6F       INST24
 0077:0F96       REST24
 0077:0FB3       NR_INT21
 0077:0FD6       DISP_COPY
 0077:0FF8       SEARCH_MODEL
 0077:1034       CHECK_PATCH
 0077:1070       TOPFILL_CHECK
 0077:1175       SKIP_WHITE
 0077:1180       MAC_MERGE
 0077:11E3       INT23
 0077:11E4       INT24
 0077:11FB       REST_2324
 0077:1218       INFO_READ
 0077:1245       INFO_WRITE
 0077:126D       LINK_TLSEG
 0077:12C7       UNLINK_TLSEG
 0077:1334       LINK_LSEG
 0077:13E7       KEYWAIT
 0077:13F8       NEWLINE
 0077:1426       NOLOAD_PRESS
 0077:1448       REST67
 0077:148C       SET_EES
 0077:14DD       FIND_REGION
 0077:152E       GETMEM_REG
 0077:1565       FIND_PAT
 0077:15C5       FIND_MIS
 0077:15F8       GETSIZE
 0077:1797       FILL_MEM
 0077:17F9       PAR2BYT
 0077:1808       BYT2PAR
 0077:1818       UNROUTE_I67
 0077:1818       REROUTE_I67
 0077:1836       CHECK_EMSPTE
 0000:2000  Abs  @CFG_TOPF
 0077:189A       CLEAR_EMSPTE
 0000:2040  Abs  @CFG_PTOPF
 0077:191D       FIND_OWNER
 0077:195A       GETMEM
 0077:1972       GETMEM_SRCH
 0077:19F3       GETMEM_SUB
 0077:1A2E       MODMEM
 0077:1AD2       MAC_FREE
 0077:1B04       LCL_FLAG
 0077:1B06       OPT_FLAG
 0077:1B08       EXEC_INTMAC
 0077:1B08       PDEVEND
 0077:1B0A       EXEC_BLK
 0077:1B0A       EXEC_LOD
 0077:1B0C       EXEC_REL
 0077:1B0E       PDEV_VEC
 0077:1B12       PATH_END
 0077:1B14       PCURDEV
 0077:1B16       PFID_OFF
 0077:1B18       PFID_NAM
 0077:1B1A       PFID_LEN
 0077:1B1C       PFID_ROOM
 0077:1B20       PARG_VEC
 0077:1B24       LSEGSEG
 0077:1B26       MSG_DEVICE
 0077:1B2E       LCLINT24_VEC
 0077:1B32       LCL_FID
 0077:1B32       LCL_PATH
 0077:1B82       OLDSTK_VEC
 0077:1B86       TEMPSTK
 0077:1D86       I12_DELTA
 0077:1D86       TEMPSTKZ
 0077:1D88       OLDINT23_VEC
 0077:1D8C       OLDINT24_VEC
 0077:1D90       EXEC_LODLO
 0077:1D92       EXE_NPAR
 0077:1D94       LC2_FLAG
 0077:1D96       CON10
 0077:1D98       DOSVER
 0077:1D9A       XDOSVER
 0077:1D9C       DEV_HNDL
 0077:1D9E       EMS_HNDL
 0077:1DA0       EES
 0077:1DB2       BASNAME
 0077:1DBB       PRGREG
 0077:1DBC       MSG_CRLF
 0077:1DBF       PROT_NAME
 0077:1DC8       UMBSEGS
 0077:1E18       F0MOD
 0077:1E1D       F0MOD_OFF1
 0077:1E21       F0MOD_OFF2
 0077:1E25       F0MOD_JC
 0077:1E28       FILE_HEAD
 0077:1E44       EXEC_PRGMAC
 0077:1E46       TOPFILL
 0077:1E48       EXEC_PRGNPAR
 0077:1E4A       STKSIZE
 0077:1E4E       PRGSIZE
 0077:1E52       MAXPARA
 0077:1E54       LENPARA
 0077:1E56       RESPARA
 0077:1E58       AZS_ARGS
 0077:1F10       AZS_ERRMAC
 0077:1F36       AZS_LOADLO
 0077:1F68       AZS_NOLOAD
 0077:1F8D       AZS_XHILOAD
 0077:2033       AZS_SIZELO
 0077:207C       AZS_PRESS
 0077:209D       AZS_XMAXLOW
 0077:20BD       AZS_WINERR
 0077:20E5       MSG_COPY
 0077:2168       AZS_XVER
 0077:21A9       AZS_NOTPRES
 0077:21E8       MACLOC
 0077:21E9       MACALG
 0077:21F0       FCN_DEVS
 0077:223A       INIT_PARMS
 0077:22B2       CMDCHK_DISPLAY
 0077:22BA       CMDCHK_GETSIZE
 0077:22BF       CMDCHK_GROUP
 0077:22C6       CMDCHK_INT
 0077:22CB       CMDCHK_NOPAUSE
 0077:22D0       CMDCHK_DEVS
 0077:22D7       CMDCHK_PRGREG
 0077:22DE       CMDCHK_QUIET
 0077:22E4       CMDCHK_FLEXFRAME
 0077:22EA       CMDCHK_SIZE
 0077:22F2       CMDCHK_VDS
 0077:22FA       CMDCHK_TERSE
 0077:2309       CMDCHK_PROG
 0077:23A9       OPEN_FILE
 0077:24C1       HMALLOC
 0077:2541       MOVE_PRG
 0077:255E       FIND_MEM
 0077:26FA       FM_JMP_HI
 0077:2775       COPY_LSEG
 0077:27AC       CHK_DBLSPBACK
 0077:286A       FIND_BASE
 0077:296D       IZITEMS
 0077:29A3       SET_MAPTAB
 0077:2A80       NEXTAVL
 0077:2A82       DBLSP_MOD1
 0077:2A92       DBLSP_MOD2
 0077:2A9D       DBLSP_MOD1B
 0077:2AB0       DBLSP_MOD2B
 0077:2ABB       DBLSP_MOD3
 0077:2AC8       AZS_XDOS
 0077:2B03       AZS_XLOW
 0077:2B40       AZS_XHI
 0077:2B5B       AZS_NOROOM
 0077:2B8F       AZS_ERRMEM
 0077:2BBE       AZS_FILE
 0077:2BBE       AZS_EXEC
 0077:2BEA       AZS_UGHEMS
 0077:2C2A       AZS_UGHROOM
 0077:2C6A       AZS_UGHCHG
 0077:2C8C       AZS_UGHCHG1
 0077:2C9A       AZS_UGHCHG2
 0077:2CBC       MAPTAB
 0077:2CEC       NMAPS
 0077:2CEE       PAAOFF
 0077:2CF0       PAACNT
 0077:2CF2       TOTEMS
 0077:2D00       INFO_CTL
 0077:2D01       BAS_SIGN
 0077:2D01       INFO
 0077:2D07       BAS_VER
 0077:2D0B       QMAX_OWNR
 0077:2D25       PORT67
 0077:2D29       OLDDOS
 0077:2D2F       P1ST_MAC
 0077:2D39       MSC_FLAG
 0077:2D3B       POVR_MAC
 0077:2D3D       CMD_FLAG
 0077:2D3F       CM2_FLAG
 0077:2D43       LOADSEG
 0077:2D53       MGRINT21_VEC
 0077:2D57       CURINT67_VEC
 0077:2D63       EMMSIZE
 0077:2D81       FRAMESEG
 0077:2D83       ONEPTE
 0077:2D90       GTAIL
 0077:2DA0       CMDARG_LEN
 0077:2DBC       CMDARG_TAB
 0077:2DD8       CMDARG_ACT
 0077:2E42       INST67
 0077:2E98       INST_EMS
 0077:2FBD       REST_EMS
 0000:3833  Abs  @GSIZE_PAT1
 0077:30ED       FMT_CHG
 0077:312A       WAITFF
 0077:3135       SKIP_FID
 0077:3178       SAVE_2324
 0077:31AF       CHECK_MEM
 0077:3209       RELO_MEM
 0077:3283       COMP_MEM
 0077:32D3       COPY_MEM
 0077:331D       CLEAR_MEM
 0077:3358       DB2HEX
 0077:3361       DW2HEX
 0077:336A       BIN2HEX_SUB
 0077:3390       FCN_FLEXFRAME
 0077:33B1       FORCE_GETSIZE
 0077:33B9       FCN_GETSIZE
 0077:33ED       FCN_GROUP
 0077:3418       FCN_INT
 0077:3421       FCN_NOPAUSE
 0077:342A       FCN_PRGREG
 0077:345B       FCN_QUIET
 0077:3464       FCN_SIZE
 0077:34D0       FCN_VDS
 0077:34D8       CHECK_SETVER
 0077:353A       STRNICMP
 0077:355E       GETPARAS
 0077:3570       READCFG
 0077:36F3       GETLINE
 0077:374E       PARSE_FLAGS
 0077:3843       CHECK_NAME
 0077:387B       CHECK_DATE
 0077:3903       LOWERCASE
 0077:390E       DEC2BIN
 0077:394D       LOADSUB
 0077:3977       LOADSIZE
 0077:3A17       DD2DEC
 0077:3A82       DD2DEC_DIG
 0077:3A98       PREVMAC
 0077:3A9A       INVALID_FID
 0077:3AA7       ALTPATHSEP
 0077:3AA8       NUMBERS_HI
 0077:3AB8       CFGFILE
 0077:3AC4       CFGPATH
 0077:3AC4       CFGLINE
 0077:3B14       EMSSAVE
 0077:3B94       COMPSIZE
 0077:3B98       IDENTIFY
 0077:3BB4       PIDENT
 0077:3BB8       ZTAIL
 0000:4D36  Abs  @GSIZE_PAT2

Line numbers for RET\DRVCOM.OBJ(.\DRVCOM.asm) segment CODE

   260 0077:0032   261 0077:0033   262 0077:0034   264 0077:0036
   265 0077:0037   266 0077:003a   269 0077:003c   271 0077:003f
   277 0077:0042   280 0077:0045   283 0077:0047   288 0077:004a
   289 0077:004d   291 0077:0050   294 0077:0051   296 0077:0052
   301 0077:0054   302 0077:005a   304 0077:0060   321 0077:0061
   322 0077:0067   323 0077:006d   359 0077:0079   360 0077:007f
   362 0077:0081   364 0077:0086   365 0077:0088   366 0077:0089
   369 0077:008e   372 0077:0091   375 0077:0095   376 0077:0098
   378 0077:009a   379 0077:00a0   381 0077:00a2   384 0077:00a6
   385 0077:00a9   386 0077:00ad   387 0077:00b1   389 0077:00b5
   391 0077:00bb   392 0077:00c0   394 0077:00c2   395 0077:00c3
   397 0077:00c4   398 0077:00c8   400 0077:00cc   401 0077:00d0
   403 0077:00d4   406 0077:00d5   409 0077:00da   410 0077:00dd
   412 0077:00df   414 0077:00e5   580 0077:0193   581 0077:0194
   582 0077:0195   583 0077:0197   585 0077:0198   587 0077:019b
   588 0077:019e   591 0077:01a0   593 0077:01a4   594 0077:01a8
   596 0077:01aa   597 0077:01ad   600 0077:01b2   602 0077:01b5
   604 0077:01b7   606 0077:01ba   608 0077:01bb   610 0077:01be
   613 0077:01c0   614 0077:01c1   616 0077:01c2   618 0077:01c4
   625 0077:01c5   626 0077:01c8   628 0077:01cb   629 0077:01cc
   631 0077:01cd   633 0077:01d1   634 0077:01d6   636 0077:01db
   637 0077:01e0   644 0077:01e5   646 0077:01e8   647 0077:01ef
   649 0077:01f1   650 0077:01f8   656 0077:01fa   657 0077:01fd
   660 0077:01ff   661 0077:0202   662 0077:0205   663 0077:0208
   665 0077:020b   667 0077:020e   668 0077:0211   671 0077:0216
   673 0077:0219   674 0077:021a   675 0077:021b   677 0077:021d
   679 0077:021f   681 0077:0222   683 0077:0225   686 0077:0228
   687 0077:022b   688 0077:022e   689 0077:0231   691 0077:0234
   694 0077:0235   696 0077:0236   712 0077:0237   713 0077:0238
   714 0077:0239   715 0077:023b   717 0077:023c   719 0077:023f
   720 0077:0242   723 0077:0244   725 0077:0248   726 0077:024c
   728 0077:024e   729 0077:0251   732 0077:0256   734 0077:0259
   736 0077:025b   738 0077:025e   740 0077:025f   742 0077:0262
   745 0077:0264   746 0077:0265   748 0077:0266   750 0077:0268
   755 0077:0269   756 0077:026a   758 0077:026b   760 0077:026f
   761 0077:0274   763 0077:0279   764 0077:0280   766 0077:0282
   768 0077:0285   770 0077:0288   772 0077:028b   773 0077:0292
   775 0077:0294   776 0077:0297   777 0077:029a   778 0077:029d
   780 0077:02a0   784 0077:02a4   785 0077:02a7   786 0077:02a9
   787 0077:02aa   789 0077:02ab   790 0077:02b2   792 0077:02b4
   793 0077:02b6   794 0077:02b9   796 0077:02bb   797 0077:02be
   800 0077:02c3   801 0077:02c4   803 0077:02c7   805 0077:02c9
   807 0077:02cb   809 0077:02ce   811 0077:02d1   813 0077:02d2
   814 0077:02d3   815 0077:02d6   816 0077:02d8   818 0077:02d9
   821 0077:02dd   822 0077:02e0   823 0077:02e3   824 0077:02e6
   826 0077:02e9   828 0077:02ec   832 0077:02ee   834 0077:02f3
   835 0077:02f7   837 0077:02fc   840 0077:0301   841 0077:0303
   842 0077:0306   843 0077:030b   845 0077:030e   848 0077:030f
   850 0077:0310   868 0077:0311   870 0077:0316   871 0077:031d
   873 0077:031f   874 0077:0326   876 0077:0328   877 0077:0329
   880 0077:032a   881 0077:032c   885 0077:0330   886 0077:0334
   888 0077:0338   890 0077:0340   893 0077:0345   911 0077:0346
   913 0077:0349   914 0077:0350   916 0077:0352   917 0077:0359
   919 0077:035b   920 0077:035d   923 0077:0362   925 0077:0366
   928 0077:0369   968 0077:036a   970 0077:036b   971 0077:036e
   973 0077:0370   974 0077:0373   976 0077:0375   977 0077:0378
   979 0077:037a   983 0077:037b   985 0077:0380   986 0077:0385
   987 0077:038a   989 0077:038d   990 0077:0392  1002 0077:0395
  1003 0077:0396  1005 0077:0398  1006 0077:039b  1008 0077:039c
  1010 0077:039d  1011 0077:039e  1012 0077:039f  1016 0077:03a4
  1017 0077:03a7  1018 0077:03ac  1020 0077:03b1  1023 0077:03b4
  1025 0077:03b5  1038 0077:03ba  1040 0077:03bd  1043 0077:03c2
  1044 0077:03c6  1046 0077:03ca  1047 0077:03ce  1049 0077:03d2
  1052 0077:03d5  1065 0077:03d6  1067 0077:03d9  1070 0077:03de
  1071 0077:03e2  1073 0077:03e6  1074 0077:03ea  1076 0077:03ee
  1079 0077:03f1  1096 0077:03f2  1098 0077:03f8  1100 0077:03fc
  1101 0077:0403  1103 0077:0405  1104 0077:0409  1106 0077:040b
  1107 0077:040d  1109 0077:040f  1110 0077:0412  1112 0077:0414
  1113 0077:0416  1115 0077:0418  1116 0077:041a  1117 0077:041d
  1118 0077:0421  1119 0077:0426  1120 0077:042b  1121 0077:0430
  1122 0077:0435  1124 0077:043a  1125 0077:043c  1126 0077:0440
  1130 0077:0445  1132 0077:0449  1135 0077:044e  1136 0077:0454
  1137 0077:0458  1139 0077:045c  1140 0077:0463  1146 0077:0465
  1147 0077:046b  1148 0077:046c  1150 0077:0470  1153 0077:0473
  1155 0077:0478  1156 0077:047c  1159 0077:047d  1160 0077:0481
  1161 0077:0484  1164 0077:0489  1165 0077:048d  1166 0077:0490
  1170 0077:0495  1173 0077:049a  1174 0077:049c  1176 0077:04a0
  1177 0077:04a7  1180 0077:04a9  1181 0077:04ab  1182 0077:04ac
  1183 0077:04b1  1185 0077:04b3  1188 0077:04b5  1189 0077:04bc
  1191 0077:04c3  1194 0077:04c9  1228 0077:04ca  1230 0077:04d2
  1232 0077:04d4  1235 0077:04d8  1237 0077:04da  1238 0077:04df
  1242 0077:04e1  1243 0077:04e5  1245 0077:04e7  1246 0077:04eb
  1248 0077:04ed  1249 0077:04f1  1251 0077:04f5  1255 0077:04f7
  1256 0077:04fb  1258 0077:04fd  1259 0077:0501  1261 0077:0503
  1262 0077:0507  1264 0077:050b  1268 0077:050e  1269 0077:0511
  1273 0077:0516  1275 0077:0519  1277 0077:051b  1278 0077:0522
  1280 0077:0524  1281 0077:0528  1283 0077:052a  1284 0077:052e
  1286 0077:0530  1287 0077:0533  1288 0077:0537  1289 0077:053b
  1291 0077:053f  1294 0077:0542  1297 0077:0546  1301 0077:0548
  1302 0077:054c  1304 0077:054e  1305 0077:0552  1307 0077:0554
  1308 0077:0557  1309 0077:055b  1310 0077:055f  1312 0077:0563
  1315 0077:0565  1319 0077:0569  1320 0077:056c  1323 0077:056e
  1324 0077:056f  1326 0077:0570  1327 0077:0577  1329 0077:0579
  1331 0077:057a  1332 0077:057e  1333 0077:057f  1336 0077:0581
  1337 0077:0585  1338 0077:0588  1340 0077:058c  1342 0077:0590
  1346 0077:0591  1347 0077:0592  1350 0077:0594  1352 0077:0595
  1353 0077:0598  1354 0077:059a  1355 0077:059c  1356 0077:059e
  1357 0077:05a0  1359 0077:05a3  1361 0077:05a4  1363 0077:05b0
  1366 0077:05b3  1369 0077:05bb  1383 0077:05bc  1385 0077:05c4
  1387 0077:05c7  1388 0077:05c9  1389 0077:05cb  1391 0077:05d1
  1392 0077:05d2  1394 0077:05d7  1395 0077:05d9  1396 0077:05dc
  1398 0077:05de  1399 0077:05e2  1401 0077:05e4  1402 0077:05e8
  1404 0077:05ea  1405 0077:05eb  1406 0077:05ec  1408 0077:05ee
  1411 0077:05f1  1412 0077:05f3  1413 0077:05f5  1415 0077:05f7
  1416 0077:05f9  1418 0077:05fc  1421 0077:05fe  1422 0077:0602
  1424 0077:0604  1425 0077:0606  1427 0077:0608  1429 0077:060a
  1432 0077:060c  1433 0077:0610  1436 0077:0612  1438 0077:0616
  1439 0077:0619  1442 0077:061e  1443 0077:0620  1444 0077:0623
  1445 0077:0626  1447 0077:062a  1450 0077:062d  1452 0077:062e
  1454 0077:062f  1457 0077:0631  1459 0077:0633  1460 0077:0636
  1463 0077:0638  1465 0077:0639  1467 0077:063c  1471 0077:063e
  1472 0077:0640  1480 0077:0642  1481 0077:0643  1484 0077:0644
  1485 0077:0647  1486 0077:064a  1488 0077:064c  1489 0077:064f
  1494 0077:0651  1495 0077:0654  1496 0077:0658  1498 0077:065a
  1499 0077:065d  1500 0077:0660  1502 0077:0662  1503 0077:0664
  1509 0077:0666  1510 0077:0669  1512 0077:066b  1513 0077:066f
  1517 0077:0671  1520 0077:0675  1521 0077:0678  1522 0077:067a
  1524 0077:067c  1525 0077:0680  1528 0077:0684  1530 0077:0687
  1547 0077:0689  1549 0077:068d  1550 0077:068f  1551 0077:0691
  1553 0077:0695  1554 0077:069b  1557 0077:069d  1558 0077:06a1
  1559 0077:06a5  1561 0077:06a8  1562 0077:06aa  1563 0077:06ad
  1564 0077:06af  1565 0077:06b2  1566 0077:06b6  1567 0077:06b8
  1569 0077:06ba  1573 0077:06be  1576 0077:06c6

Line numbers for RET\DRVCOM.OBJ(.\DRVCOM.asm) segment ACODE

  1822 0296:0000  1824 0296:0003  1826 0296:0006  1828 0296:0007
  1829 0296:0009  1831 0296:000b  1833 0296:000e  1834 0296:0011
  1838 0296:0013  1839 0296:0015  1841 0296:0017  1842 0296:001a
  1844 0296:001c  1845 0296:001f  1847 0296:0022  1848 0296:0024
  1850 0296:0027  1851 0296:0029  1852 0296:002b  1853 0296:0030
  1854 0296:0033  1855 0296:0035  1856 0296:0037  1857 0296:0039
  1858 0296:003b  1859 0296:003e  1861 0296:0042  1863 0296:0043
  1866 0296:0045  1868 0296:0046  1870 0296:0049  1878 0296:004a
  1880 0296:0052  1886 0296:0053  1887 0296:0054  1892 0296:0055
  1895 0296:0059  1896 0296:005c  1897 0296:0061  1901 0296:0064
  1903 0296:0069  1904 0296:006b  1906 0296:006d  1908 0296:006e
  1910 0296:0071  1912 0296:0072  1913 0296:0074  1915 0296:0079
  1916 0296:007b  1918 0296:0080  1919 0296:0082  1921 0296:0087
  1925 0296:0088  1926 0296:008a  1928 0296:008d  1930 0296:0092
  1931 0296:0094  1932 0296:0099  1934 0296:009b  1935 0296:009c
  1936 0296:009e  1938 0296:00a0  1939 0296:00a2  1941 0296:00a4
  1942 0296:00a6  1944 0296:00a8  1945 0296:00aa  1947 0296:00ac
  1948 0296:00ae  1951 0296:00b0  1953 0296:00b3  1958 0296:00b5
  1961 0296:00b8  1963 0296:00bd  1968 0296:00c2  1969 0296:00c5
  1971 0296:00c8  1976 0296:00ca  1978 0296:00cd  1983 0296:00cf
  1984 0296:00d2  1986 0296:00d4  1991 0296:00d6  1993 0296:00d9
  1999 0296:00db  2001 0296:00de  2012 0296:00e0  2013 0296:00e3
  2015 0296:00e5  2020 0296:00e7  2021 0296:00ea  2023 0296:00ec
  2028 0296:00ee  2030 0296:00f1  2036 0296:00f4  2038 0296:00f7
  2044 0296:00fa  2045 0296:00fd  2047 0296:00ff  2052 0296:0102
  2053 0296:0105  2055 0296:0107  2059 0296:010a  2060 0296:0110
  2063 0296:0113  2064 0296:0116  2068 0296:0119  2070 0296:0120
  2072 0296:0123  2074 0296:0124  2075 0296:0126  2077 0296:0128
  2079 0296:012b  2081 0296:0130  2085 0296:0133  2086 0296:0138
  2088 0296:013a  2089 0296:013f  2091 0296:0141  2095 0296:0146
  2097 0296:014a  2098 0296:014b  2099 0296:0150  2100 0296:0152
  2102 0296:0153  2103 0296:0158  2105 0296:015d  2107 0296:0160
  2109 0296:0161  2110 0296:0163  2112 0296:0165  2113 0296:0167
  2115 0296:0169  2116 0296:016b  2117 0296:016c  2118 0296:0171
  2125 0296:0173  2126 0296:0174  2129 0296:0175  2130 0296:0178
  2131 0296:017d  2132 0296:0180  2133 0296:0182  2134 0296:0184
  2135 0296:0186  2139 0296:0187  2140 0296:018c  2141 0296:0191
  2143 0296:0196  2148 0296:0198  2149 0296:019f  2151 0296:01a1
  2153 0296:01a2  2156 0296:01a4  2157 0296:01a7  2158 0296:01ab
  2159 0296:01ac  2161 0296:01af  2165 0296:01b0  2168 0296:01b8
  2188 0296:01b9  2190 0296:01c0  2194 0296:01c3  2198 0296:01c6
  2200 0296:01ca  2201 0296:01cb  2203 0296:01ce  2204 0296:01d1
  2206 0296:01d5  2207 0296:01d9  2208 0296:01dd  2209 0296:01de
  2210 0296:01df  2214 0296:01e2  2219 0296:01e5  2220 0296:01eb
  2222 0296:01f0  2223 0296:01f2  2224 0296:01fa  2226 0296:01ff
  2230 0296:0201  2231 0296:0204  2232 0296:020c  2235 0296:0211
  2236 0296:0213  2238 0296:0215  2239 0296:021b  2241 0296:021d
  2242 0296:0223  2244 0296:0225  2245 0296:0228  2246 0296:022b
  2247 0296:022d  2250 0296:022f  2251 0296:0231  2252 0296:0233
  2253 0296:0237  2256 0296:0239  2257 0296:023a  2260 0296:023b
  2261 0296:023e  2262 0296:0246  2264 0296:0248  2265 0296:024e
  2267 0296:0250  2268 0296:0254  2270 0296:0258  2271 0296:025b
  2272 0296:025d  2275 0296:025f  2276 0296:0265  2280 0296:0273
  2281 0296:0275  2282 0296:0277  2283 0296:0279  2284 0296:027d
  2286 0296:027f  2290 0296:0282  2291 0296:0288  2293 0296:028a
  2294 0296:028d  2296 0296:0291  2297 0296:0295  2298 0296:0297
  2300 0296:0299  2301 0296:029d  2303 0296:029f  2304 0296:02a2
  2306 0296:02a6  2308 0296:02aa  2310 0296:02ab  2313 0296:02ad
  2314 0296:02b1  2315 0296:02b2  2317 0296:02b5  2320 0296:02b7
  2322 0296:02bb  2323 0296:02bf  2324 0296:02c0  2326 0296:02c3
  2328 0296:02c4  2329 0296:02c5  2330 0296:02c8  2332 0296:02c9
  2335 0296:02d0  2356 0296:02d1  2358 0296:02d6  2359 0296:02d9
  2360 0296:02dc  2362 0296:02de  2364 0296:02e0  2367 0296:02e2
  2368 0296:02e3  2370 0296:02e8  2371 0296:02ee  2373 0296:02f0
  2374 0296:02f6  2376 0296:02f8  2377 0296:02fd  2379 0296:02ff
  2381 0296:0301  2382 0296:0307  2384 0296:0309  2385 0296:030e
  2388 0296:0310  2393 0296:0312  2394 0296:0314  2395 0296:0319
  2396 0296:031e  2397 0296:0320  2398 0296:0321  2399 0296:0326
  2400 0296:0328  2401 0296:032a  2402 0296:032b  2405 0296:032d
  2406 0296:0332  2407 0296:0337  2410 0296:033e  2411 0296:0340
  2413 0296:0347  2415 0296:0348  2417 0296:034a  2419 0296:034b
  2422 0296:0350  2440 0296:0351  2442 0296:0357  2444 0296:0358
  2445 0296:0359  2448 0296:035b  2449 0296:035d  2450 0296:035f
  2452 0296:0361  2453 0296:0363  2455 0296:0365  2457 0296:0367
  2459 0296:036d  2485 0296:036e  2487 0296:0373  2489 0296:0378
  2490 0296:037c  2491 0296:0382  2493 0296:0384  2495 0296:0388
  2496 0296:038a  2497 0296:038c  2498 0296:038d  2501 0296:0390
  2502 0296:0396  2504 0296:039b  2505 0296:03a0  2507 0296:03a2
  2508 0296:03a8  2510 0296:03aa  2511 0296:03ae  2512 0296:03af
  2514 0296:03b2  2516 0296:03b5  2522 0296:03b8  2524 0296:03bb
  2525 0296:03be  2526 0296:03c2  2528 0296:03c5  2532 0296:03c7
  2533 0296:03cb  2535 0296:03cd  2538 0296:03d1  2542 0296:03d5
  2543 0296:03db  2545 0296:03dd  2546 0296:03df  2547 0296:03e3
  2549 0296:03e6  2551 0296:03eb  2554 0296:03ed  2556 0296:03f0
  2558 0296:03f5  2560 0296:03f9  2563 0296:03fb  2565 0296:03fe
  2567 0296:0402  2569 0296:0405  2571 0296:0407  2572 0296:040a
  2573 0296:040b  2574 0296:040e  2575 0296:0411  2577 0296:0414
  2579 0296:0418  2581 0296:0419  2584 0296:041d  2585 0296:0422
  2587 0296:0426  2589 0296:042c  2590 0296:0431  2592 0296:0432
  2593 0296:0437  2594 0296:043c  2596 0296:043d  2597 0296:0441
  2599 0296:0446  2600 0296:0449  2601 0296:044b  2602 0296:044c
  2603 0296:044f  2604 0296:0451  2605 0296:0455  2606 0296:0459
  2607 0296:045d  2608 0296:0461  2609 0296:0465  2611 0296:0469
  2612 0296:046c  2613 0296:046f  2614 0296:0472  2615 0296:0475
  2621 0296:0478  2622 0296:047c  2623 0296:047d  2625 0296:047e
  2627 0296:0482  2630 0296:0483  2634 0296:0487  2637 0296:0488
  2639 0296:0489  2643 0296:048c  2644 0296:0492  2646 0296:0494
  2647 0296:0497  2648 0296:049b  2650 0296:049d  2652 0296:04a1
  2653 0296:04a2  2658 0296:04a5  2661 0296:04a8  2663 0296:04ab
  2664 0296:04af  2665 0296:04b2  2667 0296:04b4  2668 0296:04b8
  2669 0296:04b9  2671 0296:04bc  2674 0296:04bf  2675 0296:04c3
  2676 0296:04c5  2678 0296:04c7  2679 0296:04cb  2681 0296:04cf
  2682 0296:04d2  2687 0296:04d7  2688 0296:04d9  2689 0296:04da
  2690 0296:04de  2692 0296:04e2  2694 0296:04e5  2696 0296:04e6
  2699 0296:04e9  2701 0296:04eb  2704 0296:04ef  2706 0296:04f3
  2710 0296:04f5  2712 0296:04f6  2714 0296:04f7  2717 0296:04fb
  2719 0296:04fc  2720 0296:04ff  2722 0296:0502  2725 0296:0503
  2726 0296:0504  2727 0296:0508  2729 0296:0509  2735 0296:050a
  2736 0296:050c  2739 0296:050e  2742 0296:0510  2743 0296:0513
  2749 0296:0515  2750 0296:0517  2751 0296:0519  2754 0296:051b
  2757 0296:051f  2758 0296:0522  2760 0296:0526  2761 0296:0529
  2763 0296:052d  2767 0296:0531  2769 0296:0534  2770 0296:0538
  2772 0296:0539  2773 0296:053d  2775 0296:0540  2776 0296:0546
  2778 0296:054d  2780 0296:0553  2782 0296:0558  2783 0296:055a
  2784 0296:055b  2785 0296:055e  2786 0296:0561  2788 0296:0564
  2790 0296:0565  2793 0296:0567  2797 0296:056a  2799 0296:056d
  2801 0296:0570  2804 0296:0571  2806 0296:0573  2807 0296:0579
  2809 0296:057b  2811 0296:057e  2814 0296:057f  2817 0296:0584
  2830 0296:0585  2832 0296:058b  2835 0296:0590  2837 0296:0594
  2840 0296:0599  2841 0296:059e  2843 0296:05a0  2844 0296:05a3
  2846 0296:05a5  2848 0296:05a8  2849 0296:05a9  2850 0296:05ab
  2854 0296:05ac  2855 0296:05af  2856 0296:05b1  2857 0296:05b3
  2859 0296:05b5  2862 0296:05bb  2884 0296:05bc  2886 0296:05c4
  2889 0296:05c6  2890 0296:05c7  2893 0296:05c8  2894 0296:05ce
  2896 0296:05d3  2897 0296:05d6  2898 0296:05da  2900 0296:05df
  2902 0296:05e0  2903 0296:05e3  2904 0296:05e6  2905 0296:05e9
  2906 0296:05ed  2907 0296:05f0  2910 0296:05f2  2911 0296:05f6
  2912 0296:05f9  2914 0296:05fd  2915 0296:0600  2916 0296:0603
  2917 0296:0607  2918 0296:060a  2921 0296:060c  2922 0296:0610
  2923 0296:0613  2926 0296:0617  2927 0296:061a  2928 0296:061d
  2929 0296:0621  2930 0296:0624  2933 0296:0626  2934 0296:0629
  2935 0296:062c  2936 0296:062f  2937 0296:0633  2938 0296:0636
  2943 0296:0638  2944 0296:063b  2945 0296:063e  2946 0296:0641
  2947 0296:0645  2948 0296:0648  2951 0296:064a  2952 0296:064e
  2953 0296:0651  2955 0296:0655  2956 0296:0658  2957 0296:065b
  2958 0296:065f  2959 0296:0662  2962 0296:0664  2963 0296:0668
  2964 0296:066b  2966 0296:066f  2969 0296:0671  2972 0296:0679

Line numbers for RET\DRVCOM.OBJ(.\DRVCOM.asm) segment NCODE

  3020 00ef:0002  3022 00ef:0005  3024 00ef:0009  3025 00ef:0010
  3027 00ef:0012  3028 00ef:0016  3029 00ef:001b  3032 00ef:001e
  3033 00ef:0020  3035 00ef:0022  3036 00ef:0025  3039 00ef:0027
  3040 00ef:002e  3042 00ef:0030  3043 00ef:0034  3045 00ef:0036
  3049 00ef:0039  3050 00ef:0040  3052 00ef:0042  3053 00ef:0047
  3055 00ef:0049  3057 00ef:004e  3058 00ef:0052  3060 00ef:0056
  3063 00ef:0059  3076 00ef:005a  3078 00ef:005c  3079 00ef:005f
  3082 00ef:0061  3083 00ef:0065  3085 00ef:0068  3088 00ef:006a
  3104 00ef:006b  3106 00ef:0072  3108 00ef:0073  3109 00ef:0076
  3112 00ef:007b  3113 00ef:007f  3115 00ef:0082  3116 00ef:0085
  3118 00ef:0087  3119 00ef:008b  3120 00ef:008e  3121 00ef:008f
  3123 00ef:0091  3126 00ef:0094  3129 00ef:0096  3131 00ef:0099
  3134 00ef:00a0  3155 00ef:00a1  3157 00ef:00a4  3158 00ef:00a5
  3161 00ef:00a6  3162 00ef:00aa  3164 00ef:00ae  3166 00ef:00af
  3167 00ef:00b0  3168 00ef:00b1  3170 00ef:00b5  3172 00ef:00b6
  3174 00ef:00bc  3179 00ef:00c2  3182 00ef:00c6  3184 00ef:00cc
  3187 00ef:00d0  3188 00ef:00d4  3190 00ef:00d8  3191 00ef:00db
  3193 00ef:00e0  3194 00ef:00e6  3196 00ef:00e8  3198 00ef:00e9
  3199 00ef:00ec  3201 00ef:00ee  3203 00ef:00f3  3204 00ef:00f9
  3206 00ef:00fb  3209 00ef:00ff  3211 00ef:0103  3212 00ef:010c
  3213 00ef:010e  3214 00ef:0110  3215 00ef:0112  3216 00ef:0114
  3217 00ef:0116  3219 00ef:0118  3220 00ef:011b  3223 00ef:011d
  3224 00ef:0123  3226 00ef:0125  3227 00ef:0127  3228 00ef:012b
  3230 00ef:012d  3231 00ef:0130  3232 00ef:0133  3234 00ef:0135
  3235 00ef:0143  3271 00ef:0145  3273 00ef:0148  3275 00ef:014b
  3277 00ef:0154  3279 00ef:0157  3281 00ef:015a  3282 00ef:015d
  3284 00ef:015f  3285 00ef:0160  3286 00ef:0163  3288 00ef:0165
  3289 00ef:0168  3291 00ef:016a  3298 00ef:016d  3303 00ef:0170
  3305 00ef:0173  3306 00ef:0176  3308 00ef:0178  3309 00ef:017e
  3311 00ef:0180  3312 00ef:0183  3314 00ef:0185  3316 00ef:0187
  3317 00ef:018a  3319 00ef:018c  3322 00ef:018e  3323 00ef:0192
  3324 00ef:0193  3328 00ef:0196  3329 00ef:019c  3331 00ef:019e
  3334 00ef:01a1  3335 00ef:01a5  3337 00ef:01a8  3339 00ef:01a9
  3342 00ef:01ab  3344 00ef:01b1  3348 00ef:01b4  3351 00ef:01b8
  3352 00ef:01bb  3354 00ef:01bf  3356 00ef:01c0  3361 00ef:01c6
  3362 00ef:01c9  3364 00ef:01cd  3366 00ef:01cf  3369 00ef:01d2
  3382 00ef:01d3  3384 00ef:01d7  3385 00ef:01d8  3390 00ef:01d9
  3394 00ef:01dc  3395 00ef:01e0  3396 00ef:01e2  3397 00ef:01ea
  3398 00ef:01eb  3399 00ef:01ee  3400 00ef:01ef  3402 00ef:01f1
  3403 00ef:01f5  3404 00ef:01f6  3406 00ef:01f9  3407 00ef:01fa
  3411 00ef:01fc  3413 00ef:01ff  3414 00ef:0205  3416 00ef:0207
  3417 00ef:0209  3420 00ef:020d  3421 00ef:0211  3423 00ef:0215
  3424 00ef:0216  3425 00ef:0219  3426 00ef:021a  3429 00ef:021c
  3430 00ef:021e  3432 00ef:0226  3438 00ef:0227  3439 00ef:022b
  3443 00ef:022f  3444 00ef:0232  3445 00ef:0233  3447 00ef:0237
  3450 00ef:023b  3451 00ef:023f  3453 00ef:0245  3456 00ef:0248
  3459 00ef:0249  3462 00ef:024d  3518 00ef:024e  3519 00ef:0255
  3525 00ef:0257  3526 00ef:025b  3527 00ef:025c  3531 00ef:025f
  3532 00ef:0266  3534 00ef:0268  3535 00ef:026f  3538 00ef:0271
  3539 00ef:0273  3540 00ef:0275  3541 00ef:0277  3543 00ef:027b
  3548 00ef:027e  3549 00ef:0282  3551 00ef:0285  3553 00ef:0287
  3554 00ef:0288  3555 00ef:028a  3556 00ef:028d  3560 00ef:028e
  3561 00ef:0291  3565 00ef:0293  3566 00ef:0297  3568 00ef:029a
  3569 00ef:029e  3571 00ef:02a1  3572 00ef:02a4  3573 00ef:02a7
  3577 00ef:02aa  3580 00ef:02af  3581 00ef:02b2  3583 00ef:02b5
  3584 00ef:02b9  3588 00ef:02bd  3589 00ef:02be  3592 00ef:02bf
  3593 00ef:02c3  3594 00ef:02c7  3595 00ef:02c9  3596 00ef:02cb
  3598 00ef:02cd  3599 00ef:02d0  3601 00ef:02d3  3603 00ef:02d4
  3607 00ef:02d6  3608 00ef:02d8  3609 00ef:02dc  3610 00ef:02de
  3611 00ef:02e0  3612 00ef:02e2  3614 00ef:02e4  3620 00ef:02e7
  3621 00ef:02ea  3622 00ef:02ec  3623 00ef:02f4  3627 00ef:02f6
  3630 00ef:02f9  3631 00ef:02fc  3632 00ef:02ff  3634 00ef:0302
  3637 00ef:0305  3640 00ef:0308  3641 00ef:030a  3643 00ef:030d
  3647 00ef:030f  3650 00ef:0312  3652 00ef:0318  3653 00ef:031a
  3654 00ef:031e  3655 00ef:0322  3657 00ef:0326  3663 00ef:032a
  3665 00ef:0330  3668 00ef:0333  3679 00ef:0337  3680 00ef:033b
  3682 00ef:033d  3683 00ef:0343  3685 00ef:0345  3687 00ef:0349
  3688 00ef:034c  3691 00ef:034e  3693 00ef:0351  3695 00ef:0354
  3703 00ef:035a  3708 00ef:035d  3709 00ef:0360  3711 00ef:0363
  3713 00ef:0365  3716 00ef:0368  3718 00ef:036b  3721 00ef:036c
  3723 00ef:036d  3725 00ef:036e  3737 00ef:036f  3739 00ef:0373
  3740 00ef:0374  3745 00ef:0375  3753 00ef:0378  3754 00ef:037e
  3756 00ef:0380  3757 00ef:0384  3758 00ef:0386  3759 00ef:038e
  3760 00ef:038f  3761 00ef:0392  3762 00ef:0393  3764 00ef:0395
  3765 00ef:0399  3766 00ef:039a  3768 00ef:039d  3771 00ef:039f
  3772 00ef:03a3  3773 00ef:03a4  3775 00ef:03a7  3781 00ef:03a9
  3782 00ef:03af  3784 00ef:03b1  3785 00ef:03b4  3786 00ef:03b5
  3787 00ef:03b8  3788 00ef:03b9  3792 00ef:03bb  3797 00ef:03be
  3798 00ef:03c4  3800 00ef:03c6  3801 00ef:03c8  3804 00ef:03cc
  3805 00ef:03d0  3807 00ef:03d4  3808 00ef:03d5  3809 00ef:03d8
  3810 00ef:03d9  3813 00ef:03db  3814 00ef:03dd  3816 00ef:03e5
  3822 00ef:03e6  3823 00ef:03ea  3827 00ef:03ee  3828 00ef:03f1
  3829 00ef:03f2  3831 00ef:03f6  3834 00ef:03fa  3835 00ef:03fe
  3837 00ef:0404  3840 00ef:0407  3842 00ef:0408  3845 00ef:040a
  3847 00ef:040b  3850 00ef:040f  3863 00ef:0410  3865 00ef:0413
  3866 00ef:0414  3869 00ef:0415  3870 00ef:041b  3872 00ef:041d
  3874 00ef:0423  3876 00ef:0426  3877 00ef:042a  3879 00ef:042d
  3882 00ef:0431  3884 00ef:0434  3885 00ef:0436  3887 00ef:0440
  3888 00ef:0442  3890 00ef:044c  3893 00ef:044f  3914 00ef:0450
  3915 00ef:0451  3917 00ef:0453  3919 00ef:0459  3921 00ef:045c
  3923 00ef:045f  3924 00ef:0460  3927 00ef:0461  3928 00ef:0462
  3931 00ef:0463  3932 00ef:0466  3933 00ef:0468  3934 00ef:046b
  3935 00ef:046d  3937 00ef:046e  3938 00ef:0470  3940 00ef:0473
  3941 00ef:0476  3943 00ef:047a  3945 00ef:047d  3948 00ef:0483
  3950 00ef:0484  3967 00ef:0487  3969 00ef:048a  3971 00ef:048b
  3973 00ef:048d  3975 00ef:048e  3976 00ef:0490  3978 00ef:0492
  3979 00ef:0494  3981 00ef:0496  3983 00ef:04a0  3986 00ef:04a2
  3988 00ef:04a5  4005 00ef:04a6  4007 00ef:04ab  4008 00ef:04b2
  4010 00ef:04b4  4013 00ef:04b9  4014 00ef:04bd  4015 00ef:04c0
  4018 00ef:04c5  4020 00ef:04c7  4022 00ef:04c9  4023 00ef:04ce
  4025 00ef:04d0  4027 00ef:04d2  4030 00ef:04d4  4031 00ef:04d7
  4033 00ef:04d9  4035 00ef:04dd  4036 00ef:04df  4038 00ef:04e1
  4039 00ef:04e3  4041 00ef:04e6  4042 00ef:04e9  4044 00ef:04eb
  4046 00ef:04ee  4048 00ef:04f0  4050 00ef:04f5  4051 00ef:04f8
  4052 00ef:04fa  4053 00ef:04fc  4054 00ef:04ff  4056 00ef:0503
  4058 00ef:0508  4077 00ef:0509  4078 00ef:050e  4080 00ef:0513
  4082 00ef:0514  4083 00ef:0515  4084 00ef:0516  4086 00ef:051a
  4088 00ef:051b  4090 00ef:0523  4092 00ef:0529  4093 00ef:052e
  4095 00ef:0530  4097 00ef:0536  4098 00ef:0539  4101 00ef:053e
  4102 00ef:0541  4104 00ef:0543  4106 00ef:054a  4107 00ef:054b
  4110 00ef:054c  4111 00ef:0552  4113 00ef:0554  4116 00ef:0557
  4119 00ef:055b  4120 00ef:0561  4125 00ef:0563  4126 00ef:0567
  4127 00ef:056a  4128 00ef:056c  4129 00ef:056e  4131 00ef:0572
  4132 00ef:0576  4137 00ef:0578  4138 00ef:057e  4140 00ef:0580
  4141 00ef:0586  4143 00ef:0588  4144 00ef:058d  4146 00ef:058f
  4148 00ef:0595  4156 00ef:0598  4157 00ef:059e  4159 00ef:05a0
  4161 00ef:05a1  4164 00ef:05a5  4166 00ef:05ab  4169 00ef:05b0
  4171 00ef:05b6  4174 00ef:05bb  4177 00ef:05c0  4178 00ef:05c4
  4180 00ef:05c9  4183 00ef:05ca  4184 00ef:05cc  4185 00ef:05d0
  4186 00ef:05d6  4190 00ef:05da  4191 00ef:05e0  4193 00ef:05e2
  4195 00ef:05e3  4196 00ef:05e5  4198 00ef:05e9  4200 00ef:05ed
  4206 00ef:05ee  4207 00ef:05f4  4211 00ef:05f6  4214 00ef:05f9
  4227 00ef:05fc  4229 00ef:0602  4230 00ef:0604  4231 00ef:0607
  4236 00ef:060a  4241 00ef:0610  4242 00ef:0613  4243 00ef:0617
  4247 00ef:061d  4249 00ef:061e  4252 00ef:0622  4256 00ef:0627
  4257 00ef:062c  4258 00ef:0631  4259 00ef:0636  4261 00ef:063b
  4268 00ef:063c  4269 00ef:0640  4270 00ef:0643  4271 00ef:0645
  4272 00ef:0647  4274 00ef:064b  4276 00ef:064f  4278 00ef:0653
  4279 00ef:0657  4281 00ef:0659  4283 00ef:065c  4284 00ef:0660
  4286 00ef:0662  4288 00ef:0665  4290 00ef:0668  4291 00ef:066e
  4293 00ef:0670  4294 00ef:0674  4296 00ef:0677  4298 00ef:0679
  4303 00ef:067c  4304 00ef:0680  4305 00ef:0681  4306 00ef:0685
  4308 00ef:068b  4312 00ef:068f  4315 00ef:0693  4316 00ef:0698
  4318 00ef:069d  4319 00ef:06a3  4323 00ef:06a8  4324 00ef:06ae
  4326 00ef:06b0  4327 00ef:06b6  4329 00ef:06b8  4339 00ef:06bb
  4343 00ef:06c2  4345 00ef:06c5  4346 00ef:06c9  4348 00ef:06cb
  4350 00ef:06ce  4352 00ef:06d2  4353 00ef:06d7  4355 00ef:06d9
  4356 00ef:06de  4357 00ef:06e3  4359 00ef:06e4  4360 00ef:06e6
  4361 00ef:06eb  4363 00ef:06f0  4364 00ef:06f2  4365 00ef:06f3
  4366 00ef:06f8  4369 00ef:06fa  4370 00ef:06ff  4371 00ef:0706
  4377 00ef:070a  4382 00ef:070d  4383 00ef:0713  4385 00ef:0715
  4386 00ef:071b  4390 00ef:0720  4391 00ef:0726  4393 00ef:0728
  4398 00ef:072b  4402 00ef:0731  4404 00ef:0732  4405 00ef:0735
  4406 00ef:0736  4409 00ef:0738  4410 00ef:073c  4411 00ef:073f
  4413 00ef:0741  4414 00ef:0748  4416 00ef:074a  4417 00ef:074e
  4418 00ef:0751  4420 00ef:0753  4422 00ef:0757  4423 00ef:075b
  4425 00ef:075e  4426 00ef:0762  4428 00ef:0764  4430 00ef:0768
  4432 00ef:076c  4433 00ef:076d  4435 00ef:076e  4437 00ef:0771
  4438 00ef:0775  4440 00ef:0777  4442 00ef:0778  4445 00ef:0779
  4446 00ef:077c  4447 00ef:077d  4449 00ef:0780  4450 00ef:0786
  4452 00ef:0788  4454 00ef:078e  4456 00ef:0791  4463 00ef:0793
  4468 00ef:0796  4469 00ef:079c  4471 00ef:079e  4473 00ef:079f
  4474 00ef:07a0  4478 00ef:07a1  4481 00ef:07a4  4482 00ef:07a8
  4483 00ef:07a9  4485 00ef:07ac  4487 00ef:07af  4488 00ef:07b3
  4490 00ef:07b5  4492 00ef:07b8  4494 00ef:07bb  4497 00ef:07be
  4500 00ef:07bf  4503 00ef:07c2  4508 00ef:07ca  4510 00ef:07cb
  4512 00ef:07d0  4514 00ef:07d5  4516 00ef:07d6  4532 00ef:07d7
  4534 00ef:07da  4539 00ef:07e3  4540 00ef:07e4  4541 00ef:07e6
  4542 00ef:07e9  4543 00ef:07ea  4545 00ef:07eb  4547 00ef:07ec
  4555 00ef:07ef  4557 00ef:07f2  4558 00ef:07f3  4561 00ef:07f4
  4562 00ef:07f7  4565 00ef:07f9  4566 00ef:07fa  4568 00ef:07fb
  4569 00ef:07ff  4570 00ef:0804  4572 00ef:0807  4573 00ef:0809
  4574 00ef:080e  4576 00ef:0811  4578 00ef:0812  4581 00ef:0815
  4589 00ef:0816  4591 00ef:0819  4592 00ef:081c  4595 00ef:081e
  4598 00ef:0823  4599 00ef:0824  4600 00ef:0825  4601 00ef:0829
  4603 00ef:082e  4605 00ef:082f  4608 00ef:0832  4624 00ef:0833
  4626 00ef:0834  4627 00ef:0837  4629 00ef:0839  4633 00ef:083a
  4634 00ef:083b  4635 00ef:083d  4636 00ef:0840  4637 00ef:0841
  4639 00ef:0842  4641 00ef:0849  4643 00ef:084d  4646 00ef:0850
  4648 00ef:0851  4662 00ef:0856  4663 00ef:085c  4665 00ef:085e
  4667 00ef:0863  4668 00ef:0864  4671 00ef:0865  4673 00ef:086d
  4675 00ef:0872  4679 00ef:0877

Line numbers for RET\DRVCOM.OBJ(.\DRVCOM.asm) segment RCODE

  4723 0000:0015  4731 0000:001b  4735 0000:0020  4741 0000:003a

Program entry point at 0077:0000

Line numbers for RET\LOADCOM.OBJ(.\LOADCOM.asm) segment DATZ

   114 00ea:0023   116 00ea:0025   117 00ea:0026   118 00ea:0027
   125 00ea:0028   126 00ea:002b   128 00ea:002d   129 00ea:0030
   131 00ea:0032

Line numbers for RET\LOADCOM.OBJ(.\LOADCOM.asm) segment NCODE

   359 00ef:0878   361 00ef:087d   362 00ef:087e   364 00ef:0880
   367 00ef:0882   368 00ef:0885   370 00ef:0887   371 00ef:0889
   372 00ef:088b   373 00ef:088d   374 00ef:088f   376 00ef:0891
   378 00ef:0894   379 00ef:0895   382 00ef:0897   384 00ef:0898
   385 00ef:0899   386 00ef:089b   388 00ef:089d   390 00ef:08a0
   391 00ef:08a3   393 00ef:08a5   396 00ef:08a7   398 00ef:08aa
   401 00ef:08ac   404 00ef:08ae   406 00ef:08b3   421 00ef:08b4
   423 00ef:08b9   426 00ef:08bd   427 00ef:08c3   430 00ef:08c5
   431 00ef:08c7   432 00ef:08cb   433 00ef:08ce   434 00ef:08d1
   435 00ef:08d4   442 00ef:08d6   443 00ef:08d8   444 00ef:08dd
   445 00ef:08e2   447 00ef:08e4   450 00ef:08ea   453 00ef:08ef
   475 00ef:08f0   477 00ef:08f7   478 00ef:08fd   480 00ef:0902
   481 00ef:0904   482 00ef:090c   487 00ef:090e   488 00ef:0910
   491 00ef:0912   494 00ef:0917   495 00ef:0919   496 00ef:091b
   497 00ef:091d   498 00ef:091f   499 00ef:0921   501 00ef:0926
   502 00ef:0929   503 00ef:092c   504 00ef:0930   505 00ef:0932
   508 00ef:0934   509 00ef:0936   512 00ef:0938   513 00ef:093f
   515 00ef:0944   516 00ef:094b   520 00ef:0950   521 00ef:0953
   522 00ef:0957   524 00ef:095b   527 00ef:095d   529 00ef:0961
   530 00ef:0963   531 00ef:0964   534 00ef:0966   535 00ef:096b
   536 00ef:096e   539 00ef:0970   541 00ef:0972   542 00ef:0974
   543 00ef:0978   544 00ef:0979   545 00ef:097d   546 00ef:097e
   548 00ef:0980   549 00ef:0984   552 00ef:0986   553 00ef:0988
   554 00ef:098a   563 00ef:098c   564 00ef:0992   566 00ef:0994
   567 00ef:0996   568 00ef:0997   571 00ef:0999   572 00ef:099b
   574 00ef:099d   575 00ef:09a3   577 00ef:09a5   578 00ef:09aa
   579 00ef:09ab   582 00ef:09ad   583 00ef:09b2   584 00ef:09b3
   585 00ef:09b5   587 00ef:09b7   588 00ef:09bd   590 00ef:09bf
   591 00ef:09c6   594 00ef:09c8   595 00ef:09ce   597 00ef:09d0
   599 00ef:09d9   601 00ef:09e1   603 00ef:09e4   605 00ef:09ed
   608 00ef:09f4   616 00ef:09f5   618 00ef:09f6   619 00ef:09f8
   621 00ef:09fa   622 00ef:09fc   624 00ef:09fe   626 00ef:09ff
   656 00ef:0a00   657 00ef:0a01   659 00ef:0a03   661 00ef:0a09
   664 00ef:0a0c   666 00ef:0a0e   668 00ef:0a11   669 00ef:0a17
   671 00ef:0a19   672 00ef:0a1b   674 00ef:0a1d   675 00ef:0a21
   677 00ef:0a23   678 00ef:0a27   679 00ef:0a28   680 00ef:0a2b
   681 00ef:0a2f   683 00ef:0a31   685 00ef:0a33   686 00ef:0a39
   688 00ef:0a3b   689 00ef:0a41   693 00ef:0a43   695 00ef:0a45
   696 00ef:0a46   699 00ef:0a47   700 00ef:0a49   702 00ef:0a4c
   703 00ef:0a4e   704 00ef:0a4f   706 00ef:0a54   709 00ef:0a56
   712 00ef:0a58   714 00ef:0a59   717 00ef:0a5f   719 00ef:0a60

Line numbers for RET\LOADCOM.OBJ(.\LOADCOM.asm) segment UCODE

   750 035b:0002   752 035b:0008   753 035b:000e   755 035b:0010
   756 035b:0014   760 035b:0016   761 035b:0017   764 035b:0018
   767 035b:001c   768 035b:0021   770 035b:0026   772 035b:0027
   775 035b:0028   776 035b:002b   777 035b:002f   778 035b:0030
   782 035b:0032   783 035b:0037   786 035b:003c   787 035b:003f
   788 035b:0042   789 035b:0047   791 035b:004a   793 035b:004b
   795 035b:0051   798 035b:0057   819 035b:0058   821 035b:005f
   822 035b:0065   824 035b:006a   825 035b:0070   827 035b:0075
   828 035b:007b   830 035b:0080   831 035b:0083   833 035b:0088
   834 035b:008c   835 035b:008e   836 035b:0090   840 035b:0095
   842 035b:0099   843 035b:009c   845 035b:00a1   849 035b:00a5
   850 035b:00a6   853 035b:00a7   854 035b:00ab   855 035b:00ad
   857 035b:00b1   858 035b:00b4   862 035b:00b6   863 035b:00ba
   864 035b:00be   865 035b:00c0   870 035b:00c3   871 035b:00c6
   873 035b:00c8   874 035b:00cb   876 035b:00cf   877 035b:00d2
   879 035b:00d7   881 035b:00d8   883 035b:00db   888 035b:00dd
   889 035b:00e0   891 035b:00e4   894 035b:00e6   899 035b:00eb
   900 035b:00f1   902 035b:00f3   905 035b:00f4   906 035b:00f9
   914 035b:00fb   915 035b:0101   917 035b:0103   918 035b:0109
   922 035b:010b   923 035b:010f   925 035b:0111   926 035b:0115
   928 035b:0117   930 035b:011a   932 035b:011c   933 035b:0122
   935 035b:0124   938 035b:0126   945 035b:0128   946 035b:012c
   951 035b:0131   952 035b:0137   954 035b:0139   956 035b:013b
   959 035b:013d   961 035b:0141   962 035b:0143   963 035b:0148
   965 035b:0149   968 035b:014b   969 035b:014d   970 035b:014f
   971 035b:0152   973 035b:0154   976 035b:0156   979 035b:0158
   980 035b:015d   982 035b:0162   984 035b:0166   985 035b:0169
   987 035b:016b   988 035b:016f   990 035b:0175   993 035b:017c
  1008 035b:017d  1010 035b:0184  1011 035b:0189  1015 035b:018e
  1016 035b:0192  1017 035b:0195  1024 035b:019a  1025 035b:019d
  1028 035b:019f  1030 035b:01a3  1033 035b:01a5  1038 035b:01aa
  1039 035b:01b0  1041 035b:01b2  1046 035b:01b3  1047 035b:01b7
  1049 035b:01b9  1050 035b:01bd  1052 035b:01bf  1054 035b:01c2
  1056 035b:01c4  1057 035b:01ca  1059 035b:01cc  1069 035b:01cf
  1072 035b:01d1  1073 035b:01d7  1077 035b:01dc  1079 035b:01e0
  1080 035b:01e6  1082 035b:01e8  1084 035b:01e9  1085 035b:01ee
  1091 035b:01f0  1092 035b:01f6  1094 035b:01f8  1096 035b:01f9
  1097 035b:01fe  1099 035b:0200  1102 035b:0204  1104 035b:020a
  1113 035b:020d  1115 035b:020f  1116 035b:0213  1118 035b:0215
  1119 035b:0218  1120 035b:021c  1122 035b:021f  1124 035b:0223
  1125 035b:0227  1130 035b:022b  1131 035b:022d  1133 035b:022f
  1135 035b:0235  1136 035b:0239  1141 035b:023e  1142 035b:0244
  1144 035b:0246  1146 035b:0247  1149 035b:024b  1151 035b:024f
  1152 035b:0251  1153 035b:0256  1155 035b:0257  1158 035b:0259
  1159 035b:025b  1160 035b:025d  1161 035b:0260  1163 035b:0262
  1166 035b:0263  1179 035b:0266  1180 035b:026b  1182 035b:026c
  1184 035b:0270  1186 035b:0271  1187 035b:0272  1190 035b:0273
  1191 035b:0277  1192 035b:0278  1194 035b:027b  1196 035b:027e
  1198 035b:0281  1202 035b:0283  1203 035b:0287  1204 035b:0288
  1206 035b:028b  1211 035b:028d  1212 035b:0291  1213 035b:0293
  1220 035b:0297  1221 035b:029b  1235 035b:029f  1237 035b:02a5
  1240 035b:02ac  1258 035b:02ad  1260 035b:02b1  1262 035b:02b2
  1263 035b:02b5  1265 035b:02b9  1266 035b:02bd  1267 035b:02c0
  1268 035b:02c1  1271 035b:02c4  1272 035b:02c6  1274 035b:02c7
  1276 035b:02c8  1278 035b:02cb  1279 035b:02ce  1280 035b:02cf
  1283 035b:02d2  1284 035b:02d4  1286 035b:02d5  1287 035b:02d9
  1288 035b:02da  1290 035b:02dd  1291 035b:02e1  1292 035b:02e2
  1294 035b:02e5  1296 035b:02e9  1309 035b:02ea  1311 035b:02eb
  1314 035b:02ee  1315 035b:02f1  1317 035b:02f3  1319 035b:02f4
  1344 035b:02f5  1346 035b:02f7  1348 035b:02fd  1350 035b:02ff
  1352 035b:0300  1353 035b:0302  1355 035b:0304  1356 035b:0306
  1358 035b:0308  1359 035b:030a  1361 035b:030c  1362 035b:030e
  1364 035b:0310  1365 035b:0315  1367 035b:0317  1369 035b:031d
  1371 035b:031f  1374 035b:0321  1376 035b:0327  1379 035b:0329
  1380 035b:032d  1381 035b:0330  1382 035b:0332  1384 035b:0334
  1386 035b:0335  1388 035b:0337  1401 035b:0338  1403 035b:033c
  1404 035b:033d  1407 035b:033e  1408 035b:0340  1410 035b:0344
  1411 035b:0348  1413 035b:034c  1415 035b:0354  1416 035b:0356
  1418 035b:035a  1419 035b:035e  1421 035b:0362  1423 035b:036a
  1426 035b:036e  1451 035b:036f  1453 035b:0373  1454 035b:0377
  1459 035b:037b  1460 035b:037f  1461 035b:0381  1463 035b:0383
  1464 035b:0385  1465 035b:0387  1466 035b:038b  1467 035b:038f
  1469 035b:0393  1470 035b:0397  1471 035b:0399  1472 035b:03a1
  1473 035b:03a5  1474 035b:03a9  1476 035b:03ab  1477 035b:03b1
  1479 035b:03b3  1480 035b:03b6  1490 035b:03b8  1494 035b:03bb
  1495 035b:03be  1497 035b:03c0  1499 035b:03c3  1501 035b:03c4
  1503 035b:03c8  1521 035b:03c9  1525 035b:03d1  1526 035b:03d3
  1527 035b:03db  1529 035b:03dd  1533 035b:03df  1534 035b:03e3
  1535 035b:03e5  1536 035b:03e7  1537 035b:03eb  1539 035b:03ed
  1541 035b:03f1  1542 035b:03f3  1547 035b:03f5  1549 035b:03f8
  1550 035b:03fe  1552 035b:0400  1553 035b:0401  1554 035b:0403
  1555 035b:0405  1556 035b:040d  1557 035b:040e  1561 035b:0410
  1562 035b:0412  1563 035b:0416  1567 035b:041a  1568 035b:041e
  1569 035b:0422  1570 035b:0426  1573 035b:0428  1575 035b:042b
  1577 035b:042e  1579 035b:0430  1580 035b:0432  1583 035b:0434
  1584 035b:0435  1585 035b:0439  1587 035b:043a  1590 035b:0442
  1608 035b:0443  1610 035b:044b  1611 035b:044f  1615 035b:0453
  1616 035b:0456  1618 035b:0459  1621 035b:045d  1623 035b:045f
  1626 035b:0463  1628 035b:0465  1630 035b:0468  1631 035b:046a
  1633 035b:046c  1634 035b:046e  1637 035b:0470  1638 035b:0472
  1640 035b:0474  1641 035b:0476  1642 035b:0479  1645 035b:047b
  1646 035b:047d  1647 035b:0480  1650 035b:0482  1651 035b:0484
  1653 035b:0486  1655 035b:0487  1658 035b:0489  1660 035b:048a
  1663 035b:0492  1676 035b:0493  1678 035b:049b  1679 035b:049f
  1681 035b:04a3  1684 035b:04a7  1686 035b:04a9  1689 035b:04ad
  1691 035b:04af  1693 035b:04b2  1694 035b:04b4  1696 035b:04b6
  1698 035b:04b9  1699 035b:04bb  1701 035b:04bd  1703 035b:04bf
  1704 035b:04c1  1705 035b:04c4  1708 035b:04c6  1709 035b:04c8
  1710 035b:04cb  1713 035b:04cd  1714 035b:04cf  1716 035b:04d1
  1718 035b:04d2  1721 035b:04d4  1724 035b:04dc  1740 035b:04dd
  1742 035b:04e3  1743 035b:04e7  1745 035b:04eb  1748 035b:04ef
  1750 035b:04f1  1752 035b:04f4  1753 035b:04f6  1755 035b:04f8
  1757 035b:04fb  1758 035b:04fd  1760 035b:04ff  1761 035b:0501
  1763 035b:0503  1764 035b:0505  1765 035b:0508  1768 035b:050a
  1769 035b:050c  1771 035b:050e  1773 035b:050f  1776 035b:0511
  1779 035b:0517  1787 035b:0518  1788 035b:0519  1789 035b:051c
  1790 035b:051f  1792 035b:0520  1800 035b:0521  1801 035b:0522
  1802 035b:0525  1803 035b:0528  1805 035b:0529  1813 035b:052a
  1815 035b:052d  1816 035b:052e  1818 035b:052f  1819 035b:0531
  1820 035b:0535  1821 035b:0537  1822 035b:0538  1824 035b:0539
  1825 035b:053b  1826 035b:053d  1827 035b:053f  1829 035b:0540
  1830 035b:0542  1831 035b:0544  1832 035b:0546  1834 035b:0548
  1836 035b:054a  1838 035b:054b  1840 035b:054c  1842 035b:054f
  1868 035b:0550  1869 035b:0557  1871 035b:0559  1875 035b:055f
  1876 035b:0566  1878 035b:0568  1880 035b:056f  1882 035b:0570
  1891 035b:0571  1893 035b:0577  1915 035b:0579  1917 035b:057c
  1918 035b:0583  1920 035b:0589  1921 035b:0590  1923 035b:0597
  1925 035b:059d  1926 035b:05a4  1928 035b:05ab  1930 035b:05ac
  1953 035b:05ad  1955 035b:05af  1957 035b:05b2  1959 035b:05b3
  1960 035b:05b5  1962 035b:05b7  1964 035b:05ba  1965 035b:05bd
  1969 035b:05bf  1970 035b:05c1  1972 035b:05c3  1973 035b:05c6
  1975 035b:05c8  1976 035b:05cb  1978 035b:05cd  1981 035b:05d1
  1983 035b:05d2  1986 035b:05d4  1988 035b:05d5  1990 035b:05d7
  2013 035b:05d8  2015 035b:05df  2017 035b:05e0  2041 035b:05e1
  2043 035b:05e8  2045 035b:05e9  2097 035b:05ea  2099 035b:05ec
  2101 035b:05ef  2103 035b:05f0  2104 035b:05f2  2106 035b:05f4
  2108 035b:05f7  2109 035b:05fa  2113 035b:05fc  2114 035b:05fe
  2116 035b:0600  2117 035b:0603  2119 035b:0605  2120 035b:0609
  2121 035b:060d  2123 035b:0614  2125 035b:0615  2128 035b:0617
  2130 035b:0618  2132 035b:061a  2155 035b:061b  2157 035b:0622
  2159 035b:0623  2182 035b:0624  2184 035b:0626  2186 035b:0629
  2188 035b:062a  2189 035b:062c  2191 035b:062e  2193 035b:0631
  2194 035b:0634  2196 035b:0636  2197 035b:063d  2199 035b:063f
  2203 035b:0645  2204 035b:0648  2205 035b:064b  2207 035b:064e
  2208 035b:0652  2210 035b:0657  2211 035b:065b  2215 035b:0660
  2217 035b:0663  2219 035b:0664  2220 035b:0666  2222 035b:0668
  2224 035b:066b  2225 035b:066e  2229 035b:0670  2230 035b:0673
  2231 035b:0676  2233 035b:0679  2236 035b:067c  2237 035b:0680
  2239 035b:0686  2242 035b:0688  2244 035b:0689  2246 035b:068a
  2249 035b:068c  2251 035b:068d  2253 035b:068f  2276 035b:0690
  2278 035b:0696  2280 035b:0697  2302 035b:0698  2303 035b:0699
  2305 035b:069b  2307 035b:06a2  2308 035b:06a7  2311 035b:06a9
  2312 035b:06aa  2317 035b:06ab  2318 035b:06ae  2322 035b:06b0
  2323 035b:06b2  2324 035b:06b5  2325 035b:06b7  2326 035b:06b8
  2330 035b:06ba  2331 035b:06bc  2332 035b:06bd  2333 035b:06bf
  2334 035b:06c0  2336 035b:06c2  2339 035b:06c5  2341 035b:06c7
  2344 035b:06cb  2346 035b:06cf  2347 035b:06d1  2348 035b:06d4
  2349 035b:06d6  2351 035b:06d7  2352 035b:06d9  2354 035b:06db
  2355 035b:06de  2357 035b:06e0  2359 035b:06e2  2366 035b:06e5
  2369 035b:06e7  2370 035b:06e9  2371 035b:06ec  2373 035b:06ef
  2376 035b:06f6  2378 035b:06f7  2402 035b:06fa  2404 035b:06fe
  2405 035b:06ff  2406 035b:0701  2407 035b:0703  2411 035b:0705
  2412 035b:0708  2414 035b:070c  2415 035b:070f  2416 035b:0711
  2418 035b:0714  2419 035b:0716  2421 035b:0718  2423 035b:0719
  2425 035b:071d  2445 035b:071e  2447 035b:071f  2449 035b:0722
  2453 035b:0725  2454 035b:0728  2455 035b:072b  2458 035b:072e
  2460 035b:072f  2486 035b:0730  2487 035b:0731  2489 035b:0733
  2491 035b:073a  2492 035b:073b  2497 035b:073c  2499 035b:073d
  2500 035b:0741  2501 035b:0744  2502 035b:0747  2504 035b:0749
  2507 035b:074a  2508 035b:074e  2509 035b:0751  2513 035b:0753
  2514 035b:0755  2515 035b:075d  2517 035b:0762  2521 035b:0764
  2522 035b:0766  2524 035b:076a  2525 035b:076e  2529 035b:0773
  2530 035b:0776  2534 035b:0778  2535 035b:077a  2536 035b:077d
  2537 035b:077f  2541 035b:0780  2542 035b:0782  2543 035b:0783
  2544 035b:0785  2545 035b:0786  2547 035b:0788  2549 035b:078b
  2552 035b:078d  2555 035b:0793  2556 035b:0796  2558 035b:079b
  2559 035b:079f  2561 035b:07a2  2562 035b:07a5  2564 035b:07a7
  2565 035b:07aa  2569 035b:07ac  2570 035b:07ae  2572 035b:07b0
  2573 035b:07b4  2574 035b:07b8  2575 035b:07bb  2576 035b:07bf
  2580 035b:07c3  2581 035b:07c6  2585 035b:07c8  2586 035b:07cb
  2588 035b:07cd  2589 035b:07d1  2593 035b:07d5  2594 035b:07d8
  2596 035b:07da  2597 035b:07e0  2599 035b:07e2  2600 035b:07e8
  2602 035b:07ea  2604 035b:07f0  2605 035b:07f3  2607 035b:07f5
  2609 035b:07fb  2610 035b:07fe  2616 035b:0800  2618 035b:0805
  2620 035b:080b  2621 035b:080e  2623 035b:0810  2625 035b:0811
  2627 035b:0814  2631 035b:0817  2632 035b:081a  2633 035b:081d
  2635 035b:0820  2636 035b:0823  2638 035b:0827  2641 035b:0828
  2642 035b:082b  2644 035b:082d  2646 035b:082e  2648 035b:0831
  2650 035b:0834  2651 035b:0836  2653 035b:0838  2654 035b:083a
  2656 035b:083c  2657 035b:083f  2659 035b:0841  2660 035b:0843
  2661 035b:0845  2664 035b:084e  2667 035b:084f  2668 035b:0852
  2670 035b:0854  2672 035b:0855  2674 035b:085b  2676 035b:085e
  2678 035b:0861  2681 035b:0864  2682 035b:0866  2684 035b:0868
  2686 035b:086b  2689 035b:086c  2690 035b:086f  2692 035b:0871
  2694 035b:0877  2695 035b:087a  2697 035b:087c  2699 035b:087d
  2701 035b:0880  2703 035b:0883  2706 035b:0884  2707 035b:0887
  2709 035b:0889  2713 035b:088e  2714 035b:0891  2716 035b:0893
  2719 035b:0894  2720 035b:0897  2723 035b:089a  2724 035b:089d
  2726 035b:08a0  2729 035b:08a1  2732 035b:08a4  2738 035b:08a8
  2741 035b:08af  2743 035b:08b0  2766 035b:08b3  2768 035b:08b7
  2769 035b:08ba  2770 035b:08c2  2772 035b:08c4  2773 035b:08c6
  2775 035b:08c8  2776 035b:08cd  2780 035b:08cf  2782 035b:08d3
  2784 035b:08d4  2785 035b:08d6  2787 035b:08d8  2788 035b:08da
  2790 035b:08dc  2791 035b:08de  2793 035b:08e0  2795 035b:08e2
  2800 035b:08e6  2801 035b:08e8  2802 035b:08e9  2804 035b:08ea
  2805 035b:08ec  2807 035b:08ee  2808 035b:08f0  2810 035b:08f2
  2811 035b:08f4  2816 035b:08f6  2817 035b:08f8  2819 035b:08fa
  2820 035b:08fc  2821 035b:08ff  2822 035b:0901  2824 035b:0905
  2826 035b:0906  2829 035b:0908  2831 035b:0909  2833 035b:090d
  2854 035b:090e  2856 035b:090f  2860 035b:0910  2861 035b:0912
  2863 035b:0914  2864 035b:0916  2867 035b:0918  2870 035b:091b
  2872 035b:091e  2873 035b:0920  2875 035b:0922  2877 035b:0928
  2880 035b:092a  2881 035b:092c  2883 035b:092e  2885 035b:0934
  2888 035b:0936  2889 035b:0938  2891 035b:093a  2893 035b:0940
  2896 035b:0942  2897 035b:0944  2899 035b:0946  2901 035b:094c
  2904 035b:094e  2905 035b:0950  2907 035b:0952  2909 035b:0958
  2912 035b:095a  2913 035b:095c  2915 035b:095e  2917 035b:0964
  2920 035b:0966  2921 035b:0968  2923 035b:096a  2924 035b:0970
  2926 035b:0972  2928 035b:0978  2931 035b:097a  2932 035b:097c
  2934 035b:097e  2935 035b:097f  2936 035b:0981  2938 035b:0983
  2940 035b:0985  2941 035b:098b  2943 035b:098d  2946 035b:098f
  2947 035b:0990  2950 035b:0992  2952 035b:0997  2955 035b:099a
  2956 035b:099c  2958 035b:099e  2960 035b:09a4  2963 035b:09a7
  2964 035b:09a9  2966 035b:09ab  2968 035b:09b0  2971 035b:09b3
  2972 035b:09b5  2974 035b:09b7  2975 035b:09b8  2976 035b:09ba
  2978 035b:09bc  2979 035b:09be  2981 035b:09c0  2982 035b:09c2
  2984 035b:09c4  2985 035b:09c6  2987 035b:09c8  2988 035b:09ca
  2990 035b:09cc  2993 035b:09ce  2994 035b:09d3  2997 035b:09d5
  2998 035b:09da  3001 035b:09dc  3003 035b:09e1  3006 035b:09e4
  3007 035b:09e6  3009 035b:09e8  3010 035b:09e9  3012 035b:09eb
  3014 035b:09ec  3015 035b:09ee  3016 035b:09f1  3018 035b:09f3
  3020 035b:09f4  3021 035b:09f8  3026 035b:09fb  3029 035b:09fe
  3031 035b:0a01  3033 035b:0a02  3057 035b:0a03  3060 035b:0a05
  3061 035b:0a06  3065 035b:0a08  3066 035b:0a0b  3068 035b:0a0f
  3069 035b:0a12  3070 035b:0a14  3072 035b:0a17  3073 035b:0a19
  3077 035b:0a1b  3078 035b:0a20  3080 035b:0a22  3082 035b:0a25
  3083 035b:0a27  3085 035b:0a29  3086 035b:0a2b  3088 035b:0a2d
  3089 035b:0a2f  3091 035b:0a31  3093 035b:0a34  3095 035b:0a35
  3098 035b:0a37  3100 035b:0a38  3102 035b:0a3a  3126 035b:0a3b
  3130 035b:0a40  3134 035b:0a42  3136 035b:0a45  3137 035b:0a47
  3139 035b:0a49  3140 035b:0a4c  3142 035b:0a4e  3143 035b:0a51
  3145 035b:0a53  3147 035b:0a56  3148 035b:0a59  3149 035b:0a5b
  3150 035b:0a5d  3154 035b:0a5f  3156 035b:0a60  3157 035b:0a62
  3159 035b:0a64  3160 035b:0a66  3165 035b:0a68  3167 035b:0a6b
  3168 035b:0a6d  3170 035b:0a6f  3171 035b:0a72  3173 035b:0a74
  3174 035b:0a76  3175 035b:0a78  3179 035b:0a7a  3181 035b:0a7b
  3182 035b:0a7d  3184 035b:0a7f  3185 035b:0a81  3190 035b:0a83
  3192 035b:0a86  3193 035b:0a88  3195 035b:0a8a  3196 035b:0a8d
  3198 035b:0a8f  3199 035b:0a91  3200 035b:0a93  3205 035b:0a95
  3206 035b:0a99  3211 035b:0a9b  3212 035b:0a9e  3213 035b:0aa0
  3214 035b:0aa4  3216 035b:0aa6  3218 035b:0aa8  3219 035b:0aaa
  3221 035b:0aae  3223 035b:0ab2  3224 035b:0ab4  3226 035b:0ab6
  3228 035b:0ab9  3230 035b:0aba  3233 035b:0abc  3235 035b:0abd
  3237 035b:0ac2  3258 035b:0ac3  3259 035b:0ac5  3261 035b:0ac7
  3262 035b:0ac9  3264 035b:0acb  3266 035b:0acd  3290 035b:0ace
  3294 035b:0ad0  3295 035b:0ad2  3297 035b:0ad4  3299 035b:0ad5
  3300 035b:0ad7  3302 035b:0ad9  3303 035b:0adb  3305 035b:0add
  3306 035b:0adf  3310 035b:0ae0  3311 035b:0ae2  3312 035b:0ae7
  3314 035b:0ae9  3316 035b:0aeb  3317 035b:0aed  3318 035b:0af2
  3319 035b:0af4  3320 035b:0af6  3324 035b:0af7  3325 035b:0af9
  3326 035b:0afc  3328 035b:0afe  3331 035b:0b00  3333 035b:0b01
  3335 035b:0b02  3338 035b:0b04  3340 035b:0b05  3341 035b:0b07
  3343 035b:0b09  3345 035b:0b0a  3347 035b:0b0c

Line numbers for RET\LOADCOM.OBJ(.\LOADCOM.asm) segment NCODE

  3371 00ef:0a63  3379 00ef:0a64  3381 00ef:0a65  3382 00ef:0a68
  3384 00ef:0a71  3385 00ef:0a72  3386 00ef:0a76  3388 00ef:0a77
  3390 00ef:0a78  3403 00ef:0a7b  3405 00ef:0a7e  3406 00ef:0a80
  3408 00ef:0a85  3410 00ef:0a89  3411 00ef:0a8b  3413 00ef:0a90
  3415 00ef:0a94  3417 00ef:0a97  3425 00ef:0a98  3427 00ef:0a9c
  3428 00ef:0a9e  3429 00ef:0aa6  3431 00ef:0aa8  3433 00ef:0aaa
  3434 00ef:0aac  3435 00ef:0aaf  3436 00ef:0ab4  3438 00ef:0abc
  3440 00ef:0ac0  3442 00ef:0ac4  3456 00ef:0ac5  3458 00ef:0ac9
  3459 00ef:0acb  3460 00ef:0ad3  3462 00ef:0ad5  3464 00ef:0ad7
  3465 00ef:0ad9  3466 00ef:0adc  3468 00ef:0ae4  3470 00ef:0ae8
  3472 00ef:0aec  3492 00ef:0aed  3494 00ef:0af4  3495 00ef:0afa
  3496 00ef:0afe  3497 00ef:0b00  3498 00ef:0b02  3499 00ef:0b04
  3500 00ef:0b06  3501 00ef:0b0a  3503 00ef:0b0e  3504 00ef:0b0f
  3508 00ef:0b10  3511 00ef:0b12  3513 00ef:0b16  3514 00ef:0b1b
  3516 00ef:0b1d  3517 00ef:0b1e  3518 00ef:0b22  3519 00ef:0b25
  3520 00ef:0b27  3521 00ef:0b29  3523 00ef:0b2b  3525 00ef:0b2f
  3526 00ef:0b32  3528 00ef:0b34  3529 00ef:0b38  3531 00ef:0b3a
  3534 00ef:0b3c  3536 00ef:0b3f  3539 00ef:0b46  3558 00ef:0b47
  3560 00ef:0b4e  3561 00ef:0b4f  3564 00ef:0b50  3565 00ef:0b54
  3567 00ef:0b56  3570 00ef:0b58  3571 00ef:0b5a  3572 00ef:0b5e
  3573 00ef:0b63  3575 00ef:0b65  3581 00ef:0b67  3582 00ef:0b6c
  3584 00ef:0b6e  3585 00ef:0b6f  3586 00ef:0b73  3587 00ef:0b76
  3588 00ef:0b78  3590 00ef:0b7a  3593 00ef:0b81  3594 00ef:0b84
  3596 00ef:0b86  3599 00ef:0b88  3600 00ef:0b8a  3602 00ef:0b8c
  3605 00ef:0b8e  3606 00ef:0b91  3607 00ef:0b95  3608 00ef:0b98
  3610 00ef:0b9a  3613 00ef:0b9c  3615 00ef:0b9f  3616 00ef:0ba1
  3619 00ef:0ba5  3621 00ef:0bac  3624 00ef:0bb3  3637 00ef:0bb4
  3641 00ef:0bba  3642 00ef:0bc0  3644 00ef:0bc2  3646 00ef:0bc7
  3647 00ef:0bcd  3649 00ef:0bcf  3651 00ef:0bd4  3652 00ef:0bda
  3654 00ef:0bdc  3655 00ef:0bdf  3656 00ef:0be0  3657 00ef:0be3
  3658 00ef:0be9  3660 00ef:0bef  3663 00ef:0bf1  3664 00ef:0bf7
  3665 00ef:0bfa  3666 00ef:0bfb  3668 00ef:0bfe  3669 00ef:0c01
  3672 00ef:0c04  3673 00ef:0c0a  3675 00ef:0c10  3676 00ef:0c16
  3678 00ef:0c18  3682 00ef:0c1e  3683 00ef:0c22  3685 00ef:0c24
  3686 00ef:0c26  3687 00ef:0c2a  3688 00ef:0c2d  3692 00ef:0c2f
  3694 00ef:0c32  3695 00ef:0c35  3700 00ef:0c37  3703 00ef:0c39
  3705 00ef:0c3d  3706 00ef:0c40  3708 00ef:0c42  3709 00ef:0c47
  3711 00ef:0c49  3714 00ef:0c4b  3716 00ef:0c4f  3719 00ef:0c51
  3721 00ef:0c54  3723 00ef:0c58  3724 00ef:0c5d  3726 00ef:0c60
  3729 00ef:0c66  3807 00ef:0c67  3808 00ef:0c6b  3810 00ef:0c6d
  3812 00ef:0c71  3815 00ef:0c73  3817 00ef:0c77  3830 00ef:0c78
  3832 00ef:0c7c  3833 00ef:0c80  3836 00ef:0c84  3837 00ef:0c87
  3839 00ef:0c89  3840 00ef:0c8b  3841 00ef:0c95  3842 00ef:0c97
  3844 00ef:0ca1  3846 00ef:0ca5  3863 00ef:0ca6  3865 00ef:0ca7
  3866 00ef:0cad  3868 00ef:0caf  3869 00ef:0cb0  3871 00ef:0cb3
  3872 00ef:0cb9  3874 00ef:0cbb  3875 00ef:0cbf  3876 00ef:0cc0
  3880 00ef:0cc3  3883 00ef:0cc6  3885 00ef:0cc7  3900 00ef:0cc8
  3902 00ef:0ccc  3903 00ef:0cd2  3905 00ef:0cd4  3906 00ef:0cd7
  3908 00ef:0cd9  3909 00ef:0cdf  3911 00ef:0ce1  3912 00ef:0ce7
  3914 00ef:0ce9  3917 00ef:0cee  3920 00ef:0cf2  3921 00ef:0cf6
  3923 00ef:0cf9  3924 00ef:0cfa  3926 00ef:0cfb  3927 00ef:0cfc
  3929 00ef:0cfe  3931 00ef:0cff  3933 00ef:0d04  3935 00ef:0d07
  3938 00ef:0d0b  3952 00ef:0d0c  3954 00ef:0d0f  3955 00ef:0d10
  3958 00ef:0d11  3959 00ef:0d17  3961 00ef:0d19  3962 00ef:0d1f
  3964 00ef:0d21  3966 00ef:0d27  3967 00ef:0d2d  3969 00ef:0d31
  3970 00ef:0d34  3972 00ef:0d37  3973 00ef:0d3a  3975 00ef:0d3d
  3976 00ef:0d40  3978 00ef:0d43  3979 00ef:0d46  3980 00ef:0d49
  3981 00ef:0d4c  3986 00ef:0d4f  3987 00ef:0d51  3992 00ef:0d59
  3995 00ef:0d5c

Line numbers for RET\GETSIZE.OBJ(.\GETSIZE.asm) segment NCODE

   212 00ef:0d5d   214 00ef:0d5f   217 00ef:0d64   218 00ef:0d6a
   220 00ef:0d6c   221 00ef:0d72   223 00ef:0d74   224 00ef:0d7a
   226 00ef:0d7c   227 00ef:0d7f   229 00ef:0d81   230 00ef:0d87
   232 00ef:0d89   233 00ef:0d8b   234 00ef:0d8c   236 00ef:0d91
   237 00ef:0d97   239 00ef:0d99   241 00ef:0d9b   243 00ef:0d9d
   245 00ef:0da0   248 00ef:0da2   250 00ef:0da5   252 00ef:0da6
   255 00ef:0da8   257 00ef:0daa   259 00ef:0dab   262 00ef:0dad
   290 00ef:0dae   292 00ef:0daf   293 00ef:0db2   295 00ef:0db4
   298 00ef:0db6   299 00ef:0dbb   301 00ef:0dbd   302 00ef:0dc3
   304 00ef:0dc5   305 00ef:0dc6   306 00ef:0dcb   309 00ef:0dcd
   310 00ef:0dd3   312 00ef:0dd5   313 00ef:0ddb   315 00ef:0ddd
   318 00ef:0ddf   320 00ef:0de2   322 00ef:0de3   325 00ef:0de4
   352 00ef:0de5   354 00ef:0de7   356 00ef:0de9   358 00ef:0df2
   360 00ef:0df4   361 00ef:0df6   362 00ef:0df8   363 00ef:0dfa
   365 00ef:0dfc   366 00ef:0dfe   370 00ef:0e00   371 00ef:0e02
   372 00ef:0e04   377 00ef:0e06   378 00ef:0e07   380 00ef:0e09
   381 00ef:0e0c   383 00ef:0e0d   386 00ef:0e0f   388 00ef:0e12
   389 00ef:0e17   391 00ef:0e19   392 00ef:0e1f   398 00ef:0e21
   399 00ef:0e24   401 00ef:0e28   405 00ef:0e2a   406 00ef:0e2c
   407 00ef:0e2d   409 00ef:0e2f   411 00ef:0e33   412 00ef:0e37
   416 00ef:0e39   417 00ef:0e3d   418 00ef:0e42   420 00ef:0e43
   423 00ef:0e44   450 00ef:0e45   453 00ef:0e47   454 00ef:0e4a
   457 00ef:0e4c   459 00ef:0e4e   460 00ef:0e4f   464 00ef:0e51
   465 00ef:0e56   467 00ef:0e58   468 00ef:0e5e   471 00ef:0e60
   472 00ef:0e63   475 00ef:0e65   478 00ef:0e68   480 00ef:0e6a
   481 00ef:0e6b   483 00ef:0e6d   484 00ef:0e70   486 00ef:0e72
   489 00ef:0e74   491 00ef:0e75   493 00ef:0e77   510 00ef:0e78
   515 00ef:0e7f   517 00ef:0e83   518 00ef:0e89   520 00ef:0e8b
   521 00ef:0e8e   522 00ef:0e92   523 00ef:0e94   525 00ef:0e95
   526 00ef:0e9b   532 00ef:0e9d   533 00ef:0ea0   536 00ef:0ea4
   538 00ef:0ea8   542 00ef:0eae   543 00ef:0eb0   548 00ef:0eb2
   549 00ef:0eb6   555 00ef:0eb7   556 00ef:0ebd   559 00ef:0ebf
   561 00ef:0ec5   564 00ef:0ec9   565 00ef:0ecd   566 00ef:0ed1
   568 00ef:0ed2   569 00ef:0ed4   571 00ef:0ed6   572 00ef:0ed8
   574 00ef:0eda   575 00ef:0edc   576 00ef:0edd   577 00ef:0edf
   578 00ef:0ee1   579 00ef:0ee5   580 00ef:0ee9   584 00ef:0eed
   586 00ef:0ef0   591 00ef:0ef5   592 00ef:0ef7   593 00ef:0efb
   601 00ef:0efc   602 00ef:0f02   605 00ef:0f04   606 00ef:0f08
   608 00ef:0f0a   609 00ef:0f0d   611 00ef:0f0f   612 00ef:0f10
   614 00ef:0f13   615 00ef:0f17   616 00ef:0f1a   617 00ef:0f1c
   618 00ef:0f1f   619 00ef:0f22   620 00ef:0f25   621 00ef:0f28
   626 00ef:0f2c   627 00ef:0f32   632 00ef:0f34   633 00ef:0f3a
   635 00ef:0f3c   636 00ef:0f40   638 00ef:0f42   639 00ef:0f46
   642 00ef:0f48   643 00ef:0f4e   648 00ef:0f50   664 00ef:0f53
   666 00ef:0f56   667 00ef:0f5a   669 00ef:0f5c   670 00ef:0f5e
   671 00ef:0f60   673 00ef:0f62   674 00ef:0f64   675 00ef:0f68
   676 00ef:0f6c   677 00ef:0f70   678 00ef:0f72   679 00ef:0f75
   683 00ef:0f77   684 00ef:0f79   685 00ef:0f7b   686 00ef:0f7e
   687 00ef:0f81   689 00ef:0f83   691 00ef:0f88   692 00ef:0f8a
   693 00ef:0f8c   694 00ef:0f92   695 00ef:0f94   696 00ef:0f98
   700 00ef:0f9a   702 00ef:0f9d   705 00ef:0f9f   706 00ef:0fa1
   707 00ef:0fa4   708 00ef:0fa8   711 00ef:0fac   712 00ef:0faf
   713 00ef:0fb3   717 00ef:0fb5   718 00ef:0fb9   722 00ef:0fbc
   723 00ef:0fbd   727 00ef:0fbe   728 00ef:0fc4   733 00ef:0fc6
   734 00ef:0fc9   735 00ef:0fcc   737 00ef:0fcf   738 00ef:0fd2
   740 00ef:0fd6   741 00ef:0fd9   745 00ef:0fdd   746 00ef:0fe1
   747 00ef:0fe3   749 00ef:0fe5   750 00ef:0fe9   752 00ef:0feb
   753 00ef:0fee   755 00ef:0ff2   758 00ef:0ff8   759 00ef:0ffe
   764 00ef:1000   765 00ef:1003   767 00ef:1007   768 00ef:100b
   769 00ef:100c   772 00ef:100f   775 00ef:1016   794 00ef:1017
   797 00ef:101c   798 00ef:1023   800 00ef:1025   801 00ef:102a
   802 00ef:102f   803 00ef:1033   804 00ef:1035   808 00ef:1037
   810 00ef:103c   811 00ef:103d   813 00ef:1042   814 00ef:1046
   819 00ef:1048   822 00ef:104a   824 00ef:104b   827 00ef:1054
   828 00ef:1056   830 00ef:1058   832 00ef:105a   833 00ef:105d
   834 00ef:105e   835 00ef:1061   837 00ef:1062   839 00ef:1064
   843 00ef:1065   844 00ef:1067   845 00ef:106b   848 00ef:106d
   849 00ef:1071   851 00ef:1073   854 00ef:1078

Line numbers for RET\GETSIZE.OBJ(.\GETSIZE.asm) segment UCODE

   878 035b:0b0d   882 035b:0b0f   883 035b:0b12   884 035b:0b15
   886 035b:0b18   887 035b:0b1c   892 035b:0b1f   893 035b:0b25
   896 035b:0b27   897 035b:0b2a   899 035b:0b2d   900 035b:0b31
   902 035b:0b34   904 035b:0b36   921 035b:0b37   923 035b:0b3a
   927 035b:0b3d   928 035b:0b43   930 035b:0b45   931 035b:0b4b
   933 035b:0b50   937 035b:0b55   941 035b:0b58   942 035b:0b5d
   943 035b:0b5e   945 035b:0b61   946 035b:0b64   947 035b:0b66
   948 035b:0b6a   950 035b:0b6d   955 035b:0b70   956 035b:0b73
   959 035b:0b76   960 035b:0b7a   962 035b:0b7e   963 035b:0b81
   964 035b:0b84   965 035b:0b88   969 035b:0b8c   970 035b:0b8f
   971 035b:0b92   972 035b:0b96   975 035b:0b99   976 035b:0b9f
   979 035b:0ba1   980 035b:0ba4   982 035b:0ba7   983 035b:0bab
   984 035b:0bad   986 035b:0baf   987 035b:0bb3   989 035b:0bb5
   990 035b:0bb8   992 035b:0bbc   993 035b:0bbf   994 035b:0bc1
   995 035b:0bc3   996 035b:0bc7   998 035b:0bca   999 035b:0bce
  1001 035b:0bd0  1003 035b:0bd3  1005 035b:0bd6

Line numbers for RET\GETSIZE.OBJ(.\GETSIZE.asm) segment NCODE

  1033 00ef:1079  1035 00ef:107a  1036 00ef:107c  1037 00ef:107e
  1038 00ef:1080  1039 00ef:1083  1041 00ef:1086  1043 00ef:1087
  1064 00ef:1088  1066 00ef:108a  1067 00ef:108c  1068 00ef:108e
  1069 00ef:1091  1070 00ef:1093  1072 00ef:1095  1074 00ef:1097

Line numbers for RET\LOADCO2.OBJ(.\LOADCO2.asm) segment NCODE

   192 00ef:1098   194 00ef:109b   195 00ef:10a1   198 00ef:10a3
   199 00ef:10a8   201 00ef:10aa   202 00ef:10ad   203 00ef:10af
   205 00ef:10b2   207 00ef:10b5   228 00ef:10b6   230 00ef:10bc
   231 00ef:10bd   234 00ef:10be   235 00ef:10c3   237 00ef:10c5
   238 00ef:10ca   241 00ef:10cd   242 00ef:10d3   244 00ef:10d5
   247 00ef:10d8   248 00ef:10dd   251 00ef:10df   252 00ef:10e3
   253 00ef:10e5   255 00ef:10e7   256 00ef:10ea   257 00ef:10ec
   260 00ef:10ef   263 00ef:10f0   264 00ef:10f3   265 00ef:10f6
   266 00ef:10fa   267 00ef:10fd   269 00ef:10ff   271 00ef:1100
   273 00ef:1102   274 00ef:110b   275 00ef:110c   277 00ef:110e
   279 00ef:1111   283 00ef:1113   286 00ef:1119   308 00ef:111a
   310 00ef:1123   311 00ef:1124   314 00ef:1125   315 00ef:112b
   317 00ef:112d   320 00ef:1130   321 00ef:1135   324 00ef:1137
   325 00ef:113b   326 00ef:113d   328 00ef:113f   330 00ef:1143
   331 00ef:1146   332 00ef:114a   335 00ef:114d   338 00ef:114e
   339 00ef:1151   340 00ef:1154   341 00ef:1158   342 00ef:115b
   344 00ef:115d   346 00ef:115e   349 00ef:1160   350 00ef:1165
   352 00ef:1169   353 00ef:116d   354 00ef:116f   355 00ef:1172
   357 00ef:1176   358 00ef:1178   360 00ef:117a   362 00ef:117d
   365 00ef:117f   367 00ef:1184   368 00ef:1189   370 00ef:118b
   371 00ef:1190   374 00ef:1193   377 00ef:119c

Line numbers for RET\LOADCO2.OBJ(.\LOADCO2.asm) segment ACODE

   432 0296:067a   434 0296:067e   435 0296:0684   437 0296:0686
   442 0296:0689   446 0296:068d   447 0296:0690   448 0296:0692
   449 0296:0695   450 0296:0698   460 0296:069c   461 0296:069f
   462 0296:06a1   463 0296:06a3   464 0296:06a5   465 0296:06a7
   467 0296:06a9   471 0296:06ad   472 0296:06af   474 0296:06b3
   475 0296:06b6   477 0296:06b8   482 0296:06bd   483 0296:06bf
   484 0296:06c7   486 0296:06cc   487 0296:06cf   491 0296:06d1
   492 0296:06d3   493 0296:06d7   495 0296:06d9   496 0296:06dd
   498 0296:06df   500 0296:06e2   502 0296:06e6   503 0296:06ec
   505 0296:06ee   506 0296:06f4   508 0296:06f6   509 0296:06fc
   511 0296:06fe   512 0296:0703   513 0296:0705   515 0296:0707
   516 0296:070c   517 0296:070e   519 0296:0710   520 0296:0715
   522 0296:0717   523 0296:071d   525 0296:071f   527 0296:0725
   528 0296:072b   530 0296:072d   532 0296:072f   533 0296:0733
   536 0296:0735   537 0296:0738   539 0296:073a   540 0296:073d
   547 0296:073f   548 0296:0742   551 0296:0744   552 0296:0747
   555 0296:0749   556 0296:074c   559 0296:074e   561 0296:0752
   562 0296:0758   564 0296:075a   565 0296:075f   568 0296:0761
   570 0296:0764   571 0296:0767   572 0296:076a   574 0296:076b
   576 0296:076c   577 0296:0772   579 0296:0774   581 0296:0777
   583 0296:0778   585 0296:077c

Line numbers for RET\MACFNS.OBJ(.\MACFNS.asm) segment NCODE

    81 00ef:119d    83 00ef:119e    86 00ef:11a3    87 00ef:11a9
    89 00ef:11ab    90 00ef:11b1    92 00ef:11b3    94 00ef:11b5
    95 00ef:11b7    97 00ef:11b9    98 00ef:11ba   100 00ef:11bf
   101 00ef:11c1   103 00ef:11c3   106 00ef:11c5   109 00ef:11c7
   111 00ef:11ca   114 00ef:11cc   116 00ef:11cf   118 00ef:11d0
   121 00ef:11d2   123 00ef:11d7   125 00ef:11d8   128 00ef:11d9
   157 00ef:11da   159 00ef:11dc   161 00ef:11df   163 00ef:11e1
   166 00ef:11e3   168 00ef:11e6   170 00ef:11e8   172 00ef:11ed
   174 00ef:11ee   176 00ef:11ef   179 00ef:11f1   211 00ef:11f2
   213 00ef:11f6   215 00ef:11f7   216 00ef:11fa   217 00ef:11fc
   219 00ef:11ff   222 00ef:1204   223 00ef:120a   225 00ef:120c
   226 00ef:1212   228 00ef:1214   230 00ef:1218   231 00ef:121b
   233 00ef:121d   235 00ef:121e   238 00ef:1220   239 00ef:1222
   241 00ef:1224   243 00ef:1228   244 00ef:122a   246 00ef:122c
   247 00ef:1232   248 00ef:1234   251 00ef:1236   252 00ef:1238
   254 00ef:123a   255 00ef:123c   257 00ef:123e   260 00ef:1240
   261 00ef:1242   263 00ef:1244   265 00ef:1246   266 00ef:1248
   267 00ef:1249   269 00ef:124e   270 00ef:1254   272 00ef:1256
   274 00ef:1258   275 00ef:1259   277 00ef:125b   280 00ef:125d
   282 00ef:125f   284 00ef:1260   287 00ef:1262   289 00ef:1265
   292 00ef:1267   294 00ef:126a   295 00ef:126b   297 00ef:126c
   299 00ef:126d   301 00ef:126e   304 00ef:1272   332 00ef:1273
   334 00ef:1275   335 00ef:127a   336 00ef:127c   338 00ef:127e
   339 00ef:1284   341 00ef:1286   342 00ef:1289   344 00ef:128b
   346 00ef:128d   349 00ef:128f   350 00ef:1294   351 00ef:1296
   353 00ef:1297   354 00ef:129a   356 00ef:129c   357 00ef:129e
   358 00ef:129f   360 00ef:12a4   362 00ef:12a5   365 00ef:12a7
   367 00ef:12aa   369 00ef:12ab   372 00ef:12ad   398 00ef:12ae
   400 00ef:12b2   401 00ef:12b7   402 00ef:12b9   410 00ef:12be
   412 00ef:12c0   414 00ef:12c5   415 00ef:12cb   417 00ef:12cd
   418 00ef:12cf   419 00ef:12d0   421 00ef:12d5   424 00ef:12d7
   425 00ef:12dd   427 00ef:12df   428 00ef:12e5   430 00ef:12e7
   431 00ef:12ed   433 00ef:12ef   434 00ef:12f4   436 00ef:12f5
   441 00ef:12f7   442 00ef:12f9   444 00ef:12fb   449 00ef:12fd
   450 00ef:1300   451 00ef:1305   452 00ef:1306   453 00ef:1309
   454 00ef:130e   456 00ef:1310   457 00ef:1315   462 00ef:1317
   463 00ef:1319   464 00ef:131e   465 00ef:1320   467 00ef:1321
   468 00ef:1323   469 00ef:1324   471 00ef:1326   473 00ef:1327
   474 00ef:1329   476 00ef:132e   479 00ef:132f   480 00ef:1334
   481 00ef:133b   483 00ef:133f   485 00ef:1340   488 00ef:1342
   490 00ef:1345   493 00ef:1347   495 00ef:134a   497 00ef:134c
   499 00ef:134d   502 00ef:1351   525 00ef:1352   530 00ef:1354
   531 00ef:1359   533 00ef:135b   535 00ef:1362   536 00ef:1368
   538 00ef:136a   539 00ef:1370   541 00ef:1372   542 00ef:1374
   543 00ef:1375   545 00ef:137a   548 00ef:137c   551 00ef:137e
   553 00ef:137f   556 00ef:1381

Line numbers for RET\UTIL_NUM.OBJ(R:\MAX\386max\UTIL_NUM.asm) segment UCODE

    67 035b:0bd7    68 035b:0bd8    69 035b:0bdb    71 035b:0bdd
    73 035b:0bde    75 035b:0be4    76 035b:0be9    78 035b:0beb
    79 035b:0bee    81 035b:0bf1    82 035b:0bf2    85 035b:0bf3
    87 035b:0bf6    88 035b:0bf8    90 035b:0bf9    92 035b:0bfb
    95 035b:0bfe    96 035b:0c00    97 035b:0c02    98 035b:0c03
    99 035b:0c04   101 035b:0c06   102 035b:0c08   103 035b:0c0a
   105 035b:0c0c   106 035b:0c11   108 035b:0c13   110 035b:0c14
   111 035b:0c17   113 035b:0c19   114 035b:0c1a   115 035b:0c1c
   116 035b:0c1d   118 035b:0c1e   120 035b:0c1f   123 035b:0c21
   124 035b:0c24   127 035b:0c26   128 035b:0c2b   130 035b:0c2d
   133 035b:0c30   134 035b:0c31   136 035b:0c34   139 035b:0c3a
   141 035b:0c3b   142 035b:0c3e   144 035b:0c3f   166 035b:0c42
   168 035b:0c43   170 035b:0c46   172 035b:0c47   173 035b:0c49
   174 035b:0c4b   177 035b:0c4d   179 035b:0c4f   181 035b:0c50
   184 035b:0c52   186 035b:0c54   188 035b:0c55

Line numbers for RET\UTIL_USE.OBJ(R:\MAX\386max\UTIL_USE.asm) segment ACODE

    95 0296:077d    99 0296:0780   100 0296:0782   101 0296:078a
   103 0296:078c   107 0296:078e   108 0296:0790   110 0296:0794
   111 0296:0797   115 0296:0799   116 0296:079b   118 0296:079f
   119 0296:07a1   121 0296:07a3   123 0296:07a7   125 0296:07a8
   128 0296:07aa   130 0296:07ae   132 0296:07af   134 0296:07b2
   152 0296:07b3   154 0296:07ba   155 0296:07be   157 0296:07c3
   158 0296:07c4   163 0296:07c5   164 0296:07c9   165 0296:07cd
   166 0296:07cf   168 0296:07d3   169 0296:07d6   171 0296:07db
   172 0296:07df   176 0296:07e5   177 0296:07e7   178 0296:07e9
   180 0296:07eb   181 0296:07ed   182 0296:07f1   184 0296:07f5
   187 0296:07f7   188 0296:07f9   192 0296:07fb   193 0296:07fd
   195 0296:07ff   196 0296:0803   198 0296:0807   199 0296:0809
   203 0296:080b   205 0296:0811   213 0296:0813   215 0296:0817
   218 0296:0819   219 0296:081a   220 0296:081f   224 0296:0821
   225 0296:0827   227 0296:0829   228 0296:082f   230 0296:0831
   232 0296:0832   233 0296:0834   235 0296:0836   236 0296:083c
   241 0296:083e   243 0296:0842   246 0296:0844   247 0296:0846
   248 0296:084a   249 0296:0850   251 0296:0854   253 0296:0857
   255 0296:085a   262 0296:085c   263 0296:085e   264 0296:0862
   265 0296:0864   267 0296:0866   268 0296:086a   269 0296:086b
   271 0296:086f   272 0296:0873   273 0296:0875   275 0296:0879
   276 0296:087b   278 0296:087e   280 0296:0880   282 0296:0884
   284 0296:0885   288 0296:0887   290 0296:0888   293 0296:088f

Line numbers for RET\UTIL_WIN.OBJ(R:\MAX\386max\UTIL_WIN.asm) segment CODE

    71 0077:06c9    73 0077:06cd    74 0077:06d0    81 0077:06d2
    82 0077:06d4    84 0077:06d6    85 0077:06d8    87 0077:06da
    88 0077:06dc    90 0077:06de    92 0077:06e3    93 0077:06e5
    96 0077:06e7    97 0077:06ea    98 0077:06ed   102 0077:06ef
   103 0077:06f1   104 0077:06f3   105 0077:06f6   107 0077:06f8
   108 0077:06fc   110 0077:0700   113 0077:0704   134 0077:0705
   137 0077:0706   138 0077:070c   140 0077:070e   141 0077:0710
   143 0077:0717   145 0077:0719   148 0077:071b   149 0077:071d
   152 0077:0722   154 0077:0723