
 Start  Stop   Length Name                   Class
 00000H 00000H 00000H STACK                  PROG
 00000H 0435DH 0435EH CODE                   PROG
 04360H 0723CH 02EDDH DATA                   DATA
 07240H 07240H 00000H DTAIL                  ZDATA

 Origin   Group
 0000:0   AGROUP
 0000:0   PGROUP

  Address         Publics by Name

 0000:43DE       ALLMEM_DTE
 0000:43F4       ALLMEM_SEL
 0000:43EC       BIOS_SEL
 0000:4A89       BKEYIN
 0000:1758       CHECK_ARGS
 0000:4262       CHKHIWORD
 0000:156D       CLEANUP
 0000:43F6       CODE_SEG
 0000:43EE       CODE_SEL
 0000:2604       COMMIT_UNPAGE
 0000:43F8       DATA_SEG
 0000:43F0       DATA_SEL
 0000:20F9       DBGEXC_CLR
 0000:20A9       DBGEXC_QRY
 0000:20D0       DBGEXC_RST
 0000:5CE0       DBGHNDL
 0000:5CDF       DBGTEST
 0000:5CE3       DBG_CNT
 0000:5CE2       DBG_FLAG
 0000:5C10       DDS
 0000:4308       DISP_DPMIERR
 0000:2F7B       DISP_EMUGET
 0000:4462       DOSREGS
 0000:6E70       DPMIERR_CODE
 0000:6E9A       DPMIERR_MSG
 0000:4432       DPMIFMI
 0000:0100       DPMITEST
 0000:43FA       DPMIVER
 0000:461C       ERR_EPM
 0000:4644       ERR_MODEDETECT
 0000:4600       ERR_NODPMI
 0000:465E       ERR_NOPRIVATE
 0000:4B0B       EXECD_PARMS
 0000:4AFD       EXEC_PARMS
 0000:5CCE       FBASE
 0000:5CC8       FHNDL
 0000:5CCA       FSIZE
 0000:24DD       GET_UNPAGE
 0000:6CF6       HEXTABLE
 0000:5C38       HNDLUNPAGE
 0000:1905       HOOKMEI
 0000:3F2F       I15CALLBACK
 0000:2122       INT01_DEBUG
 0000:15D3       INT06_RETFD
 0000:1BF2       INT0B_RETFD
 0000:16B3       INT0D_CALLF
 0000:21EF       INT0D_DEBUG
 0000:169F       INT0D_JMPF
 0000:1614       INT0D_LPMF
 0000:1623       INT0D_RETFD
 0000:3FA5       INT0D_RETFD_FIX1
 0000:2F15       INT0D_RETFD_FIX2
 0000:3FA2       INT0D_RETFD_PREFIX1
 0000:2F12       INT0D_RETFD_PREFIX2
 0000:254B       INT0E_UNPAGE
 0000:39D5       INT10_CALLF
 0000:39BB       INT10_JMPF
 0000:3C97       INT16_CALLF
 0000:3C77       INT16_IRETD
 0000:3C83       INT16_JMPF
 0000:3CD9       INT1C_CALLF
 0000:3CB3       INT1C_IRETD
 0000:3CC5       INT1C_JMPF
 0000:3E51       INT21_CALLF
 0000:3E31       INT21_IRETD
 0000:3E3D       INT21_JMPF
 0000:1415       INT21_NEST
 0000:43E8       INT21_NESTREC
 0000:1556       INT21_VM
 0000:1565       INT23_VM
 0000:43FC       INT31_CNT
 0000:16CF       INT31_DISP
 0000:2E55       INT91_VM
 0000:1D9E       INTC0
 0000:620C       INTSTK16
 0000:62D9       INTSTK32
 0000:63C4       INTSTKEXP
 0000:5CC6       INVSEL
 0000:4388       LADATA
 0000:5C34       LAUNPAGE
 0000:4A49       LCLDIR
 0000:4A46       LCLDRV
 0000:451B       LCLREGS
 0000:4B64       LCLSTK
 0000:5364       LCLSTKZ
 0000:4A9F       LCL_FCB
 0000:43EA       LCL_FLAG
 0000:28D6       LCL_INT06
 0000:2B16       LCL_INT0D_VMEX
 0000:4AC4       LCL_XFCB
 0000:173B       LE_HOWDY
 0000:4AF0       LOADEXEC
 0000:1721       LOADEXEC_CODE
 0000:183B       LOWERCASE
 0000:5CD4       MEI_BUTTON
 0000:5CD6       MEI_HCUR
 0000:5CD2       MEI_MASK
 0000:5CD8       MEI_VCUR
 0000:43C4       MEMHNDL1
 0000:43C8       MEMHNDL2
 0000:5A24       MSG_ARGERR
 0000:647D       MSG_CALLF
 0000:4592       MSG_COPY
 0000:45FD       MSG_CRLF
 0000:5CE4       MSG_DBGEXC_ERRBP
 0000:5D08       MSG_DBGEXC_ERRBS
 0000:6D51       MSG_DPMI
 0000:4B24       MSG_DPMIFN
 0000:612A       MSG_EMR0
 0000:6148       MSG_EMR1
 0000:60C6       MSG_EMV0
 0000:60E6       MSG_EMV1
 0000:721B       MSG_ERRNF
 0000:4859       MSG_FATAD2
 0000:47B1       MSG_FATADR
 0000:5DAF       MSG_FILEFND
 0000:5A4B       MSG_HELP
 0000:4987       MSG_INDOS
 0000:6064       MSG_INTC0_PARM
 0000:4A22       MSG_LCLDRV
 0000:5DDB       MSG_LSTLST
 0000:6102       MSG_MPR0
 0000:6118       MSG_MPR1
 0000:6081       MSG_MPV0
 0000:60A4       MSG_MPV1
 0000:6172       MSG_NDP00
 0000:618C       MSG_NDP01
 0000:619D       MSG_NDP02
 0000:61AE       MSG_NDP03
 0000:61BF       MSG_NDP04
 0000:61DF       MSG_NDP05
 0000:4B3D       MSG_NEST
 0000:4959       MSG_NEWDTA
 0000:5D75       MSG_NOGPFCALL
 0000:5D35       MSG_NOIOPCALL
 0000:5E2B       MSG_NOVDS
 0000:5EC4       MSG_NOVSAPI00
 0000:5EEC       MSG_NOVSAPI01
 0000:5E70       MSG_NOVSAPI2F
 0000:5E9A       MSG_NOVSAPI31
 0000:492D       MSG_PMDTA
 0000:6D0F       MSG_QDPMI
 0000:49BE       MSG_RW
 0000:4770       MSG_RW_CLOS
 0000:4687       MSG_RW_CREA
 0000:470D       MSG_RW_FULL
 0000:46C9       MSG_RW_WRIT
 0000:4901       MSG_VMDTA
 0000:5F14       MSG_VSAPI2F
 0000:6000       MSG_VSAPI2F_LDT
 0000:5F9C       MSG_VSAPI2F_VER
 0000:5F58       MSG_VSAPI31
 0000:6032       MSG_VSAPI31_LDT
 0000:5FCE       MSG_VSAPI31_VER
 0000:6D29       MSG_WIN3
 0000:43E6       NESTLVL
 0000:4384       NEWDTA_VEC
 0000:5C80       OLDINT01_DVEC
 0000:5C98       OLDINT01_FVEC
 0000:438C       OLDINT06_DVEC
 0000:43A0       OLDINT06_FVEC
 0000:5C84       OLDINT0B_DVEC
 0000:5C9E       OLDINT0B_FVEC
 0000:4390       OLDINT0D_DVEC
 0000:43A6       OLDINT0D_FVEC
 0000:5C88       OLDINT0E_DVEC
 0000:5CA4       OLDINT0E_FVEC
 0000:5C8C       OLDINT10_DVEC
 0000:5CAA       OLDINT10_FVEC
 0000:4394       OLDINT15_DVEC
 0000:5C90       OLDINT16_DVEC
 0000:5CB0       OLDINT16_FVEC
 0000:5C94       OLDINT1C_DVEC
 0000:5CB6       OLDINT1C_FVEC
 0000:4398       OLDINT21_DVEC
 0000:43AC       OLDINT21_FVEC
 0000:43B8       OLDINT21_VECN
 0000:43BC       OLDINT21_VECX
 0000:43C0       OLDINT23_VECX
 0000:439C       OLDINT31_DVEC
 0000:43B2       OLDINT31_FVEC
 0000:5C54       OLDINT91_VEC
 0000:5C58       OLDINTC0_VEC
 0000:43FE       OLDMSW
 0000:5CDC       OLDNDP
 0000:1739       PARENT
 0000:49B6       PARSFCOM
 0000:5C5C       PHYS1_ADDR
 0000:5C64       PHYS1_LA
 0000:5C60       PHYS1_LEN
 0000:5C68       PHYS2_ADDR
 0000:5C70       PHYS2_LA
 0000:5C6C       PHYS2_LEN
 0000:5C74       PHYS3_ADDR
 0000:5C7C       PHYS3_LA
 0000:5C78       PHYS3_LEN
 0000:6E1E       PMMSG_FLEC_RM
 0000:6E42       PMMSG_FLEC_VM
 0000:6DBD       PMMSG_GREET
 0000:5E0C       PMMSG_PRESS
 0000:6E00       PMMSG_VM
 0000:6162       PMSG_MPV
 0000:6200       PMSG_NDP
 0000:4155       PMSHOW_HOSTINFO
 0000:0080       PSP_PARM_COUNT
 0000:0081       PSP_PARM_STRING
 0000:43F2       PSP_SEL
 0000:6D06       QDPMI
 0000:49C9       READWRITE
 0000:0049  Abs  READWRITE_LEN
 0000:49D9       READWRITE_TXT
 0000:2513       REL_UNPAGE
 0000:4364       RMS2PM_VEC
 0000:4368       RMS2VM_FVEC
 0000:5DD2       ROOTSYS
 0000:5C3C       SAVE_EBP
 0000:4209       SETHIWORD
 0000:40BF       SHOW_HOSTINFO
 0000:405F       SHOW_WIN3
 0000:1830       SKIP_WHITE
 0000:4372       SSRPM_DVEC
 0000:4376       SSRPM_FVEC
 0000:436E       SSRSIZ
 0000:437C       SSRVM_VEC
 0000:43CC       STK_DTE
 0000:43D4       STK_FVEC
 0000:43DA       STK_VEC
 0000:2234       TEST_CALLF
 0000:1DFE       TEST_DBGEXC
 0000:384B       TEST_DOSFIND
 0000:3A7D       TEST_DOSLST
 0000:3CF5       TEST_DOSMEM
 0000:2E6B       TEST_EMUPRIV
 0000:35AD       TEST_FILEFNS
 0000:3F4F       TEST_GPTERM
 0000:3037       TEST_INT15CB
 0000:3E6D       TEST_INT16
 0000:351F       TEST_LPMFAULT
 0000:1846       TEST_MOUSE
 0000:2F45       TEST_NDPEMU
 0000:3AF1       TEST_NEST1C
 0000:38E2       TEST_NTBIT
 0000:316B       TEST_P2L
 0000:1AB9       TEST_SEGNOTPRES
 0000:1C3A       TEST_SIMVMI
 0000:39F7       TEST_SPURNT
 0000:3771       TEST_SSR
 0000:2D56       TEST_UDSI
 0000:2338       TEST_UNPAGE
 0000:1927       TEST_VDS
 0000:2647       TEST_VMEX
 0000:320D       TEST_VSAPI
 0000:326D       TEST_VSAPI_SUB
 0000:41B6       TODEC
 0000:41DD       TOHEX
 0000:5CC4       UNPAGE_ATTR
 0000:5CC0       UNPAGE_CNT
 0000:5CBC       UNPAGE_OFF
 0000:5CDE       UNP_FLAG
 0000:4360       VM2PM_VEC
 0000:15AE       VMCALLBACK
 0000:4380       VMCB_VEC
 0000:4400       VMCREGS
 0000:5D34       VMEX_FLAG
 0000:5E64       VSAPI1_TAB
 0000:5C4C       VSAPI2F_DVEC
 0000:5C40       VSAPI2F_FVEC
 0000:5E68       VSAPI2_TAB
 0000:5C50       VSAPI31_DVEC
 0000:5C46       VSAPI31_FVEC
 0000:5E6C       VSAPI3_TAB
 0000:4B5E       VSAPI_NAME
 0000:5E47       VSAPI_NAME1
 0000:5E51       VSAPI_NAME2
 0000:5E5B       VSAPI_NAME3
 0000:6CF4       WIN3_VER
 0000:5C20       XDDS
 0000:5CDA       XORFL
 0000:1DDD       XORFLAGS
 0000:7240       ZTAIL
 0000:0000  Abs  _edata
 0000:0000  Abs  _end
 0000:0000  Abs  __edata
 0000:0000  Abs  __end

  Address         Publics by Value

 0000:0000  Abs  __edata
 0000:0000  Abs  _edata
 0000:0000  Abs  __end
 0000:0000  Abs  _end
 0000:0049  Abs  READWRITE_LEN
 0000:0080       PSP_PARM_COUNT
 0000:0081       PSP_PARM_STRING
 0000:0100       DPMITEST
 0000:1415       INT21_NEST
 0000:1556       INT21_VM
 0000:1565       INT23_VM
 0000:156D       CLEANUP
 0000:15AE       VMCALLBACK
 0000:15D3       INT06_RETFD
 0000:1614       INT0D_LPMF
 0000:1623       INT0D_RETFD
 0000:169F       INT0D_JMPF
 0000:16B3       INT0D_CALLF
 0000:16CF       INT31_DISP
 0000:1721       LOADEXEC_CODE
 0000:1739       PARENT
 0000:173B       LE_HOWDY
 0000:1758       CHECK_ARGS
 0000:1830       SKIP_WHITE
 0000:183B       LOWERCASE
 0000:1846       TEST_MOUSE
 0000:1905       HOOKMEI
 0000:1927       TEST_VDS
 0000:1AB9       TEST_SEGNOTPRES
 0000:1BF2       INT0B_RETFD
 0000:1C3A       TEST_SIMVMI
 0000:1D9E       INTC0
 0000:1DDD       XORFLAGS
 0000:1DFE       TEST_DBGEXC
 0000:20A9       DBGEXC_QRY
 0000:20D0       DBGEXC_RST
 0000:20F9       DBGEXC_CLR
 0000:2122       INT01_DEBUG
 0000:21EF       INT0D_DEBUG
 0000:2234       TEST_CALLF
 0000:2338       TEST_UNPAGE
 0000:24DD       GET_UNPAGE
 0000:2513       REL_UNPAGE
 0000:254B       INT0E_UNPAGE
 0000:2604       COMMIT_UNPAGE
 0000:2647       TEST_VMEX
 0000:28D6       LCL_INT06
 0000:2B16       LCL_INT0D_VMEX
 0000:2D56       TEST_UDSI
 0000:2E55       INT91_VM
 0000:2E6B       TEST_EMUPRIV
 0000:2F12       INT0D_RETFD_PREFIX2
 0000:2F15       INT0D_RETFD_FIX2
 0000:2F45       TEST_NDPEMU
 0000:2F7B       DISP_EMUGET
 0000:3037       TEST_INT15CB
 0000:316B       TEST_P2L
 0000:320D       TEST_VSAPI
 0000:326D       TEST_VSAPI_SUB
 0000:351F       TEST_LPMFAULT
 0000:35AD       TEST_FILEFNS
 0000:3771       TEST_SSR
 0000:384B       TEST_DOSFIND
 0000:38E2       TEST_NTBIT
 0000:39BB       INT10_JMPF
 0000:39D5       INT10_CALLF
 0000:39F7       TEST_SPURNT
 0000:3A7D       TEST_DOSLST
 0000:3AF1       TEST_NEST1C
 0000:3C77       INT16_IRETD
 0000:3C83       INT16_JMPF
 0000:3C97       INT16_CALLF
 0000:3CB3       INT1C_IRETD
 0000:3CC5       INT1C_JMPF
 0000:3CD9       INT1C_CALLF
 0000:3CF5       TEST_DOSMEM
 0000:3E31       INT21_IRETD
 0000:3E3D       INT21_JMPF
 0000:3E51       INT21_CALLF
 0000:3E6D       TEST_INT16
 0000:3F2F       I15CALLBACK
 0000:3F4F       TEST_GPTERM
 0000:3FA2       INT0D_RETFD_PREFIX1
 0000:3FA5       INT0D_RETFD_FIX1
 0000:405F       SHOW_WIN3
 0000:40BF       SHOW_HOSTINFO
 0000:4155       PMSHOW_HOSTINFO
 0000:41B6       TODEC
 0000:41DD       TOHEX
 0000:4209       SETHIWORD
 0000:4262       CHKHIWORD
 0000:4308       DISP_DPMIERR
 0000:4360       VM2PM_VEC
 0000:4364       RMS2PM_VEC
 0000:4368       RMS2VM_FVEC
 0000:436E       SSRSIZ
 0000:4372       SSRPM_DVEC
 0000:4376       SSRPM_FVEC
 0000:437C       SSRVM_VEC
 0000:4380       VMCB_VEC
 0000:4384       NEWDTA_VEC
 0000:4388       LADATA
 0000:438C       OLDINT06_DVEC
 0000:4390       OLDINT0D_DVEC
 0000:4394       OLDINT15_DVEC
 0000:4398       OLDINT21_DVEC
 0000:439C       OLDINT31_DVEC
 0000:43A0       OLDINT06_FVEC
 0000:43A6       OLDINT0D_FVEC
 0000:43AC       OLDINT21_FVEC
 0000:43B2       OLDINT31_FVEC
 0000:43B8       OLDINT21_VECN
 0000:43BC       OLDINT21_VECX
 0000:43C0       OLDINT23_VECX
 0000:43C4       MEMHNDL1
 0000:43C8       MEMHNDL2
 0000:43CC       STK_DTE
 0000:43D4       STK_FVEC
 0000:43DA       STK_VEC
 0000:43DE       ALLMEM_DTE
 0000:43E6       NESTLVL
 0000:43E8       INT21_NESTREC
 0000:43EA       LCL_FLAG
 0000:43EC       BIOS_SEL
 0000:43EE       CODE_SEL
 0000:43F0       DATA_SEL
 0000:43F2       PSP_SEL
 0000:43F4       ALLMEM_SEL
 0000:43F6       CODE_SEG
 0000:43F8       DATA_SEG
 0000:43FA       DPMIVER
 0000:43FC       INT31_CNT
 0000:43FE       OLDMSW
 0000:4400       VMCREGS
 0000:4432       DPMIFMI
 0000:4462       DOSREGS
 0000:451B       LCLREGS
 0000:4592       MSG_COPY
 0000:45FD       MSG_CRLF
 0000:4600       ERR_NODPMI
 0000:461C       ERR_EPM
 0000:4644       ERR_MODEDETECT
 0000:465E       ERR_NOPRIVATE
 0000:4687       MSG_RW_CREA
 0000:46C9       MSG_RW_WRIT
 0000:470D       MSG_RW_FULL
 0000:4770       MSG_RW_CLOS
 0000:47B1       MSG_FATADR
 0000:4859       MSG_FATAD2
 0000:4901       MSG_VMDTA
 0000:492D       MSG_PMDTA
 0000:4959       MSG_NEWDTA
 0000:4987       MSG_INDOS
 0000:49B6       PARSFCOM
 0000:49BE       MSG_RW
 0000:49C9       READWRITE
 0000:49D9       READWRITE_TXT
 0000:4A22       MSG_LCLDRV
 0000:4A46       LCLDRV
 0000:4A49       LCLDIR
 0000:4A89       BKEYIN
 0000:4A9F       LCL_FCB
 0000:4AC4       LCL_XFCB
 0000:4AF0       LOADEXEC
 0000:4AFD       EXEC_PARMS
 0000:4B0B       EXECD_PARMS
 0000:4B24       MSG_DPMIFN
 0000:4B3D       MSG_NEST
 0000:4B5E       VSAPI_NAME
 0000:4B64       LCLSTK
 0000:5364       LCLSTKZ
 0000:5A24       MSG_ARGERR
 0000:5A4B       MSG_HELP
 0000:5C10       DDS
 0000:5C20       XDDS
 0000:5C34       LAUNPAGE
 0000:5C38       HNDLUNPAGE
 0000:5C3C       SAVE_EBP
 0000:5C40       VSAPI2F_FVEC
 0000:5C46       VSAPI31_FVEC
 0000:5C4C       VSAPI2F_DVEC
 0000:5C50       VSAPI31_DVEC
 0000:5C54       OLDINT91_VEC
 0000:5C58       OLDINTC0_VEC
 0000:5C5C       PHYS1_ADDR
 0000:5C60       PHYS1_LEN
 0000:5C64       PHYS1_LA
 0000:5C68       PHYS2_ADDR
 0000:5C6C       PHYS2_LEN
 0000:5C70       PHYS2_LA
 0000:5C74       PHYS3_ADDR
 0000:5C78       PHYS3_LEN
 0000:5C7C       PHYS3_LA
 0000:5C80       OLDINT01_DVEC
 0000:5C84       OLDINT0B_DVEC
 0000:5C88       OLDINT0E_DVEC
 0000:5C8C       OLDINT10_DVEC
 0000:5C90       OLDINT16_DVEC
 0000:5C94       OLDINT1C_DVEC
 0000:5C98       OLDINT01_FVEC
 0000:5C9E       OLDINT0B_FVEC
 0000:5CA4       OLDINT0E_FVEC
 0000:5CAA       OLDINT10_FVEC
 0000:5CB0       OLDINT16_FVEC
 0000:5CB6       OLDINT1C_FVEC
 0000:5CBC       UNPAGE_OFF
 0000:5CC0       UNPAGE_CNT
 0000:5CC4       UNPAGE_ATTR
 0000:5CC6       INVSEL
 0000:5CC8       FHNDL
 0000:5CCA       FSIZE
 0000:5CCE       FBASE
 0000:5CD2       MEI_MASK
 0000:5CD4       MEI_BUTTON
 0000:5CD6       MEI_HCUR
 0000:5CD8       MEI_VCUR
 0000:5CDA       XORFL
 0000:5CDC       OLDNDP
 0000:5CDE       UNP_FLAG
 0000:5CDF       DBGTEST
 0000:5CE0       DBGHNDL
 0000:5CE2       DBG_FLAG
 0000:5CE3       DBG_CNT
 0000:5CE4       MSG_DBGEXC_ERRBP
 0000:5D08       MSG_DBGEXC_ERRBS
 0000:5D34       VMEX_FLAG
 0000:5D35       MSG_NOIOPCALL
 0000:5D75       MSG_NOGPFCALL
 0000:5DAF       MSG_FILEFND
 0000:5DD2       ROOTSYS
 0000:5DDB       MSG_LSTLST
 0000:5E0C       PMMSG_PRESS
 0000:5E2B       MSG_NOVDS
 0000:5E47       VSAPI_NAME1
 0000:5E51       VSAPI_NAME2
 0000:5E5B       VSAPI_NAME3
 0000:5E64       VSAPI1_TAB
 0000:5E68       VSAPI2_TAB
 0000:5E6C       VSAPI3_TAB
 0000:5E70       MSG_NOVSAPI2F
 0000:5E9A       MSG_NOVSAPI31
 0000:5EC4       MSG_NOVSAPI00
 0000:5EEC       MSG_NOVSAPI01
 0000:5F14       MSG_VSAPI2F
 0000:5F58       MSG_VSAPI31
 0000:5F9C       MSG_VSAPI2F_VER
 0000:5FCE       MSG_VSAPI31_VER
 0000:6000       MSG_VSAPI2F_LDT
 0000:6032       MSG_VSAPI31_LDT
 0000:6064       MSG_INTC0_PARM
 0000:6081       MSG_MPV0
 0000:60A4       MSG_MPV1
 0000:60C6       MSG_EMV0
 0000:60E6       MSG_EMV1
 0000:6102       MSG_MPR0
 0000:6118       MSG_MPR1
 0000:612A       MSG_EMR0
 0000:6148       MSG_EMR1
 0000:6162       PMSG_MPV
 0000:6172       MSG_NDP00
 0000:618C       MSG_NDP01
 0000:619D       MSG_NDP02
 0000:61AE       MSG_NDP03
 0000:61BF       MSG_NDP04
 0000:61DF       MSG_NDP05
 0000:6200       PMSG_NDP
 0000:620C       INTSTK16
 0000:62D9       INTSTK32
 0000:63C4       INTSTKEXP
 0000:647D       MSG_CALLF
 0000:6CF4       WIN3_VER
 0000:6CF6       HEXTABLE
 0000:6D06       QDPMI
 0000:6D0F       MSG_QDPMI
 0000:6D29       MSG_WIN3
 0000:6D51       MSG_DPMI
 0000:6DBD       PMMSG_GREET
 0000:6E00       PMMSG_VM
 0000:6E1E       PMMSG_FLEC_RM
 0000:6E42       PMMSG_FLEC_VM
 0000:6E70       DPMIERR_CODE
 0000:6E9A       DPMIERR_MSG
 0000:721B       MSG_ERRNF
 0000:7240       ZTAIL

Program entry point at 0000:0100
