
 Start  Stop   Length Name                   Class
 00000H 00000H 00000H STACK                  PROG                              
 00000H 0045EH 0045FH CODE                   PROG                              
 00460H 00BDBH 0077CH HICODE                 PROG                              
 00BE0H 00DCFH 001F0H ZCODE                  ZCODE                             
 00DD0H 00F33H 00164H BLINK                  BLINK                             
 00F34H 09AAFH 08B7CH ECODE                  ECODE                             
 09AB0H 09AEDH 0003EH DEBUG                  ECODE                             
 09AF0H 0C6B3H 02BC4H EDATA                  EDATA                             
 0C6B4H 0C875H 001C2H VALSEG                 EDATA                             
 0C880H 0C880H 00000H ZDATA                  ZDATA                             
 0C880H 0F48EH 02C0FH NCODE                  NCODE                             
 0F490H 0FEEFH 00A60H NDATA                  NDATA                             
 0FEF0H 0FEFFH 00010H FIXUP                  FIXUP                             
 0FF00H 0FFD3H 000D4H FIX_PGROUP             FIXUP                             
 0FFD4H 0FFD4H 00000H FIXZ_PGROUP            FIXUP                             
 0FFD4H 10113H 00140H FIX_IGROUP             FIXUP                             
 10114H 10114H 00000H FIXZ_IGROUP            FIXUP                             
 10114H 1024BH 00138H FIX_JGROUP             FIXUP                             
 1024CH 1024CH 00000H FIXZ_JGROUP            FIXUP                             
 1024CH 1024CH 00000H FIXUPZ                 FIXUP                             
 1024CH 1113EH 00EF3H FDATA                  FIXUP                             
 11140H 11140H 00000H FDATZ                  FIXUP                             
 11140H 1119FH 00060H SCODE                  SCODE                             
 111A0H 117EFH 00650H LCODE                  ICODE                             
 117F0H 117F7H 00008H LDATA                  ICODE                             
 117F8H 117F8H 00000H LCODZ                  ICODE                             
 117F8H 1D767H 0BF70H ICODE                  ICODE                             
 1D768H 1ECDBH 01574H IDATA                  IDATA                             
 1ECDCH 1F577H 0089CH ACTSEG                 IDATA                             
 1F578H 1F578H 00000H IDATZ                  IDATA                             
 1F580H 1F580H 00000H JCOD0                  JCODE                             
 1F580H 2587BH 062FCH JCODE                  JCODE                             
 2587CH 25F97H 0071CH JDATA                  JCODE                             
 25F98H 25F98H 00000H JCODZ                  JCODE                             
 25FA0H 26110H 00171H DLCODE                 DLCODE                            
 26112H 26153H 00042H DLDATA                 DLCODE                            
 26154H 26154H 00000H DLDATZ                 DLCODE                            
 26160H 26187H 00028H DL2CODE                DL2CODE                           
 26188H 2618DH 00006H DL2DATA                DL2CODE                           
 26190H 26190H 00000H DL2DATZ                DL2CODE                           
 26190H 309B4H 0A825H XCODE                  XCODE                             
 309B8H 33037H 02680H XDATA                  XDATA                             
 33038H 33179H 00142H SEG_TAB                XDATA                             
 3317AH 332BBH 00142H SEG_LEN                XDATA                             
 332BCH 3353FH 00284H SEG_ACT                XDATA                             
 33540H 33569H 0002AH WBPAT_SEG              XDATA                             
 3356AH 3356AH 00000H WBPAT_END              XDATA                             
 33570H 33573H 00004H RAM_EXT                XDATA                             
 33574H 36F83H 03A10H YDATA                  YDATA                             
 36F90H 36F93H 00004H YDATZ                  YDATA                             
 36FA0H 36FA0H 00000H PDTSEG                 PDTGRP                            

 Origin   Group
 0FEF:0   FGROUP                                                               
 111A:0   IGROUP                                                               
 1F58:0   JGROUP                                                               
 0000:0   PGROUP                                                               
 1114:0   SGROUP                                                               
 2619:0   XGROUP                                                               
 3357:4   YGROUP                                                               
 25FA:0   DLGROUP                                                              
 2616:0   DL2GROUP                                                             
 0000:0   RGROUP                                                               
 0000:0   AGROUP                                                               
 F000:0   CGROUP                                                               
 36FA:0   PDTGRP                                                               
 0000:0   PSPGRP                                                               

  Address         Publics by Name

 0000:0080      Abs  $$ASP
 0000:00400000  Abs  $$CLI
 0000:0002      Abs  $$CS
 0000:0008      Abs  $$DS
 0000:0001      Abs  $$ES
 0000:0800      Abs  $$ESCOD
 0000:1000      Abs  $$FJMP
 0000:0010      Abs  $$FS
 0000:0020      Abs  $$GS
 0000:00200000  Abs  $$HLT
 0000:00020000  Abs  $$INDB
 0000:00040000  Abs  $$INDW
 0000:2000      Abs  $$INIB
 0000:4000      Abs  $$INIW
 0000:0100      Abs  $$LOCK
 0000:0040      Abs  $$OSP
 0000:00080000  Abs  $$OUTDB
 0000:00100000  Abs  $$OUTDW
 0000:8000      Abs  $$OUTIB
 0000:00010000  Abs  $$OUTIW
 0000:0400      Abs  $$REP
 0000:0200      Abs  $$REPNE
 0000:0004      Abs  $$SS
 0000:00800000  Abs  $$STI
 0000:0000      Abs  @A20DEF
 0000:0000      Abs  @AMRS_FREE
 0000:00FF      Abs  @AMRS_INUSE
 0000:1000      Abs  @BSCSIZE
 0000:000F      Abs  @CFGLIST_LEN
 0000:04CF      Abs  @CHECKER_LEN
 0000:8000      Abs  @ENVLEN
 0000:0080      Abs  @ERR_MOV
 0000:0040      Abs  @ERR_PRO
 0000:0020      Abs  @ERR_TIM
 0000:0040      Abs  @HMAPSIZE
 0000:0001      Abs  @HOOK13_ACTIV
 0000:0002      Abs  @HOOK13_INACT
 0000:0000      Abs  @HOOK13_OFF
 0000:0000      Abs  @H_AVAIL
 0000:0001      Abs  @H_INUSE
 0000:2000      Abs  @IOMAP
 0000:0400      Abs  @IO_LIM
 0000:0005      Abs  @KERNEL_PATCHOFF
 0000:001E      Abs  @LKERNEL_MODEL
 0000:00FF      Abs  @MAX_EHNDLCNT
 0000:0010      Abs  @MAX_FREE_REG
 0000:0100      Abs  @MAX_FREE_UMBS
 0000:0100      Abs  @MAX_XHNDLCNT
 0000:0040      Abs  @MPPBASE
 0000:000B      Abs  @MSG_STAT_ROWCNT
 0000:0012      Abs  @OVR_HPDALEND
 0000:0005      Abs  @OVR_HPDALENP
 0000:0080      Abs  @PPL0STK_INT
 2619:0000           @QMAX_ARG_XCODE
 0000:C880           @QMAX_BCF_NCODE
 2619:0E8A           @QMAX_BCF_XCODE
 111A:8458           @QMAX_BSM_ICODE
 2619:1437           @QMAX_CPQ_XCODE
 111A:13D0           @QMAX_D10_ICODE
 111A:1514           @QMAX_D15_ICODE
 111A:15DC           @QMAX_D21_ICODE
 111A:29BC           @QMAX_D33_ICODE
 0000:9AB0           @QMAX_DBG_DEBUG
 111A:2E3C           @QMAX_DIF_ICODE
 2619:1B5D           @QMAX_DM2_XCODE
 0000:0F34           @QMAX_DMA_ECODE
 0000:147C           @QMAX_EM2_ECODE
 1F58:0000           @QMAX_EM2_JCODE
 111A:0000           @QMAX_EM2_LCODE
 0000:17A0           @QMAX_EM4_ECODE
 0000:1F38           @QMAX_EMX_ECODE
 0000:28B2           @QMAX_EVM_ECODE
 0000:CA7B           @QMAX_EVM_NCODE
 0000:E57F           @QMAX_FCN_NCODE
 2619:1FAC           @QMAX_FCN_XCODE
 0000:2CA4           @QMAX_I09_ECODE
 0000:2E2C           @QMAX_I0D_ECODE
 1F58:0EBC           @QMAX_I0D_JCODE
 0000:33D8           @QMAX_I0E_ECODE
 0000:3A60           @QMAX_I15_ECODE
 111A:0058           @QMAX_I15_LCODE
 0000:3A64           @QMAX_I21_ECODE
 0000:3FA4           @QMAX_I31_ECODE
 111A:0658           @QMAX_I31_ICODE
 1F58:1BCC           @QMAX_I4B_JCODE
 0000:4028           @QMAX_I67_ECODE
 0000:4C08           @QMAX_IDT_ECODE
 1F58:28EC           @QMAX_IDT_JCODE
 1114:0000           @QMAX_IDT_SCODE
 0000:923C           @QMAX_IM2_ECODE
 1F58:3588           @QMAX_IM2_JCODE
 0000:6404           @QMAX_IN2_ECODE
 2619:3D6F           @QMAX_IN2_XCODE
 0000:64F4           @QMAX_INI_ECODE
 0000:E61A           @QMAX_INI_NCODE
 2619:4632           @QMAX_INI_XCODE
 0000:6530           @QMAX_IOP_ECODE
 0000:E629           @QMAX_IOP_NCODE
 111A:4E08           @QMAX_J31_ICODE
 1F58:357C           @QMAX_J31_JCODE
 111A:5688           @QMAX_K31_ICODE
 0000:0DD0           @QMAX_KEY_BLINK
 0000:6DC4           @QMAX_KEY_ECODE
 0000:9138           @QMAX_L31_ECODE
 111A:65A8           @QMAX_L31_ICODE
 0000:6E2C           @QMAX_LOD_ECODE
 0000:E9A1           @QMAX_LOD_NCODE
 2619:603F           @QMAX_LOD_XCODE
 111A:8CB0           @QMAX_LSM_ICODE
 111A:7620           @QMAX_M31_ICODE
 2619:A5B3           @QMAX_M31_XCODE
 0000:6F8C           @QMAX_MAC_ECODE
 2619:60C3           @QMAX_MAC_XCODE
 0000:EC26           @QMAX_MEM_NCODE
 2619:6535           @QMAX_MEM_XCODE
 0000:9160           @QMAX_N31_ECODE
 111A:7F2C           @QMAX_N31_ICODE
 111A:0534           @QMAX_N31_LCODE
 2619:6F74           @QMAX_OEM_XCODE
 0000:6F90           @QMAX_OSE_ECODE
 0000:0460           @QMAX_OVR_HICODE
 0000:0CA8           @QMAX_OVR_ZCODE
 0000:7304           @QMAX_PDT_ECODE
 0000:7460           @QMAX_PMR_ECODE
 0000:9A10           @QMAX_PNP_ECODE
 2619:A78E           @QMAX_PNP_XCODE
 2619:6F75           @QMAX_POS_XCODE
 111A:9640           @QMAX_PPM_ICODE
 1F58:59D0           @QMAX_RSP_JCODE
 0000:EC81           @QMAX_SCR_NCODE
 1F58:53CC           @QMAX_SHR_JCODE
 2619:75B9           @QMAX_SIZ_XCODE
 0000:75D8           @QMAX_STA_ECODE
 0000:ED37           @QMAX_STA_NCODE
 2619:8590           @QMAX_STA_XCODE
 0000:75F8           @QMAX_SWP_ECODE
 0000:ED49           @QMAX_SYS_NCODE
 2619:8793           @QMAX_SYS_XCODE
 0000:77C0           @QMAX_TIM_ECODE
 0000:EDF7           @QMAX_TIM_NCODE
 2619:9F89           @QMAX_TIM_XCODE
 0000:7858           @QMAX_VCP_ECODE
 2619:A4B8           @QMAX_VCP_XCODE
 111A:9D54           @QMAX_VME_ICODE
 0000:92F4           @QMAX_VMM_ECODE
 0000:8090           @QMAX_XMS_ECODE
 0000:1234      Abs  @ROMOFF
 0000:FFFE      Abs  @RPN_IDENT
 0000:FFFF      Abs  @RPN_UNMAP
 0000:00FF      Abs  @RPN_UNUSED
 0000:0064      Abs  @UMB_INST_N
 0000:0014      Abs  @WIN3_IMPORT_PRODUCT_LEN
 0000:0014      Abs  @WIN3_IMPORT_VENDOR_LEN
 0000:0001      Abs  @XLAT_DOS
 0000:0009      Abs  @XLAT_EMS
 0000:000D      Abs  @XLAT_EXC
 0000:000C      Abs  @XLAT_INC
 0000:0002      Abs  @XLAT_LOW
 0000:0008      Abs  @XLAT_OTH
 0000:0004      Abs  @XLAT_OVR
 0000:000E      Abs  @XLAT_PSM
 0000:0005      Abs  @XLAT_ROM0
 0000:0006      Abs  @XLAT_ROM1
 0000:0007      Abs  @XLAT_ROM2
 0000:0000      Abs  @XLAT_UNK
 0000:0003      Abs  @XLAT_VID
 0000:000B      Abs  @XLAT_XHI
 0000:000A      Abs  @XLAT_XLO
 0000:C4D4           A20CNT
 0000:0372           A20COM_I78
 0000:0357           A20COM_I92
 0000:037B           A20COM_ISA
 0000:035F           A20COM_QUD
 0000:036B           A20COM_XT
 0000:0CC1           A20DIS_I78
 0000:0CB8           A20DIS_I92
 0000:0CC4           A20DIS_ISA
 0000:0CBB           A20DIS_QUD
 0000:0CBE           A20DIS_XT
 0000:034F           A20ENA_I78
 0000:0346           A20ENA_I92
 0000:0352           A20ENA_ISA
 0000:0349           A20ENA_QUD
 0000:034C           A20ENA_XT
 0000:C2DC           A20SUP
 2619:CA4A           ABIOS_SYS
 2619:0E0E           ABORT_IGNORE
 0000:BD30           ACCKEY
 0000:03D1           ACTA20_COM
 0000:01EE           ACTA20_COMSUB
 0000:0CAE           ACTA20_DIS
 0000:01F0           ACTA20_ENA
 1F58:538D           ACTIVATE_HOOK13
 0000:4933           ACTIVE_PAGES
 1F58:1139           ADD_LSEG
 0000:4B4A           ALLOCEMS
 0000:936F           ALLOCMEM
 0000:94E1           ALLOCMEM_SUB
 0000:C65C           ALLOC_LIM
 0000:BE47           ALTMAPREG_FNS
 2619:AEA2           ALT_VIRT_DEV_NAME
 2619:AEA4           ALT_VIRT_DEV_NAME_LEN
 2619:CE39           AMIBIOS
 0000:BD3E           AMRS_TAB
 0000:8EB1           APPEND_E2X
 0000:8E6D           APPEND_EXT
 2619:2028           ARGEND
 2619:AEB4           ARGSTK
 2619:AFB4           ARGSTKZ
 0000:A978           ASTMIO_HI
 0000:A974           ASTMIO_LO
 0000:020D           AT386_CFG
 0000:020F           AT386_RAB
 0000:0211           AT386_RCD
 0000:0213           AT386_REF
 3357:3757           AZS_BLNKING
 3357:373F           AZS_WORKING
 2619:0D5E           BASE2BIN
 2619:0DB4           BASE2BIND
 0000:9BB0           BASEPAGE_INV
 0000:BF50           BASEPAGE_LEN
 2619:B230           BCFINTS
 0000:0008      Abs  BCFX_CNT
 2619:B5C0           BCFX_TBL
 0000:9B12           BCF_BASSIZE
 0000:9B0E           BCF_BIOSSIZE
 0000:9B04           BCF_CNT
 2619:233E           BCF_ERRCOM
 2619:2481           BCF_FIND
 0000:9B06           BCF_SEG
 0000:0EDB           BEEP
 0000:0030      Abs  BETA_H
 0000:0030      Abs  BETA_T
 0000:0034      Abs  BETA_U
 1F58:6318           BFLG_BASE
 1F58:6316           BFLG_IDX
 1F58:631A           BFLG_LIM
 0000:75D9           BIN2BASE
 2619:8591           BIND2BASE
 0000:0008      Abs  BINVERS_H
 0000:0003      Abs  BINVERS_TU
 2619:CBE0           BIOSCONF_VEC
 2619:4F23           BIOS_BLOCK_MOVE
 0000:9B16           BIOS_CRC128
 0000:9B14           BIOS_CRC64
 2619:AFD4           BIO_FIXBUF
 0000:0E3D           BLINK_LED
 0000:C688           BLOCKEDCLIENT
 0000:C684           BLOCKEDHANDLE
 0000:C68A           BLOCKEDSTATUS
 0000:C68B           BLOCKEDTYPE
 2619:205C           BOOTPAUSE
 111A:CD88           BSACTIVE
 0000:C5C4           BSAGECLOCK
 0000:C5C6           BSAGEMAX
 111A:CD8E           BSFHDR
 111A:CD9C           BSFTEMP
 111A:CD98           BSGTOTAL
 111A:CD80           BSHIT
 111A:CD2C           BSINUSE
 111A:CD1C           BSMAP
 111A:CD20           BSMAPTOP
 111A:CD24           BSMAX
 111A:CD28           BSMIN
 111A:CD84           BSMISS
 111A:8708           BSM_ALLOC
 111A:862B           BSM_CLOSE
 111A:8608           BSM_CREATE
 111A:8A14           BSM_FLUSH_CACHE
 111A:8765           BSM_FREE
 111A:887B           BSM_GETPAGE
 111A:880B           BSM_GET_CACHE_ENTRY
 111A:87A4           BSM_GROW
 111A:857B           BSM_GROWSWAP
 111A:8A74           BSM_GROW_MAP
 111A:8458           BSM_INIT
 111A:8652           BSM_INIT_CLIENT
 111A:8A49           BSM_INVALIDATE_CACHE_ENTRY
 111A:85E8           BSM_OPEN
 111A:88BD           BSM_PAGE_IO
 111A:8829           BSM_PUTPAGE
 111A:8797           BSM_QUERY
 111A:8A06           BSM_READ_PAGE
 111A:8C1A           BSM_RESTORE_HPDA_BUF
 111A:8B45           BSM_SAVE_HPDA_BUF
 111A:8ADE           BSM_SHUTDOWN
 111A:8AAD           BSM_TERMINATE_CLIENT
 111A:8A0D           BSM_WRITE_PAGE
 111A:CD30           BSPATH
 111A:CD94           BSTOTAL
 1F58:26B3           BUF2MEM
 1F58:26C5           BUF2MEM_SUB
 2619:C400           BUSDATA
 2619:C2D0           BUSHNDL
 2619:C2CC           BUSINT13_VEC
 2619:C2D2           BUSLEN
 2619:631B           BUSMASTER
 2619:C2D6           BUSPPN
 2619:C2D4           BUSSEG
 2619:C2F8           BUSSTK
 2619:C3F8           BUSSTKZ
 0000:66D2           BYTE_ADDRCNT
 0000:C466           CACHEMASK
 0000:A736           CACHESIZE
 0000:FEEE           CACHESZ_RM
 0000:2E2C           CACHE_INVD
 0000:F1E5           CACHE_PNP
 0000:72D2           CALC_ACCKEY
 2619:6DF2           CALC_ALLMEM
 2619:11DA           CALC_CRC
 1F58:0FF7           CALC_EXEHDR
 2619:7BB1           CALC_FORCE
 2619:603F           CALC_LODSTART
 2619:6CD1           CALC_MEMMAP
 2619:6568           CALC_NPHYS
 2619:6535           CALC_OVRSIZE
 0000:283C           CALC_PNPSUM
 2619:6A38           CALC_PPMTAB
 2619:5205           CALC_RESIDENT
 2619:0026           CALC_SCRN
 2619:7DBE           CALC_SIZE
 2619:85C1           CALC_STAT
 2619:1232           CALC_SUM
 2619:4A22           CALC_WIN3
 1F58:427E           CAPOVR_WIN3
 2619:CDE8           CA_ADDR1
 2619:CE00           CA_ADDR2
 2619:CDE0           CA_SIZE1
 2619:CDF8           CA_SIZE2
 2619:CA20           CDA_SEG
 2619:C104           CFGBITCNT
 2619:C105           CFGBITMAP
 2619:AEA6           CFGFILE
 0000:A9EA           CFGLIST
 0000:AA56           CFGLIST_XMEI
 0000:9AFE           CFG_CNT
 0000:9B00           CFG_LCNT
 0000:F492           CFG_LNXT
 0000:F490           CFG_SEG
 0000:6642           CHECK00OUT
 0000:6656           CHECK01OUT
 0000:6688           CHECK0AOUT
 0000:66A2           CHECK0BOUT
 0000:66B2           CHECK0COUT
 0000:66BA           CHECK0FOUT
 0000:6762           CHECK18OUT
 0000:65FA           CHECK1F8OUT
 0000:6614           CHECK310OUT
 0000:69F6           CHECK3B4OUT
 0000:6A3E           CHECK3B5INP
 0000:6A20           CHECK3B5OUT
 0000:666D           CHECK401OUT
 0000:687C           CHECK481INP
 0000:686C           CHECK481OUT
 0000:68BC           CHECK489INP
 0000:68AC           CHECK489OUT
 0000:6903           CHECK4C2OUT
 0000:6572           CHECK60INP
 0000:6544           CHECK60OUT
 0000:6596           CHECK64OUT
 0000:685C           CHECK81INP
 0000:684C           CHECK81OUT
 0000:689C           CHECK89INP
 0000:688C           CHECK89OUT
 0000:6832           CHECK92INP
 0000:680C           CHECK92OUT
 0000:68CB           CHECKC0OUT
 0000:68E8           CHECKC2OUT
 0000:691E           CHECKD4OUT
 0000:693A           CHECKD6OUT
 0000:694C           CHECKD8OUT
 0000:6954           CHECKDEOUT
 0000:BAD8           CHECKER_LEN
 0000:6544           CHECKFNS
 0000:65F3           CHECKFNS_A20
 0000:65DF           CHECKFNS_RESET
 0000:65C8           CHECKFNS_TEST
 0000:0DD1           CHECKPOINT
 2619:8A43           CHECK_288
 2619:96F3           CHECK_ALR
 2619:8C78           CHECK_AMI
 2619:974D           CHECK_AMSTRAD
 2619:097C           CHECK_ARGS
 2619:90A4           CHECK_ASEM
 2619:924E           CHECK_AST386
 111A:04CE           CHECK_BBMFILL
 2619:0F75           CHECK_BCF
 2619:AFE4           CHECK_BCFTAB
 2619:0E8A           CHECK_BCRC
 2619:48A3           CHECK_BPI
 2619:9000           CHECK_CA
 0000:3E37           CHECK_CFG_LINK
 0000:E57F           CHECK_CHIPSET
 0000:0A1C           CHECK_CLOSF
 2619:49DD           CHECK_CNV
 2619:9777           CHECK_CPQ386
 2619:98A3           CHECK_CPQCUT
 2619:6731           CHECK_CPQVID
 2619:4FA2           CHECK_CPUID
 2619:9955           CHECK_CROM
 0000:6B50           CHECK_DBG
 2619:95D1           CHECK_DELL
 2619:8A04           CHECK_DEVICE
 0000:12D0           CHECK_DMA
 0000:D9C7           CHECK_DMA_BOUNDARY
 2619:4B0D           CHECK_DOSVER
 2619:6013           CHECK_EISADMA
 2619:4D2A           CHECK_EISA_EXT
 2619:4C42           CHECK_EISA_SHD
 2619:52CD           CHECK_EMSDRV
 111A:BEA3           CHECK_ENVCFG
 0000:7BA8           CHECK_EPM
 2619:90C7           CHECK_EPSON
 2619:4B72           CHECK_EXT
 2619:8F00           CHECK_FASTRAM
 2619:91B9           CHECK_GATEWAY
 2619:93B2           CHECK_GRID
 0000:4A10           CHECK_HFRMSAV
 0000:8D7D           CHECK_HOOK
 2619:92A5           CHECK_HPRS
 2619:8EDD           CHECK_I78
 2619:8C8A           CHECK_I92
 2619:8F87           CHECK_INBRD
 2619:48BB           CHECK_INFO
 0000:6B5C           CHECK_INP
 0000:6A75           CHECK_IOTRAP
 2619:9355           CHECK_ITT
 2619:1B1B           CHECK_LOSTINT
 1F58:2A0C           CHECK_LOTUS
 0000:7CC7           CHECK_LOTUSPF
 0000:7CAE           CHECK_LOTUS_OLD
 2619:A75E           CHECK_MBOOT
 2619:8A7F           CHECK_MODEL
 2619:4939           CHECK_NDP
 2619:949C           CHECK_NEC
 2619:94E4           CHECK_NECLAP
 2619:9520           CHECK_OLI
 1F58:2A50           CHECK_ORPHSUB
 0000:6B7C           CHECK_OUT
 0000:12FC           CHECK_PART
 2619:8EBE           CHECK_PICBUG
 0000:0F34           CHECK_PMR
 2619:9C89           CHECK_PRVEXT
 0000:117C           CHECK_PTE
 2619:9D43           CHECK_QEXT
 2619:9202           CHECK_QUAD386
 0000:EC26           CHECK_RAM
 0000:0A64           CHECK_ROOM
 2619:9DED           CHECK_SHADOW
 2619:9C36           CHECK_SHDROM
 2619:4870           CHECK_SHIFT
 0000:EA8B           CHECK_SWAT
 2619:8CDF           CHECK_SYSID
 0000:6530           CHECK_SYSROM
 0000:1372           CHECK_TC
 0000:1441           CHECK_TERM
 2619:91DC           CHECK_TOSH
 2619:9970           CHECK_UNROM
 2619:1F1E           CHECK_USAGE
 0000:8DF9           CHECK_VDISK
 2619:4C7E           CHECK_VDS
 2619:6639           CHECK_VIDMEM
 2619:514A           CHECK_VM86
 0000:6A5C           CHECK_X
 2619:499F           CHECK_XBIOS
 0000:6A5E           CHECK_XINP
 2619:50D5           CHECK_XMS
 0000:6A6A           CHECK_XOUT
 1F58:1AED           CHECK_XSTACK
 2619:9711           CHECK_ZDS
 111A:048E           CHKMOVE
 2619:6995           CHK_ALIGN
 2619:00D3           CHK_CREG
 0000:25EE           CHK_XMOVE
 2619:1CE0           CLEAR_DMA
 0000:3E81           CLOSEHIGH
 1F58:0295           CLR_BITMAP
 111A:7A6F           CLR_LDT
 111A:7AE0           CLR_LDTZERO
 0000:291A           CLR_PARITY
 0000:98E6           CLR_XMSBMAP
 0000:01C6           CM2_FLAG
 0000:01C8           CM3_FLAG
 0000:A504           CM4_FLAG
 2619:D12C           CMDARG_ACT
 2619:CFEA           CMDARG_LEN
 2619:CEA8           CMDARG_TAB
 0000:01AE           CMDCOM_PAR
 0000:F5B6           CMDCOM_SIZ
 0000:F5A2           CMDCOM_VER
 0000:01C4           CMD_FLAG
 0000:BF9C           CMPSIZE
 0000:BFA4           CMPSIZEMM
 0000:BFA0           CMPSIZEXT
 2619:CE9A           CMP_COMMON
 2619:A743           CMP_SECT
 0000:B6F4           CNVBASE
 2619:A67B           CODESRCH
 2619:1437           COMPROM
 0000:B6AC           CON10FFF0
 0000:B6A0           CON128KB
 0000:B698           CON16KB
 0000:B6B8           CON16MB
 0000:B68C           CON1KB
 0000:B6A8           CON1MB
 0000:B6B0           CON1P1MB
 0000:B6A4           CON256KB
 0000:B6BC           CON4GB
 0000:B690           CON4KB
 0000:B6B4           CON4MB
 0000:B69C           CON64KB
 0000:B694           CON8KB
 2619:CEA1           CONFIGSIG
 0000:B788           CONTEXTS
 0000:1F0F           COPY2LCL
 0000:E194           COPY_CFG
 0000:5D47           COPY_DWDD
 0000:2941           COPY_GDT
 0000:296B           COPY_IDT
 1F58:3F9C           COPY_INST_DATA
 0000:8023           COPY_PTE
 2619:A260           COPY_ROM
 0000:E203           COPY_VDS
 0000:F4CA           CPDCNT
 0000:F4C6           CPDOFF
 0000:F4CC           CPDREGTAB
 0000:0008      Abs  CPDREGTAB_LEN
 0000:BACE           CPD_FLAG
 2619:18B7           CPQINT01
 2619:B63C           CPQINT01_LAST
 2619:B644           CPQINT01_SAVE
 2619:B640           CPQINT01_TRIP
 2619:B630           CPQINT01_VEC
 2619:196F           CPQINT29
 2619:B634           CPQINT29_VEC
 2619:B67A           CPQINTS
 0000:A980           CPQMIO_HI
 0000:A986           CPQMIO_HIGH
 0000:A97C           CPQMIO_LO
 2619:15DC           CPQSETSTR
 2619:B87A           CPQSTK
 2619:C07A           CPQSTKZ
 2619:CC4A           CPQVGABUG
 2619:CC6C           CPQVGABUG2
 2619:CC98           CPQVGABUG2_FIX1
 0000:0008      Abs  CPQVGABUG2_FIX1_LEN
 2619:CCA3           CPQVGABUG2_FIX2
 0000:0004      Abs  CPQVGABUG2_FIX2_LEN
 0000:0002      Abs  CPQVGABUG2_PAT1
 0000:0025      Abs  CPQVGABUG2_PAT2
 2619:CC94           CPQVGABUG2_RPL1
 0000:0004      Abs  CPQVGABUG2_RPL1_LEN
 2619:CCA0           CPQVGABUG2_RPL2
 0000:0003      Abs  CPQVGABUG2_RPL2_LEN
 0000:0011      Abs  CPQVGABUG_LEN
 0000:000C      Abs  CPQVGABUG_LEN2
 0000:0005      Abs  CPQVGABUG_LEN3
 2619:CC56           CPQVGAFIX
 2619:CC6A           CPQVGAOFF
 2619:CCA7           CPQVGAOFF2A
 2619:CCA9           CPQVGAOFF2B
 2619:CC5B           CPQVGAPAT
 2619:CCAB           CPQVGAPATOFF
 0000:000F      Abs  CPQVGAPAT_LEN
 2619:CC25           CPQVGASIGN
 2619:1618           CPQZAPSTR
 2619:B678           CPQ_FLAG
 0000:B798           CPUFET_FLAG
 0000:A500           CPUREV
 0000:AAB2           CPUTYPE
 1F58:1B60           CPY_DL2GROUP
 1F58:14F5           CPY_DLGROUP
 0000:A740           CR2DATA
 0000:A752           CR2FLAG
 0000:384E           CR2INT01
 0000:A754           CR2INT01_IVEC
 0000:A750           CR2OFF
 0000:A75C           CR2_PTE
 2619:5668           CREA_LSEG
 0000:BB6A           CRT_IND
 0000:F59E           CTL387
 0000:6626           CTRL_A20
 0000:0216           CT_RAM_AB
 0000:0217           CT_RAM_CD
 0000:0218           CT_RAM_EF
 0000:0215           CT_ROMCFG
 2619:B64C           CURIDTR
 2619:B648           CURIDTR_VEC
 0000:01DE           CURINT67_VEC
 1F58:0000           CURSOR_FNS
 0000:BB62           CURS_DATA
 1F58:631E           CUR_PSP
 0000:9ACD           DB2HEX
 0000:01BE           DB2_FLAG
 0000:01D8           DB3_FLAG
 111A:CCF4           DBGCTL
 111A:CCE0           DBGDR7
 111A:CCD0           DBGREGS
 111A:CCE4           DBGREGS_ACT
 111A:CCF5           DBGSTA
 0000:01BC           DBG_FLAG
 0000:9AB1           DD2HEX
 0000:4A88           DEALLOCEMS
 0000:95E3           DEALLOCMEM
 2619:197D           DECODE_TRIP
 2619:61E5           DECR_MAC
 111A:CDC8           DEFAULTPDE
 2619:AFCE           DEF_STACKS
 0000:0CC9           DEGATEA20
 2619:968C           DELL_SETSPEED
 0000:9D54           DESC_TAB
 0000:0000           DEVDRV
 0000:0012           DEVDRV2
 0000:0192           DEVICE_CS
 0000:04BC           DEV_INTR
 0000:0592           DEV_INTR3
 0000:E624           DEV_STR2
 2619:58CD           DEV_STR2X
 0000:04B1           DEV_STRA
 0000:E165           DISABLE_IMR
 0000:28F1           DISABLE_NMI
 0000:2C6C           DISABLE_P5
 2619:3D35           DISPAZS
 2619:1FE8           DISPAZSTR
 0000:EC81           DISP_COLOR
 2619:4632           DISP_CPDMSG
 0000:CA7B           DISP_CPDMSG_PM
 2619:1FFC           DISP_ERRLAST
 2619:2012           DISP_ERRLAST2
 0000:56CE           DISP_MSG
 2619:6F74           DISP_OEM
 0000:579D           DISP_STR
 2619:00FE           DISP_UNK
 2619:012A           DISP_UNK2
 0000:BB80           DIVISOR
 2616:0030           DL2GROUP_END
 2616:002C           DL2_PGRSEG
 2616:0028           DL2_PMERET
 25FA:0176           DLDOSVEC
 25FA:017C           DLEXEHDR
 25FA:01B4           DLGROUP_END
 25FA:0172           DLMAC_STRA
 25FA:019C           DLOLDPSP
 25FA:0174           DLPORT67
 25FA:0198           DLSSSP
 0000:AAF4           DMADISCNT
 0000:9BAC           DMASIZE
 0000:BB1A           DMA_ACT
 0000:BB2A           DMA_ADDR
 0000:9B1C           DMA_BLK
 0000:9BAE           DMA_CHAN
 2619:C0BB           DMA_CHNO
 0000:BB3A           DMA_CNT
 0000:1399           DMA_COPY
 0000:12E9           DMA_COPYALL
 0000:9B88           DMA_D2M
 0000:BB5A           DMA_FLAG
 0000:9B9C           DMA_FLIP
 0000:9B8C           DMA_IADDR
 0000:9B94           DMA_ICNT
 2619:1E82           DMA_INT0A
 2619:1E8F           DMA_INT0B
 2619:1E9C           DMA_INT0C
 2619:1EA9           DMA_INT0D
 2619:1EB6           DMA_INT0E
 2619:1EC3           DMA_INT0F
 2619:1ED0           DMA_INT72
 2619:1EDD           DMA_INT73
 2619:1EEA           DMA_INT74
 2619:1EF7           DMA_INT75
 2619:1F04           DMA_INT76
 2619:1F11           DMA_INT77
 2619:C0AE           DMA_IRQ
 0000:9B84           DMA_LA
 0000:9B40           DMA_LEN
 0000:BAE2           DMA_MAP
 0000:A4EC           DMA_MAX
 2619:CE25           DMA_MAX_LEN
 0000:9BA4           DMA_MODE
 0000:9B60           DMA_MVD
 0000:9B80           DMA_PA
 0000:BAFC           DMA_PMR
 0000:BB0B           DMA_PMR_HI
 0000:9B20           DMA_PTR
 0000:BAF2           DMA_REMAP
 0000:FEDA           DMA_STR0
 0000:FEE2           DMA_STR1
 0000:FEEB           DMA_STR2
 0000:A4EA           DMA_SWAP
 1F58:40F2           DMA_WIN3
 0000:9ADA           DN2HEX
 111A:2563           DOSFN_ASCIIZ_LEN
 111A:28A8           DOSFN_CHKRNG
 111A:223B           DOSFN_COPY_INTXXREG
 111A:26D4           DOSFN_EXEC_LEFIX
 111A:286E           DOSFN_EXEC_LETERM
 111A:26AC           DOSFN_EXEC_RESTENV
 111A:2650           DOSFN_EXEC_SAVEENV
 111A:23B2           DOSFN_EXT2LOW
 111A:22E4           DOSFN_GETBUF
 111A:25A4           DOSFN_GETDTA
 111A:28FE           DOSFN_GETMEM
 111A:254A           DOSFN_IF32ZX
 111A:2648           DOSFN_JMP
 111A:2444           DOSFN_LOW2EXT
 111A:2387           DOSFN_RELBUF
 111A:2601           DOSFN_RELDTA
 111A:295C           DOSFN_RELMEM
 111A:2283           DOSFN_RELREG
 111A:2255           DOSFN_REST_INTXXREG
 111A:2274           DOSFN_REST_INTXXREGWORD
 111A:22DA           DOSFN_REST_VMCREGS
 111A:221C           DOSFN_SAVE_INTXXREG
 111A:2265           DOSFN_SAVE_INTXXREGWORD
 111A:22D0           DOSFN_SAVE_VMCREGS
 111A:24D8           DOSFN_SEG2SEL
 111A:252D           DOSFN_SEL2SEG
 111A:2415           DOSFN_SIMVMI
 0000:BACC           DOSVER
 0000:C5D0           DOSX_FLAG
 0000:C5CA           DOSX_SEL4GB
 0000:C5CC           DOSX_SELCS
 0000:C5CE           DOSX_SELDS
 0000:C5C8           DOSX_SELGDT
 1F58:12CC           DO_RINFO
 2619:C2D8           DPFE_END
 111A:DDD8           DPMIBIOS_ACT
 0000:A52C           DPMICNT0D
 0000:A760           DPMICNT0E
 111A:DFD8           DPMIDOS_ACT
 0000:AACC           DPMIDYN_SIZ
 111A:3AC4           DPMIFLT_CHGRET
 111A:547E           DPMIFN_ALLOCSEL
 111A:768A           DPMIFN_BITMAP_SIZ
 1F58:6024           DPMIFN_CALL_RSPS
 111A:111A           DPMIFN_CHK22
 111A:4AD4           DPMIFN_CHK24
 111A:4E0C           DPMIFN_CHKACCESS
 111A:4E3F           DPMIFN_CHKSEGLM1
 111A:5779           DPMIFN_CHKSEL
 111A:71E6           DPMIFN_CHKVSAPI
 111A:59FA           DPMIFN_CLRINT
 111A:B996           DPMIFN_DELINKTSS
 111A:2049           DPMIFN_DTA2EXT
 111A:7E0E           DPMIFN_DTECACHE
 111A:7EE1           DPMIFN_ESPMOD
 111A:2095           DPMIFN_EXT2DTA
 111A:C48C           DPMIFN_FAULT
 111A:5430           DPMIFN_FINDMAC
 111A:BAF7           DPMIFN_FREELDT
 111A:C0CB           DPMIFN_FREEMEM
 111A:5486           DPMIFN_FREESEL
 111A:B9F9           DPMIFN_FREE_VMOLDPM
 111A:1F87           DPMIFN_GETDTA
 111A:7CB7           DPMIFN_GETDYN
 111A:11EF           DPMIFN_GETPSP
 1F58:622F           DPMIFN_GET_TSS_INDEX
 111A:76B7           DPMIFN_GROWLDT
 111A:671F           DPMIFN_GROWMEMHNDL
 111A:3ECE           DPMIFN_I24XLAT
 111A:BACB           DPMIFN_INITDPMIHNDL
 111A:BA3E           DPMIFN_INITLDT
 111A:B7FA           DPMIFN_INITVARS
 111A:623E           DPMIFN_INTXX2VMC
 111A:1196           DPMIFN_LMSW
 111A:7E83           DPMIFN_LPMSTK
 111A:6977           DPMIFN_MODMEM
 111A:61B5           DPMIFN_NESTOUT
 111A:61F0           DPMIFN_NESTRET
 111A:117B           DPMIFN_NEWLINE
 1F58:5ED3           DPMIFN_NORMALIZE_RSPSEG
 111A:B9D4           DPMIFN_PLNKTSS
 1F58:5FD0           DPMIFN_RELOC_ZERO_SEGMENT
 1F58:5F30           DPMIFN_REMOVE_OVERLAP
 1F58:6252           DPMIFN_REMOVE_RSP
 111A:C180           DPMIFN_RESTDYN
 111A:2DF1           DPMIFN_RESTMEI
 111A:C257           DPMIFN_RESTOLDPM
 111A:C01B           DPMIFN_RESTWIN
 111A:BB49           DPMIFN_SAVEOLDPM
 111A:54BF           DPMIFN_SELFCN
 111A:1FDF           DPMIFN_SETDTA
 111A:524C           DPMIFN_SETMLDT
 111A:127F           DPMIFN_SETPSP
 111A:C069           DPMIFN_SETRPL
 111A:6550           DPMIFN_SWITCHADDR
 111A:130F           DPMIFN_TERMINATE
 111A:546B           DPMIFN_TESTSEL
 1F58:5B44           DPMIFN_VALIDATE_RSP_DESC
 111A:758F           DPMIFN_VMADDR
 111A:7DC4           DPMIFN_VSAPI
 111A:76A2           DPMIFN_XLDT_SIZ
 111A:7620           DPMIFN_ZEROSEL
 0000:AAD0           DPMIHNDL_CNT
 0000:AADC           DPMIHNDL_OFF
 0000:AAD4           DPMIHNDL_SIZ
 111A:E1D8           DPMIMOUSE_ACT
 0000:C58E           DPMIMSG
 0FEF:0EF9           DPMIMSG00
 0FEF:0F0E           DPMIMSG01
 0FEF:0F22           DPMIMSG02
 0FEF:0F35           DPMIMSG03
 0FEF:0F4E           DPMIMSG04
 0FEF:0F62           DPMIMSG05
 0FEF:0F76           DPMIMSG06
 0FEF:0F8A           DPMIMSG07
 0FEF:0F9E           DPMIMSG08
 0FEF:0FAF           DPMIMSG09
 0FEF:0FC8           DPMIMSG0A
 0FEF:0FD6           DPMIMSG0B
 0FEF:0FEE           DPMIMSG0C
 0FEF:0FFE           DPMIMSG0D
 0FEF:100B           DPMIMSG0E
 0FEF:101A           DPMIMSG0F
 0FEF:1031           DPMIMSG10
 0FEF:1044           DPMIMSG11
 0FEF:1059           DPMIMSG12
 0FEF:1070           DPMIMSG13
 0FEF:1087           DPMIMSG14
 0FEF:109E           DPMIMSG15
 0FEF:10B5           DPMIMSG16
 0FEF:10CC           DPMIMSG17
 0FEF:10E3           DPMIMSG18
 0FEF:10FA           DPMIMSG19
 0FEF:1111           DPMIMSG1A
 0FEF:1128           DPMIMSG1B
 0FEF:113F           DPMIMSG1C
 0FEF:1156           DPMIMSG1D
 0FEF:116D           DPMIMSG1E
 0FEF:1184           DPMIMSG1F
 0FEF:0EBA           DPMIMSG_APPLFULL
 0FEF:0EB6           DPMIMSG_LOW
 0FEF:0ED0           DPMIMSG_LPMFULL
 0FEF:0EE5           DPMIMSG_VMFULL
 0000:AAEC           DPMIOLDPM_SIZ
 0000:AAD8           DPMIPDIR_CNT
 0000:AAE0           DPMIPDIR_OFF
 0000:AAB3           DPMITYPE
 111A:C5C8           DPMITYPEIG
 111A:DBD8           DPMIVID_ACT
 111A:DB3C           DPMI_ACT
 0000:AAB4           DPMI_CODE
 111A:4DFC           DPMI_COM_IRETD
 0000:9C2E           DPMI_CPFHOOK
 0000:9C0E           DPMI_CPIHOOK
 0000:AABA           DPMI_CPL
 0000:9C56           DPMI_CVFHOOK
 0000:AAB6           DPMI_DATA
 111A:7376           DPMI_DBGCLR
 111A:73C0           DPMI_DBGQRY
 111A:73DF           DPMI_DBGRST
 111A:728D           DPMI_DBGSET
 0000:AABB           DPMI_DPL
 0000:6308           DPMI_DSTK_CHK
 111A:74C5           DPMI_EMUGET
 111A:751F           DPMI_EMUSET
 111A:3737           DPMI_FLTRET
 111A:4FC8           DPMI_GETALIAS
 111A:65DD           DPMI_GETCAP
 111A:5285           DPMI_GETDMEM
 111A:5922           DPMI_GETEVMPEHV
 111A:6630           DPMI_GETFMI
 111A:71D8           DPMI_GETIF
 111A:4E4D           DPMI_GETLDT
 111A:5030           DPMI_GETLDTE
 111A:6A90           DPMI_GETLMB
 111A:6E52           DPMI_GETMBLKSZ
 111A:67F6           DPMI_GETMEM
 111A:6EA8           DPMI_GETMEMI
 111A:513C           DPMI_GETMLDTE
 111A:70CE           DPMI_GETP2L
 111A:6FBA           DPMI_GETPAGESIZ
 111A:5723           DPMI_GETPEHV
 111A:582D           DPMI_GETPMIV
 111A:5105           DPMI_GETRLDT
 111A:648A           DPMI_GETRMS
 111A:7485           DPMI_GETSHR
 111A:6447           DPMI_GETSSR
 111A:65A8           DPMI_GETVER
 111A:633D           DPMI_GETVMCB
 111A:5688           DPMI_GETVMIV
 111A:6C64           DPMI_GPGATTR
 111A:4EB5           DPMI_GSELBAS
 0000:9BEE           DPMI_HW
 0000:9BCE           DPMI_HWSP
 0000:AAB8           DPMI_IDEF
 111A:73F7           DPMI_INT01
 111A:714F           DPMI_INTCLI
 111A:3AFB           DPMI_INTRET
 111A:71CA           DPMI_INTSTI
 111A:6F70           DPMI_LOCKLINREG
 111A:75C6           DPMI_LOCKSEG
 111A:6DC9           DPMI_MAPCONV
 111A:6D5B           DPMI_MAPDEV
 111A:2B7B           DPMI_MEI
 111A:2D75           DPMI_MEIRET
 111A:2D41           DPMI_MEI_LPMFULL
 111A:552E           DPMI_MODDMEM
 111A:6B46           DPMI_MODLMB
 111A:6902           DPMI_MODMEM
 111A:4EAC           DPMI_NXTSEL
 111A:6FB4           DPMI_PAGEVM
 111A:2B73           DPMI_PDBI
 111A:707B           DPMI_PGFREE
 111A:7005           DPMI_PGSELFREE
 111A:6FC9           DPMI_PGSELUNLK
 111A:705A           DPMI_PGUNLK
 0000:9C32           DPMI_PPIHOOK
 0000:9C52           DPMI_PVFHOOK
 111A:4B51           DPMI_REFINT
 111A:4CFC           DPMI_REFRET
 111A:5396           DPMI_RELDMEM
 111A:4E64           DPMI_RELLDT
 111A:68A5           DPMI_RELMEM
 111A:7139           DPMI_RELP2L
 111A:74B5           DPMI_RELSERIAL
 111A:7495           DPMI_RELSHR
 111A:63EC           DPMI_RELVMCB
 111A:6FB7           DPMI_RLCKVM
 111A:64BC           DPMI_RMSPM2VM
 111A:5F68           DPMI_RMSVM2PM
 1F58:61C1           DPMI_RSPRET
 111A:4E7D           DPMI_SEG2SEL
 111A:74A5           DPMI_SERIALIZE
 111A:5978           DPMI_SETEVMPEHV
 111A:5087           DPMI_SETLDTE
 111A:51AD           DPMI_SETMLDTE
 111A:57C8           DPMI_SETPEHV
 111A:587D           DPMI_SETPMIV
 111A:56AB           DPMI_SETVMIV
 111A:5CFB           DPMI_SIMRET
 111A:62E2           DPMI_SIMVMCFR
 111A:6300           DPMI_SIMVMCIR
 111A:5A56           DPMI_SIMVMI
 111A:5A93           DPMI_SIMVMI_COM
 111A:6037           DPMI_SIMVMRET
 111A:6CD8           DPMI_SPGATTR
 111A:4F69           DPMI_SSELARW
 111A:4ED8           DPMI_SSELBAS
 111A:4F00           DPMI_SSELLIM
 0000:C5B4           DPMI_STKFLG
 111A:7470           DPMI_TSRSRV
 111A:7480           DPMI_TSRXIT
 111A:6F92           DPMI_UNLKLINREG
 0000:C6B4           DPMI_VAL
 0000:0BB0           DPMI_VM2PM
 0000:0BC1           DPMI_VM2PM_INT
 111A:5DE8           DPMI_VMCB
 111A:6085           DPMI_VMCRET
 0000:37E0           DPMI_VPFRET
 111A:7261           DPMI_VSAPI
 0000:AAAE           DPM_FLAG
 0000:F5D4           DROMSIGN
 0000:FE08           DRVPATH_END
 1114:0008           DSTKCOM
 1F58:3580           DSTKS_FNS
 0000:6317           DSTK_CHK
 0000:A506           DSTK_CNT
 0000:A52A           DSTK_FLAG
 0000:A50A           DSTK_HWINTS
 0000:A508           DSTK_ISIZ
 2619:C0CE           DSTK_NPAR
 1114:0000           DSTK_OLDSTK
 1114:0060           DSTK_TAB
 1114:0004           DSTK_TAB_NXTOFF
 0000:045C           DUMMY_INT67
 0000:9AC0           DW2HEX
 0000:A987           EBIOS_CODE
 2619:CAB0           EGATEXT
 111A:20E1           EGP2VMCREGS
 0000:AB28           EHNDLCNT
 2619:C2BD           EISAREGS
 0000:9250           EMM2_CM3FLAG
 0000:149F           EMM2_CURSOR
 0000:924B           EMM2_DB2FLAG
 0000:9246           EMM2_DBGFLAG
 0000:9287           EMM2_DISPSTR
 0000:14BD           EMM2_DLGROUP
 0000:4005           EMM2_DPMIPRES
 0000:9296           EMM2_DSTKS
 0000:928C           EMM2_EXTADDR
 0000:927D           EMM2_FLEXINFO
 0000:ABB6           EMM2_FNS
 0000:1486           EMM2_GETINFO
 0000:1481           EMM2_GETMAP
 0000:9291           EMM2_GETMAXINT
 0000:147C           EMM2_GETMCS
 0000:9282           EMM2_GETOLDINT
 0000:148B           EMM2_GETPPM
 0000:923C           EMM2_GETPTE
 0000:14A9           EMM2_GETTEXT
 0000:9241           EMM2_GLBFLAG
 0000:1495           EMM2_GOREAL
 0000:9264           EMM2_GOREALWIN3
 0000:54D5           EMM2_GOREAL_HI
 0000:14B3           EMM2_GSLINK58
 0000:14AE           EMM2_HARPOINFO
 0000:149A           EMM2_HIMEM
 0000:929B           EMM2_INITREST
 0000:9269           EMM2_INITWIN3
 0000:14B8           EMM2_MALLOC
 0000:1490           EMM2_MEMTIME
 0000:9273           EMM2_PHYS2LIN
 0000:14C2           EMM2_PNP
 0000:14C7           EMM2_PNP1
 0000:14A4           EMM2_POSCOPY
 0000:926E           EMM2_PSMEM
 0000:9255           EMM2_RAMSCAN
 0000:14CC           EMM2_REBOOT
 0000:925F           EMM2_ROMRW
 0000:925A           EMM2_ROMSWAP
 0000:9278           EMM2_SETPTE
 0000:92A5           EMM2_SWAPFILE
 0000:92A0           EMM2_TMPCLOSE
 0000:92AA           EMM2_VMVSAPI
 0000:B6FC           EMMBASE
 0000:AC18           EMMBUG
 2619:6842           EMMSCAN
 0000:01EA           EMMSIZE
 2619:C0CA           EMMSIZE2
 0000:4496           EMM_ALLHP
 0000:420A           EMM_ALLOC
 0000:4213           EMM_ALLOC_ZERO
 0000:6FDA           EMM_ALTMAPREG
 0000:6FF6           EMM_ALTMAPREG0
 0000:701B           EMM_ALTMAPREG1
 0000:713D           EMM_ALTMAPREG2
 0000:7147           EMM_ALTMAPREG3
 0000:71E6           EMM_ALTMAPREG4
 0000:722A           EMM_ALTMAPREG5
 0000:7233           EMM_ALTMAPREG6
 0000:723F           EMM_ALTMAPREG7
 0000:724B           EMM_ALTMAPREG8
 0000:1ED5           EMM_BOOT
 0000:4369           EMM_DEALLOC
 0000:4559           EMM_E00
 0000:4555           EMM_E00AL
 0000:44FD           EMM_E80
 0000:4501           EMM_E83
 0000:4505           EMM_E84
 0000:4509           EMM_E85
 0000:450D           EMM_E86
 0000:4511           EMM_E87
 0000:4515           EMM_E88
 0000:4519           EMM_E89
 0000:451D           EMM_E8A
 0000:4521           EMM_E8B
 0000:4525           EMM_E8D
 0000:4529           EMM_E8E
 0000:452D           EMM_E8F
 0000:4531           EMM_E91
 0000:4535           EMM_E92
 0000:4539           EMM_E9B
 0000:453D           EMM_E9C
 0000:4541           EMM_E9D
 0000:4545           EMM_EA0
 0000:4549           EMM_EA1
 0000:454D           EMM_EA3
 0000:4551           EMM_EA4
 0000:455D           EMM_ERR
 0000:456C           EMM_EXIT
 0000:4570           EMM_EXIT1
 0000:4568           EMM_EXITAL
 0000:45ED           EMM_EXIT_GOREAL
 0000:BD38           EMM_FLAG
 0000:AB7A           EMM_FNS
 0000:AB8C           EMM_FNS10
 0000:AB8E           EMM_FNS11
 0000:41E1           EMM_FRAME
 0000:1B1E           EMM_GETHDIR
 0000:1B30           EMM_GETHDIR0
 0000:1B66           EMM_GETHDIR1
 0000:1C02           EMM_GETHDIR2
 0000:747C           EMM_GETL2PMAP
 0000:1E6C           EMM_GETPHYS
 0000:1E7E           EMM_GETPHYS0
 0000:1EB0           EMM_GETPHYS1
 0000:7460           EMM_GETPMR
 0000:44C4           EMM_GETSET
 0000:44D6           EMM_GETSET0
 0000:44DD           EMM_GETSET1
 0000:44E8           EMM_GETSET2
 0000:44F6           EMM_GETSET3
 0000:1A75           EMM_GETSETATTR
 0000:1A87           EMM_GETSETATTR0
 0000:1A94           EMM_GETSETATTR1
 0000:1AAA           EMM_GETSETATTR2
 0000:1AB0           EMM_GETSETNAME
 0000:1AC2           EMM_GETSETNAME0
 0000:1AE9           EMM_GETSETNAME1
 0000:17A0           EMM_GETSETPART
 0000:17B2           EMM_GETSETPART0
 0000:1824           EMM_GETSETPART1
 0000:187E           EMM_GETSETPART2
 0000:6F90           EMM_GETXINFO
 0000:6FA3           EMM_GETXINFO0
 0000:6FD7           EMM_GETXINFO1
 0000:4479           EMM_HNDLCNT
 0000:4484           EMM_HNDLNPG
 0000:0478           EMM_IMPORT_PTR
 0000:1894           EMM_MULPGMAP
 0000:18E7           EMM_MULPGMAP0
 0000:196D           EMM_MULPGMAP1
 0000:7257           EMM_OSE
 0000:7285           EMM_OSE0
 0000:7291           EMM_OSE1
 0000:729D           EMM_OSE2
 0000:41F5           EMM_PGCNT
 0000:42A1           EMM_PGMAP
 0000:1CE8           EMM_PGMAPCALL
 0000:1CFA           EMM_PGMAPCALL0
 0000:1D03           EMM_PGMAPCALL1
 0000:1DE4           EMM_PGMAPCALL2
 0000:1D0A           EMM_PGMAPCALL_COM
 0000:1C0C           EMM_PGMAPJMP
 0000:1C1E           EMM_PGMAPJMP0
 0000:1C83           EMM_PGMAPJMP1
 0000:1DEE           EMM_PGMAPRET
 0000:1EBB           EMM_RAWALLOC
 0000:1ECD           EMM_RAWALLOC0
 0000:1ED1           EMM_RAWALLOC1
 0000:199E           EMM_REALLOC
 0000:444E           EMM_RESTMAP
 0000:44FD           EMM_RETURN
 0000:43E2           EMM_SAVEMAP
 0000:41DD           EMM_STATUS
 0000:78E1           EMM_VCPI
 0000:43DC           EMM_VERSION
 0000:1F38           EMM_XMOVEMEM
 0000:1F4A           EMM_XMOVEMEM0
 0000:1FCA           EMM_XMOVEMEM1
 0000:0BE0           EMPTY_HIMAC
 0000:9BC6           EMSPGCNT
 2619:CB46           EMSTEXT
 0000:B6D4           EMS_END
 1F58:370B           EMS_RAM
 0000:B6D0           EMS_START
 25FA:0000           EMU4B
 25FA:0156           EMU4B_I22RET
 111A:00B9           EMU_INT15
 0000:411F           EMU_INT67
 0000:74E8           EMU_PORTPMRI
 0000:751F           EMU_PORTPMRO
 0000:0682           ENABLE_IMR
 0000:2903           ENABLE_NMI
 0000:2C34           ENABLE_P5
 0000:F594           ENDADDR
 0000:CD28           ENTERPM
 0000:CEE1           ENTERPM2
 0000:2A05           ENTERVM
 0000:D499           EPM
 0000:B65C           EPMTAB
 0000:F582           ERR_CODE
 0000:F57C           ERR_CODE_ADDR
 0000:F580           ERR_CODE_VAL
 0000:F583           ERR_FLAG
 1F58:51AC           ET_CHK
 1F58:5209           ET_CLR
 0000:0468           EX2SIZE
 2619:2BF5           EXCLUDE_SUB
 2619:CBA4           EXCTEXT
 0000:F4DC           EXEC_BLK
 0000:BFAC           EXFSIZE
 0000:AAB0           EXITRC
 0000:0492           EXITRCHI
 0000:B6F8           EXTBASE
 0000:09C3           EXTMAC_ORIG
 0000:01E6           EXTSIZE
 0000:0975           EXT_MACFNS
 2619:CBE4           FAKEINT6D
 0000:3FC8           FALLOCMEM
 0000:9149           FALLOCMEM_SUB
 0000:3FFD           FAPPEND_EXT
 0000:0651           FARJMP_VEC
 0000:D3D4           FARPTR_LO
 2619:CC00           FASTREGS
 0000:ED45           FBIN2BASE
 0000:92D3           FCHECK_HFRMSAV
 0000:4001           FCHECK_HOOK
 0000:3AA3           FCLOSEHIGHDOS
 2619:23CC           FCN_32BITDMA
 2619:22F6           FCN_AMRS
 2619:2323           FCN_AUTO
 2619:23E9           FCN_AUTOBCF
 2619:24C8           FCN_BCF
 2619:2628           FCN_CACHESIZE
 2619:267C           FCN_CGA
 2619:268B           FCN_DBG8042
 2619:2693           FCN_DBGABIOS
 2619:269C           FCN_DBGALLROM
 2619:26A4           FCN_DBGBIOS
 2619:26AD           FCN_DBGCALL
 2619:26B5           FCN_DBGCAPS
 2619:26BE           FCN_DBGCOMPROM
 2619:26C6           FCN_DBGCR3
 2619:26CF           FCN_DBGDPMI
 2619:26D8           FCN_DBGDPMIERR
 2619:26E1           FCN_DBGDPMILOCK
 2619:26E9           FCN_DBGDPMINEWSEL
 2619:26F1           FCN_DBGDPMIPHYS
 2619:26F9           FCN_DBGDPMISEL
 2619:2702           FCN_DBGDPMISPURNT
 2619:270A           FCN_DBGDPMISTD
 2619:2713           FCN_DBGDPMITERM
 2619:271B           FCN_DBGDPMIV100
 2619:2723           FCN_DBGDPMIXCOPY
 2619:272B           FCN_DBGEMSERR
 2619:2734           FCN_DBGEMSPTE
 2619:273C           FCN_DBGEMSRDWR
 2619:2744           FCN_DBGEMSSAVE
 2619:274D           FCN_DBGEMSWRIT
 2619:2755           FCN_DBGEPM
 2619:275E           FCN_DBGEVM
 2619:2767           FCN_DBGFILL
 2619:2778           FCN_DBGHLT
 2619:2780           FCN_DBGI06
 2619:2789           FCN_DBGI67
 2619:2792           FCN_DBGINV
 2619:279A           FCN_DBGIOWRAP
 2619:27A9           FCN_DBGJMP
 2619:27B1           FCN_DBGLED
 2619:27B9           FCN_DBGNOVCPI
 2619:27C1           FCN_DBGNOWRAP
 2619:27CA           FCN_DBGPIC
 2619:27D3           FCN_DBGPMR
 2619:27DC           FCN_DBGRC
 2619:27E5           FCN_DBGROM
 2619:27EE           FCN_DBGROMSWAP
 2619:27F6           FCN_DBGSCRUB
 2619:27FF           FCN_DBGSOR
 2619:2808           FCN_DBGTIME
 2619:2811           FCN_DBGTRIP
 2619:281A           FCN_DBGUNSHADOWROM
 2619:2822           FCN_DBGVCPI
 2619:282B           FCN_DBGVDS
 2619:2834           FCN_DBGVMS
 2619:2862           FCN_DBGX09
 2619:286B           FCN_DBGX67
 2619:2859           FCN_DBGXDMA
 2619:2873           FCN_DBGXM
 2619:287C           FCN_DBGXMS
 2619:2884           FCN_DBGXMSPTE
 2619:288D           FCN_DBGXR
 2619:2896           FCN_DMA
 2619:28DC           FCN_DOS4
 2619:28E4           FCN_DOS5
 2619:28EC           FCN_DPMIMEM
 2619:2B74           FCN_EMS
 2619:2BA4           FCN_EMS30
 2619:2B28           FCN_EMS_SUB
 2619:2BBB           FCN_EXCLUDE
 2619:2C31           FCN_EXT
 2619:2C84           FCN_EXTSIZE
 2619:2CF2           FCN_FASTRAM
 2619:2CFB           FCN_FLEXROM
 2619:2E50           FCN_FORCEA20
 2619:2E5F           FCN_FORCEBCF
 2619:2E67           FCN_FRAME
 2619:2EA8           FCN_HMAMIN
 2619:2F3E           FCN_HPDAREG
 2619:2ED6           FCN_IGNOREFLEXFRAME
 2619:2F48           FCN_INCLUDE
 2619:2FEF           FCN_IOP
 2619:302C           FCN_IOWRAP
 2619:3035           FCN_ISTACKS
 2619:305B           FCN_LMLTOP
 2619:308F           FCN_LOAD
 2619:3271           FCN_MCE
 2619:327A           FCN_MONO
 2619:3289           FCN_NO4B
 2619:3291           FCN_NO58
 2619:3299           FCN_NOABIOS
 2619:32A5           FCN_NOCACHE
 2619:32B1           FCN_NOCOMPROM
 2619:283C           FCN_NOCRR
 2619:32F3           FCN_NODMA
 2619:32FB           FCN_NODPMI
 2619:32B9           FCN_NOEISADMA
 2619:32C1           FCN_NOFRAME
 2619:2845           FCN_NOGATE
 2619:3303           FCN_NOHIGH
 2619:32D3           FCN_NOIOWRAP
 2619:32DB           FCN_NOLOADHI
 2619:330C           FCN_NOLOW
 2619:339E           FCN_NOPARITY
 2619:3315           FCN_NOPNP
 2619:34FA           FCN_NOPULSE
 2619:331E           FCN_NOROM
 2619:332F           FCN_NOSCAN
 2619:34F1           FCN_NOSCRUB
 2619:3396           FCN_NOSCSI
 2619:33A6           FCN_NOTIME
 2619:33AF           FCN_NOVGASIG
 2619:32CA           FCN_NOVME
 2619:34E8           FCN_NOWARMBOOT
 2619:33B6           FCN_NOWIN3
 2619:33BE           FCN_NOWIN30
 2619:3503           FCN_NOXBIOS
 2619:351E           FCN_NOXRAM
 2619:352F           FCN_ON
 2619:3543           FCN_POSFILE
 2619:3652           FCN_PRGREG
 2619:369D           FCN_PRO
 2619:3716           FCN_PSMEM
 2619:3762           FCN_RAM
 2619:37A4           FCN_RESETKEYB
 2619:352D           FCN_RET
 2619:37AC           FCN_ROM
 2619:3805           FCN_SCREEN
 2619:381E           FCN_SHADOWRAM
 2619:3865           FCN_SHADOWROM
 2619:386D           FCN_SLOWDMA
 2619:3875           FCN_STACKREG
 2619:3888           FCN_STACKS
 2619:39B8           FCN_SWAP
 2619:39EC           FCN_SWAPFILE
 2619:3B45           FCN_SYS
 2619:3BC6           FCN_TERSE
 2619:3BCE           FCN_TOP384
 2619:3BF2           FCN_UNSHIFT
 2619:3C01           FCN_USE
 2619:3C5A           FCN_VEGA
 2619:33CA           FCN_VGASWAP
 2619:3C69           FCN_VIDMEM
 2619:34A7           FCN_VXD
 2619:3C9C           FCN_WTK0
 2619:3CBF           FCN_WTK1
 2619:3C89           FCN_WTKF
 2619:3CE2           FCN_XBDAREG
 2619:3CF5           FCN_XBIOSHI
 2619:3CFE           FCN_XMSHNDL
 0FEF:1250           FDATA_NXT
 0000:3FB9           FDD2HEX
 0000:3FDE           FDEALLOCMEM
 0000:92B7           FDISABLE_NMI
 0000:ED38           FDISP_COLOR
 0000:3FA4           FDISP_STR
 111A:7686           FDPMIFN_BITMAP_SIZ
 111A:4E08           FDPMIFN_CHKACCESS
 111A:11E3           FDPMIFN_LMSW
 111A:7ED5           FDPMIFN_LPMSTK
 111A:769E           FDPMIFN_XLDT_SIZ
 1F58:53CC           FDPMI_GETSHR
 1F58:575C           FDPMI_RELSERIAL
 1F58:5638           FDPMI_RELSHR
 1F58:56BB           FDPMI_SERIALIZE
 1F58:5A4E           FDPMI_TSRSRV
 1F58:5C07           FDPMI_TSRXIT
 0000:9AEA           FDW2HEX
 0000:92BB           FENABLE_NMI
 0000:92B3           FFLUSH_TLB
 111A:7B42           FGETLBASE
 0000:3A60           FGETSHIFT
 111A:7932           FGET_LDT
 0000:BFB8           FGRBASE
 0000:BFBC           FGRSIZE
 0000:E9A1           FILELOAD
 0000:A4FF           FILES_STR_LEN
 2619:C2DC           FILE_HEAD
 1F58:63A2           FILLPAT
 2619:6974           FILL_ALIGN
 2619:5768           FILL_DSTKS
 0000:081D           FILL_EX2SIZE
 1F58:3977           FILL_HIGHDOS_MAP
 2619:6BD8           FILL_INC
 1F58:0E7D           FILL_LINK
 2619:6B0E           FILL_LOW
 0000:DAAE           FILL_LOWBASE
 2619:56BD           FILL_LSEG
 2619:6D02           FILL_MAP
 0000:DD7B           FILL_MAPBASE
 2619:7C06           FILL_MCS
 0000:DBC7           FILL_OVRBASE
 0000:DFA9           FILL_PDIR
 0000:D4E8           FILL_PDT
 0000:DE39           FILL_PDTCNV
 0000:DE9B           FILL_PDTPNPBIOS
 0000:DE64           FILL_PDTSCR
 0000:D5FE           FILL_PDT_SUB
 0000:DB36           FILL_PHYS2SEG
 2619:6614           FILL_PPM
 2619:6C3A           FILL_PSM
 2619:6799           FILL_ROM
 0000:DB0F           FILL_SEG
 0000:DB6E           FILL_SEG2PHYS
 0000:DCEB           FILL_VGASWAP
 1F58:39F3           FILL_WIN3
 0000:DDF0           FILL_WRAPTAB
 2619:6BAE           FILL_XHI
 2619:6B87           FILL_XLO
 2619:140F           FIND10
 2619:182E           FIND13
 2619:183C           FIND14
 2619:184B           FIND15
 2619:1855           FIND16
 2619:185F           FIND17
 2619:186E           FIND1A
 2619:1878           FIND1B
 2619:1889           FIND40
 2619:1897           FIND4B
 2619:18A1           FIND5C
 2619:1419           FIND75
 2619:17B6           FINDCHK
 2619:17C7           FINDERR
 2619:173D           FINDHW
 2619:B664           FINDHW_ACT
 2619:17A0           FINDHW_CPQ
 2619:87EC           FINDHW_ROM
 2619:17B4           FINDIGN
 2619:13FA           FINDROMCHK
 2619:17C9           FINDVERIFY
 2619:61A4           FINDZMAC
 2619:A6C5           FIND_CONFIG
 0000:73B5           FIND_PTE
 0000:743A           FIND_PTE_SUB
 0000:0773           FIND_VXD
 0000:92C7           FINIT_PROT
 0000:BB74           FIVES_DUR
 0000:BB76           FIVES_FRQ
 0FEF:035C           FIXTABZ
 0FEF:0224           FIXTABZI
 0FEF:035C           FIXTABZJ
 0FEF:00E4           FIXTABZP
 0FEF:00E4           FIXTAB_IGROUP
 0FEF:0224           FIXTAB_JGROUP
 0FEF:0010           FIXTAB_PGROUP
 0000:2B6E           FIXUP_ISELS
 0FEF:0000           FIXUP_LAST_CS2
 0FEF:0002           FIXUP_LAST_CSIG
 0FEF:0004           FIXUP_LAST_CSJG
 0000:2BEA           FIXUP_SUB
 0000:9B18           FIX_FLAG
 1F58:1A65           FIZITLSEG
 0000:6F8C           FKEYWAIT
 2619:AD15           FLEXDATA
 2619:AD13           FLEXDATA_CNT
 0000:F49C           FLEXFILE
 0000:F494           FLEXFILE_CNT
 2619:AE15           FLEXFILE_DPFE
 0000:F496           FLEXFILE_SEG
 0000:F498           FLEXFILE_VEC
 2619:C854           FLEXROMINTS
 2619:C9F8           FLEXROMINTS_OFF
 2619:1FAE           FLEXROM_ACTION
 0000:BD24           FLEXROM_FLAG
 0000:BCE6           FLEXROM_LEN
 0000:E237           FLEXROM_RELOC
 2619:9AC8           FLEXROM_RESET
 2619:1FAC           FLEXROM_RESOURCE
 0000:BCE8           FLEXROM_TBL
 2619:1FB8           FLEX_DEFAULTS
 0000:A730           FLG_GET_CRN
 0000:A731           FLG_GET_DRN
 0000:A732           FLG_GET_TRN
 0000:A733           FLG_SET_CRN
 0000:A734           FLG_SET_DRN
 0000:A735           FLG_SET_TRN
 1F58:3F26           FLIN2PHYS
 0000:BADE           FLIPFLOP1
 0000:BADF           FLIPFLOP2
 111A:8E5C           FLSM_ALLOC
 111A:93F7           FLSM_SETN_PTES
 111A:3EF0           FLTPROC
 111A:3F07           FLTPROC00
 111A:3F11           FLTPROC01
 111A:3F1B           FLTPROC02
 111A:3F25           FLTPROC03
 111A:3F2F           FLTPROC04
 111A:3F39           FLTPROC05
 111A:3F89           FLTPROC06
 111A:3F43           FLTPROC07
 111A:3F93           FLTPROC08
 111A:3F9D           FLTPROC09
 111A:3FA7           FLTPROC0A
 111A:3FB1           FLTPROC0B
 111A:3FBB           FLTPROC0C
 111A:3FC5           FLTPROC0D
 111A:3FCF           FLTPROC0E
 111A:3FD9           FLTPROC0F
 111A:3FE3           FLTPROC10
 111A:3FED           FLTPROC11
 111A:3FF7           FLTPROC12
 111A:4001           FLTPROC13
 111A:400B           FLTPROC14
 111A:4015           FLTPROC15
 111A:401F           FLTPROC16
 111A:4029           FLTPROC17
 111A:4033           FLTPROC18
 111A:403D           FLTPROC19
 111A:4047           FLTPROC1A
 111A:4051           FLTPROC1B
 111A:405B           FLTPROC1C
 111A:4065           FLTPROC1D
 111A:406F           FLTPROC1E
 111A:4079           FLTPROC1F
 111A:4086           FLTPROC_ABORT
 111A:3EF0           FLTPROC_APPL
 111A:3F7F           FLTPROC_APPLFULL
 111A:3F75           FLTPROC_LPMFULL
 111A:4151           FLTPROC_STRIP
 111A:412F           FLTPROC_SWAT
 111A:3F6B           FLTPROC_VMFULL
 0000:C5A0           FLT_FLAG
 0000:73A8           FLUSH_TLB
 1F58:5389           FMAC_MERGE
 1F58:357C           FMAC_MERGESUB
 2619:3DAB           FMT_ERR_CODE
 2619:3DCD           FMT_WORD_YGRP
 0000:FE17           FNAM_INBRDAT
 0000:FE0E           FNAM_INBRDPC
 0000:3A64           FOPENHIGHDOS
 0000:E614           FOUTCMOS
 0000:179B           FPGMAP_ALL
 0000:92DB           FPGMAP_COM
 1F58:3F98           FPHYS2LIN
 0000:92AF           FPL3ESDI
 0000:9138           FQRY_PGCNT
 0000:B786           FRAME
 1F58:10F6           FREE_RINFO
 0000:BB7C           FREQ
 0000:92CB           FREST_PROT
 0000:92BF           FREST_PTE
 1F58:59D0           FRSP_INIT
 1F58:26EE           FSEGSEL_BASE
 0000:64D8           FSET_GDT
 0000:3FBD           FSET_PPL0STK
 0000:1797           FSET_XMSBND
 0000:92C3           FSWAP_MAP
 1F58:1A98           FUNLINK_LSEG
 0000:92CF           FVALID_HNDL
 111A:9F35           FVMM_ALLOC
 111A:A018           FVMM_FREE
 111A:A641           FVMM_GET_ATTRIBUTES
 111A:9E1A           FVMM_INIT
 111A:9EEA           FVMM_INIT_CLIENT
 111A:A2C3           FVMM_LOCK
 111A:A904           FVMM_MAP_PHYSICAL
 111A:A0EF           FVMM_REALLOC
 111A:B456           FVMM_RELOCATE_BLOCK
 111A:A705           FVMM_SET_ATTRIBUTES
 111A:A4E3           FVMM_UNLOCK
 111A:AEF1           FVMM_ZERO_PAGE
 0000:3FF5           FWRAP_DISABLE
 0000:3FF9           FWRAP_ENABLE
 0000:92D7           FXCHG_PTE
 0000:99A0           FXMS_MEMSPAN
 0000:03CA           GATEA20
 0000:9BB8           GDTR_PNP
 0000:804A           GDTSET
 2616:0000           GENINT23
 0000:6EE0           GETBASE
 0000:9D2E           GETHDIR_FNS
 0000:3964           GETILEN
 0000:CCF3           GETIRR
 111A:7B03           GETLBASE
 0000:9D34           GETPHYS_FNS
 2619:2EDF           GETREG_SUB
 111A:0000           GETSELBASE
 0000:9D24           GETSETATTR_FNS
 0000:9D2A           GETSETNAME_FNS
 0000:9D3C           GETSETPART_FNS
 0000:AC10           GETSET_FNS
 111A:797A           GETSET_LDTFIX
 111A:7947           GETSET_LDTVAR
 0000:2E18           GETSHIFT
 0000:BE3D           GETXINFO_FNS
 2619:0CB7           GET_CMDARGS
 1F58:2333           GET_DDS
 0000:25C3           GET_EMSADDR
 2619:9197           GET_EPS
 111A:7858           GET_LDT
 2619:5FD1           GET_MACINFO
 2619:898B           GET_POSID
 0000:1346           GET_TC
 0000:07A4           GET_WINVXD_VEC
 0000:0198           GLB_FLAG
 0000:54D9           GOREAL
 0000:0D13           GOREAL_LOW
 0000:54CD           GOREAL_REBOOT
 0000:0CD1           GOREAL_SUB
 0000:A450           GORSIZE
 0000:0624           GOVM86_LOW
 1F58:0EBC           GPJG_RDMSR
 1F58:0F2C           GPJG_RDPMC
 1F58:0EEB           GPJG_WRMSR
 0000:A530           GP_ACT
 0000:2FB7           GP_ASP
 0000:2FF2           GP_CLI
 0000:2F99           GP_CS
 0000:2FA3           GP_DS
 0000:2F94           GP_ES
 0000:305A           GP_ESCOD
 0000:3004           GP_FJMP
 0000:2FA8           GP_FS
 0000:2FAD           GP_GS
 0000:2FCF           GP_HLT
 0000:6D3C           GP_INDB
 0000:6D70           GP_INDW
 0000:6CDA           GP_INIB
 0000:6CFC           GP_INIW
 0000:2FBD           GP_LOCK
 0000:310D           GP_MOV_CRN_R32
 0000:311B           GP_MOV_DRN_R32
 0000:30AB           GP_MOV_R32_CRN
 0000:30B9           GP_MOV_R32_DRN
 0000:30C7           GP_MOV_R32_TRN
 0000:3129           GP_MOV_TRN_R32
 0000:2FB2           GP_OSP
 0000:6BFA           GP_OUTDB
 0000:6C40           GP_OUTDW
 0000:6B9C           GP_OUTIB
 0000:6BBE           GP_OUTIW
 0000:2FC9           GP_REP
 0000:2FC3           GP_REPNE
 0000:2F9E           GP_SS
 0000:2FFB           GP_STI
 0000:B63E           HARDCNT
 0000:6102           HARDINT
 0000:0A95           HARDRET
 0000:9CD4           HARPO_FILESPEC
 1F58:0004           HARPO_FNS
 2619:C0B8           HDISK
 0000:B640           HEXTABLE
 0000:BF64           HFRMLEN
 0000:BF68           HFRMSIZE
 0000:C62C           HIGHDOS_MAP
 0000:B9A8           HIMEM_CS
 0000:F598           HI_ENDADDR
 0000:0480           HI_PGET_WINVXD_VEC
 0000:047C           HI_WINVXD_VEC
 0000:C4FA           HMAMIN
 0000:AB2A           HMAP
 0000:BF98           HMASIZE
 0000:D438           HOIST_GROUP
 0000:06FD           HOOK13
 0000:C5B8           HOSTIDSTRING
 0000:57D7           HOUSE_DOG
 0000:AAC6           HPDABUF_OFF
 0000:AABE           HPDABUF_SIZ
 2619:C29B           HPDAR
 2619:C2AD           HPDASEG
 0000:AAC2           HPDASTK_OFF
 0000:AABC           HPDASTK_SIZ
 0000:AAC4           HPDASTK_TOP
 0000:AAC0           HPDAVMC_CNT
 0000:AAC8           HPDAVMC_OFF
 0000:C5C0           HPDA_IXXRET
 0000:AACA           HPDA_NPAR
 111A:DAF4           HPDA_TEMPLATE
 0000:AB72           HP_LAST
 0000:0490           I13CNT
 0000:046C           I15_FLAG
 1F58:189F           I21MAC_48XX
 1F58:18CE           I21MAC_49XX
 1F58:18DD           I21MAC_4AXX
 1F58:1904           I21MAC_4CXX
 1F58:195A           I21MAC_5800
 1F58:1965           I21MAC_5801
 1F58:19A2           I21MAC_5802
 1F58:19B0           I21MAC_5803
 1F58:6320           I21MAC_TAB
 0000:AAA0           I31_FLAG
 1F58:2279           I4B_BUF2MEM
 1F58:22C6           I4B_DISTRAN
 1F58:22F9           I4B_ENATRAN
 0000:AB18           I4B_FLAG
 1F58:6384           I4B_FNS
 1F58:2152           I4B_GETBUF
 1F58:1DC6           I4B_LOCK
 1F58:2228           I4B_MEM2BUF
 1F58:21EA           I4B_RELBUF
 1F58:1FAD           I4B_SLOCK
 1F58:213F           I4B_SUNLK
 1F58:1F6B           I4B_UNLK
 1F58:1D6D           I4B_VERS
 2619:CC1F           I78DATA
 111A:E3D8           IDATA_NXT
 2619:C108           IDENTIFY
 0000:015E      Abs  IDENTIFY_LEN
 2619:C266           IDENT_CHK
 0000:AC38           IDT_DESC
 0000:0800      Abs  IDT_DESC_LEN
 0000:0CA8           IDT_REAL
 0000:9BC8           IDT_REBOOT
 0000:B438           IDT_TAB
 2619:B676           IGNCNT
 0000:B700           IGRBASE
 0000:B704           IGRSIZE
 0000:0484           IIS_MAX
 111A:B690           IMM2_DPMIPRES
 111A:B6E2           IMM2_USEVCPI
 1F58:53AC           INACTIVATE_HOOK13
 0000:BCD8           INCSIZE
 2619:CB86           INCTEXT
 0000:0188           INFO
 0000:0066      Abs  INFOSIZE
 0000:0187           INFO_CTL
 0000:E61A           INIT
 0000:E61F           INIT2
 2619:5836           INIT2X
 2619:5989           INITX
 0000:ED90           INIT_CHIPSET
 1F58:0BE9           INIT_DATA
 0000:E3B2           INIT_DPMITAB
 2619:C9FC           INIT_ENTRY_CTR
 2619:A70C           INIT_MBOOT
 0000:C880           INIT_MIVT
 0000:6F07           INIT_PROT
 0000:E52F           INIT_SIRBCUR
 0000:EAC4           INIT_SWAT
 2619:6084           INIT_VIRT
 0000:8F1D           INIT_XMS
 2619:87AF           INST24
 2619:1AED           INSTINT01
 2619:1BC1           INST_INTS
 1F58:0F67           INST_TMPINT0D
 2619:9F89           INST_TMPINT15
 0000:3394           INS_MOV_CRN_R32
 0000:33CD           INS_MOV_DRN_R32
 0000:3373           INS_MOV_R32_CRN
 0000:3377           INS_MOV_R32_DRN
 0000:337B           INS_MOV_R32_TRN
 0000:33D1           INS_MOV_TRN_R32
 111A:7F2C           INT00
 111A:CD10           INT00NXT_FVEC
 0000:5810           INT01
 0FEF:07C9           INT01MSG
 0000:58C6           INT01_COMMON
 0000:58F2           INT02
 0000:594C           INT03
 0FEF:07DA           INT03MSG
 111A:8020           INT04
 111A:805A           INT05
 0000:59B2           INT06
 0FEF:07EC           INT06MSG
 0000:5D5E           INT07
 0000:A4F0           INT07DP
 0000:5E44           INT08
 0FEF:07FE           INT08MSG
 0000:2CA4           INT09
 0000:5EC0           INT0A
 0FEF:080B           INT0AMSG
 0000:5F3C           INT0B
 0FEF:081D           INT0BMSG
 0000:5FB8           INT0C
 0FEF:0831           INT0CMSG
 0000:2E55           INT0D
 0FEF:037B           INT0DMSG_NF
 0FEF:036C           INT0DMSG_VM
 0000:A52E           INT0D_DPMIJMP
 0000:32C4           INT0D_DPMIREST
 0000:3360           INT0D_INVOPCOD
 0000:321A           INT0D_IRETD
 0000:3287           INT0D_IRETD1
 0000:3298           INT0D_IRET_TF
 0000:3356           INT0D_SOR
 0000:32BE           INT0D_UGHNF
 0000:33D8           INT0E
 0FEF:038C           INT0EMSG
 0FEF:035C           INT0E_DMAFULL
 0FEF:119C           INT0E_DMAPAGE
 0000:3740           INT0E_DPMI_VISIBLE
 0000:3720           INT0E_UGHPNP
 0000:3825           INT0E_UGHROM
 0000:381F           INT0E_UGHSUP
 0000:6072           INT0F
 0000:9160           INT10
 111A:13D0           INT10_DPMI
 111A:13ED           INT10_INTRETPM
 111A:8094           INT11
 0FEF:083D           INT11MSG
 1F58:28EC           INT12
 0FEF:084D           INT12MSG
 111A:0058           INT15
 0000:E022           INT15PROT
 111A:1514           INT15_DPMI
 111A:0079           INT15_HIMEM_CS
 111A:1531           INT15_INTRETPM
 111A:8107           INT1C
 111A:8128           INT20
 111A:8153           INT20_INTRETPM
 0000:3AE1           INT21
 111A:15DC           INT21_DPMI
 111A:16C5           INT21_DPMI_BKEYIN
 111A:1EE2           INT21_DPMI_BP2DPB
 111A:16DA           INT21_DPMI_CKEYIN
 111A:1715           INT21_DPMI_DELEF
 111A:1F48           INT21_DPMI_ERRXMEM
 111A:1E8A           INT21_DPMI_EXEC
 111A:1F6A           INT21_DPMI_EXIT
 111A:1EB3           INT21_DPMI_EXITRC
 111A:1843           INT21_DPMI_FIND1
 111A:1F0F           INT21_DPMI_FIXPTH
 111A:1AE8           INT21_DPMI_GETDIR
 111A:17BD           INT21_DPMI_GETDTA
 111A:17EE           INT21_DPMI_GETINT
 111A:1AF4           INT21_DPMI_GETMEM
 111A:1F22           INT21_DPMI_GETXCD
 111A:1825           INT21_DPMI_GSTCDI
 111A:1F30           INT21_DPMI_GSTSER
 111A:19BA           INT21_DPMI_IOCTL2
 111A:1843           INT21_DPMI_MKDIR
 111A:1C81           INT21_DPMI_MODMEM
 111A:1786           INT21_DPMI_PARSF
 111A:1857           INT21_DPMI_READF2
 111A:18F5           INT21_DPMI_READF2_DONE
 111A:186B           INT21_DPMI_READF2_NEXT
 111A:18A5           INT21_DPMI_READF2_TAIL
 111A:1C26           INT21_DPMI_RELMEM
 111A:1F03           INT21_DPMI_RENMF2
 111A:172E           INT21_DPMI_SETDTA
 111A:175C           INT21_DPMI_SETINT
 111A:1715           INT21_DPMI_SRCH1
 111A:163C           INT21_DPMI_STROUT
 111A:169F           INT21_DPMI_STROUT_TAIL
 111A:184B           INT21_DPMI_TMPFIL
 111A:1F80           INT21_DPMI_UNSUP
 111A:1917           INT21_DPMI_WRITF2
 111A:192B           INT21_DPMI_WRITF2_NEXT
 111A:1964           INT21_DPMI_WRITF2_TAIL
 111A:1843           INT21_DPMI_XOPCR2
 0000:3C9C           INT21_EXEC
 111A:15F9           INT21_INTRETPM
 1F58:1780           INT21_MACFNS
 111A:8155           INT22DEF
 111A:81B0           INT23
 111A:81C6           INT23DEF
 111A:81F0           INT23_INTRETPM
 0000:C5A2           INT23_TYP
 111A:8270           INT24
 111A:8282           INT24DEF
 111A:82CC           INT24_INTRETPM
 0000:C5A3           INT24_TYP
 111A:830F           INT25
 111A:833A           INT25_INTRETPM
 111A:836A           INT26
 111A:8395           INT26_INTRETPM
 111A:8397           INT27
 111A:83C2           INT27_INTRETPM
 0000:8090           INT2F
 0000:8138           INT2F_HIMEM_CS
 0000:80BA           INT2F_INTRETPM
 111A:0658           INT31
 111A:07A1           INT31A_HIMEM_CS
 111A:B6DD           INT31B_HIMEM_CS
 111A:0781           INT31_CLC
 111A:076B           INT31_ERR
 111A:0735           INT31_ERR_EXCLUSIVE
 111A:0765           INT31_ERR_INVADDR
 111A:0755           INT31_ERR_INVHNDL
 111A:074D           INT31_ERR_INVSEL
 111A:06FD           INT31_ERR_INVSTATE
 111A:0745           INT31_ERR_INVVAL
 111A:075D           INT31_ERR_INVVMC
 111A:06DC           INT31_ERR_MAC
 111A:06E5           INT31_ERR_MNF
 111A:06ED           INT31_ERR_NODMEM
 111A:06F5           INT31_ERR_NOFNS
 111A:072D           INT31_ERR_NOHNDL
 111A:0715           INT31_ERR_NOMEM
 111A:071D           INT31_ERR_NOPHYSMEM
 111A:070D           INT31_ERR_NOSEL
 111A:0725           INT31_ERR_NOVMC
 111A:0705           INT31_ERR_REQCAN
 111A:073D           INT31_ERR_SHARED
 111A:0680           INT31_INTRETPM
 111A:0DBF           INT31_VM2PM_RET
 111A:0E1A           INT31_VM2PM_RETOK
 111A:83C4           INT33
 111A:29BC           INT33_DPMI
 111A:2B5D           INT33_DPMI_EXIT
 111A:2B1B           INT33_DPMI_GETSSRSIZE_EXIT
 111A:2A2D           INT33_DPMI_HOOKMEI
 111A:2E0D           INT33_DPMI_RESTMEI
 111A:2E39           INT33_DPMI_RESTMEI_EXIT
 111A:2B49           INT33_DPMI_RESTSTATE
 111A:2B33           INT33_DPMI_SAVESTATE
 111A:2A23           INT33_DPMI_SETSHAPE
 111A:2A64           INT33_DPMI_SWAPINT
 111A:2AE2           INT33_DPMI_SWAPINT_EXIT
 111A:29D9           INT33_INTRETPM
 111A:83D5           INT41
 0000:9170           INT41_DOSX
 111A:8400           INT41_INTRETPM
 1F58:1BCC           INT4B
 1F58:2712           INT4B_CPUPHYS
 1F58:1BFF           INT4B_INTRETPM
 1F58:2634           INT4B_NEXTPTE
 1F58:272D           INT4B_VIRT_LOCK
 1F58:2826           INT4B_VIRT_LOCKPRESENT
 1F58:2782           INT4B_VIRT_UNLOCK
 0000:4028           INT67
 0000:4038           INT67A_HIMEM_CS
 0000:4061           INT67B_HIMEM_CS
 0000:4698           INT67_IRETD
 111A:8402           INT68
 111A:0534           INT68_4403
 111A:8455           INT68_INTRETPM
 0000:607C           INT70
 0000:6086           INT71
 0000:6090           INT72
 0000:609A           INT73
 0000:60A4           INT74
 0000:60AE           INT75
 0000:60B8           INT76
 0000:60C2           INT77
 1F58:2982           INT81
 1F58:2989           INT82
 1F58:2990           INT83
 1F58:2997           INT84
 0000:046E           INTA01
 0000:046F           INTB01
 0000:4C08           INTCOM
 0000:4C22           INTCOM_DPMI_CHKRET
 0000:4F2F           INTCOM_DPMI_FAULT
 0000:4D5C           INTCOM_DPMI_HARDRET
 0000:4DC6           INTCOM_DPMI_INT
 0000:4E0F           INTCOM_DPMI_INTMAX
 111A:CCF6           INTELCB
 111A:36AF           INTFB
 111A:3718           INTFC
 111A:3ADC           INTFD
 0000:7858           INTFE
 0000:7868           INTFE_HIMEM_CS
 0000:61C0           INTFF
 0000:61D0           INTFF_HIMEM_CS
 0000:60CC           INTNFCOM
 0000:503A           INTPROC
 0000:503C           INTPROC00
 0000:503F           INTPROC00Z
 0000:5040           INTPROC01
 0000:5044           INTPROC02
 0000:5048           INTPROC03
 0000:504C           INTPROC04
 0000:5050           INTPROC05
 0000:5054           INTPROC06
 0000:5058           INTPROC07
 0000:505C           INTPROC08
 0000:5060           INTPROC09
 0000:5064           INTPROC0A
 0000:5068           INTPROC0B
 0000:506C           INTPROC0C
 0000:5070           INTPROC0D
 0000:5074           INTPROC0E
 0000:5078           INTPROC0F
 0000:507C           INTPROC10
 0000:5080           INTPROC11
 0000:5084           INTPROC12
 0000:5088           INTPROC13
 0000:508C           INTPROC14
 0000:5090           INTPROC15
 0000:5094           INTPROC16
 0000:5098           INTPROC17
 0000:509C           INTPROC18
 0000:50A0           INTPROC19
 0000:50A4           INTPROC1A
 0000:50A8           INTPROC1B
 0000:50AC           INTPROC1C
 0000:50B0           INTPROC1D
 0000:50B4           INTPROC1E
 0000:50B8           INTPROC1F
 0000:50BC           INTPROC20
 0000:50C0           INTPROC21
 0000:50C4           INTPROC22
 0000:50C8           INTPROC23
 0000:50CC           INTPROC24
 0000:50D0           INTPROC25
 0000:50D4           INTPROC26
 0000:50D8           INTPROC27
 0000:50DC           INTPROC28
 0000:50E0           INTPROC29
 0000:50E4           INTPROC2A
 0000:50E8           INTPROC2B
 0000:50EC           INTPROC2C
 0000:50F0           INTPROC2D
 0000:50F4           INTPROC2E
 0000:50F8           INTPROC2F
 0000:50FC           INTPROC30
 0000:5100           INTPROC31
 0000:5104           INTPROC32
 0000:5108           INTPROC33
 0000:510C           INTPROC34
 0000:5110           INTPROC35
 0000:5114           INTPROC36
 0000:5118           INTPROC37
 0000:511C           INTPROC38
 0000:5120           INTPROC39
 0000:5124           INTPROC3A
 0000:5128           INTPROC3B
 0000:512C           INTPROC3C
 0000:5130           INTPROC3D
 0000:5134           INTPROC3E
 0000:5138           INTPROC3F
 0000:513C           INTPROC40
 0000:5140           INTPROC41
 0000:5144           INTPROC42
 0000:5148           INTPROC43
 0000:514C           INTPROC44
 0000:5150           INTPROC45
 0000:5154           INTPROC46
 0000:5158           INTPROC47
 0000:515C           INTPROC48
 0000:5160           INTPROC49
 0000:5164           INTPROC4A
 0000:5168           INTPROC4B
 0000:516C           INTPROC4C
 0000:5170           INTPROC4D
 0000:5174           INTPROC4E
 0000:5178           INTPROC4F
 0000:517C           INTPROC50
 0000:5180           INTPROC51
 0000:5184           INTPROC52
 0000:5188           INTPROC53
 0000:518C           INTPROC54
 0000:5190           INTPROC55
 0000:5194           INTPROC56
 0000:5198           INTPROC57
 0000:519C           INTPROC58
 0000:51A0           INTPROC59
 0000:51A4           INTPROC5A
 0000:51A8           INTPROC5B
 0000:51AC           INTPROC5C
 0000:51B0           INTPROC5D
 0000:51B4           INTPROC5E
 0000:51B8           INTPROC5F
 0000:51BC           INTPROC60
 0000:51C0           INTPROC61
 0000:51C4           INTPROC62
 0000:51C8           INTPROC63
 0000:51CC           INTPROC64
 0000:51D0           INTPROC65
 0000:51D4           INTPROC66
 0000:51D8           INTPROC67
 0000:51DC           INTPROC68
 0000:51E0           INTPROC69
 0000:51E4           INTPROC6A
 0000:51E8           INTPROC6B
 0000:51EC           INTPROC6C
 0000:51F0           INTPROC6D
 0000:51F4           INTPROC6E
 0000:51F8           INTPROC6F
 0000:51FC           INTPROC70
 0000:5200           INTPROC71
 0000:5204           INTPROC72
 0000:5208           INTPROC73
 0000:520C           INTPROC74
 0000:5210           INTPROC75
 0000:5214           INTPROC76
 0000:5218           INTPROC77
 0000:521C           INTPROC78
 0000:5220           INTPROC79
 0000:5224           INTPROC7A
 0000:5228           INTPROC7B
 0000:522C           INTPROC7C
 0000:5230           INTPROC7D
 0000:5234           INTPROC7E
 0000:5238           INTPROC7F
 0000:523C           INTPROC80
 0000:5240           INTPROC81
 0000:5244           INTPROC82
 0000:5248           INTPROC83
 0000:524C           INTPROC84
 0000:5250           INTPROC85
 0000:5254           INTPROC86
 0000:5258           INTPROC87
 0000:525C           INTPROC88
 0000:5260           INTPROC89
 0000:5264           INTPROC8A
 0000:5268           INTPROC8B
 0000:526C           INTPROC8C
 0000:5270           INTPROC8D
 0000:5274           INTPROC8E
 0000:5278           INTPROC8F
 0000:527C           INTPROC90
 0000:5280           INTPROC91
 0000:5284           INTPROC92
 0000:5288           INTPROC93
 0000:528C           INTPROC94
 0000:5290           INTPROC95
 0000:5294           INTPROC96
 0000:5298           INTPROC97
 0000:529C           INTPROC98
 0000:52A0           INTPROC99
 0000:52A4           INTPROC9A
 0000:52A8           INTPROC9B
 0000:52AC           INTPROC9C
 0000:52B0           INTPROC9D
 0000:52B4           INTPROC9E
 0000:52B8           INTPROC9F
 0000:52BC           INTPROCA0
 0000:52C0           INTPROCA1
 0000:52C4           INTPROCA2
 0000:52C8           INTPROCA3
 0000:52CC           INTPROCA4
 0000:52D0           INTPROCA5
 0000:52D4           INTPROCA6
 0000:52D8           INTPROCA7
 0000:52DC           INTPROCA8
 0000:52E0           INTPROCA9
 0000:52E4           INTPROCAA
 0000:52E8           INTPROCAB
 0000:52EC           INTPROCAC
 0000:52F0           INTPROCAD
 0000:52F4           INTPROCAE
 0000:52F8           INTPROCAF
 0000:52FC           INTPROCB0
 0000:5300           INTPROCB1
 0000:5304           INTPROCB2
 0000:5308           INTPROCB3
 0000:530C           INTPROCB4
 0000:5310           INTPROCB5
 0000:5314           INTPROCB6
 0000:5318           INTPROCB7
 0000:531C           INTPROCB8
 0000:5320           INTPROCB9
 0000:5324           INTPROCBA
 0000:5328           INTPROCBB
 0000:532C           INTPROCBC
 0000:5330           INTPROCBD
 0000:5334           INTPROCBE
 0000:5338           INTPROCBF
 0000:533C           INTPROCC0
 0000:5340           INTPROCC1
 0000:5344           INTPROCC2
 0000:5348           INTPROCC3
 0000:534C           INTPROCC4
 0000:5350           INTPROCC5
 0000:5354           INTPROCC6
 0000:5358           INTPROCC7
 0000:535C           INTPROCC8
 0000:5360           INTPROCC9
 0000:5364           INTPROCCA
 0000:5368           INTPROCCB
 0000:536C           INTPROCCC
 0000:5370           INTPROCCD
 0000:5374           INTPROCCE
 0000:5378           INTPROCCF
 0000:537C           INTPROCD0
 0000:5380           INTPROCD1
 0000:5384           INTPROCD2
 0000:5388           INTPROCD3
 0000:538C           INTPROCD4
 0000:5390           INTPROCD5
 0000:5394           INTPROCD6
 0000:5398           INTPROCD7
 0000:539C           INTPROCD8
 0000:53A0           INTPROCD9
 0000:53A4           INTPROCDA
 0000:53A8           INTPROCDB
 0000:53AC           INTPROCDC
 0000:53B0           INTPROCDD
 0000:53B4           INTPROCDE
 0000:53B8           INTPROCDF
 0000:53BC           INTPROCE0
 0000:53C0           INTPROCE1
 0000:53C4           INTPROCE2
 0000:53C8           INTPROCE3
 0000:53CC           INTPROCE4
 0000:53D0           INTPROCE5
 0000:53D4           INTPROCE6
 0000:53D8           INTPROCE7
 0000:53DC           INTPROCE8
 0000:53E0           INTPROCE9
 0000:53E4           INTPROCEA
 0000:53E8           INTPROCEB
 0000:53EC           INTPROCEC
 0000:53F0           INTPROCED
 0000:53F4           INTPROCEE
 0000:53F8           INTPROCEF
 0000:53FC           INTPROCF0
 0000:5400           INTPROCF1
 0000:5404           INTPROCF2
 0000:5408           INTPROCF3
 0000:540C           INTPROCF4
 0000:5410           INTPROCF5
 0000:5414           INTPROCF6
 0000:5418           INTPROCF7
 0000:541C           INTPROCF8
 0000:5420           INTPROCF9
 0000:5424           INTPROCFA
 0000:5428           INTPROCFB
 0000:542C           INTPROCFC
 0000:5430           INTPROCFD
 0000:5434           INTPROCFE
 0000:5438           INTPROCFF
 2619:515C           INTR_GET
 2619:52F4           INTR_SET
 0000:543B           INTXXCOM
 0000:9B02           INVALID_OK
 0000:C4CC           IOTRAP_TYP
 0000:F5D0           IOWRAP
 0000:BADA           IO_LIM_MASK
 0000:5008           IRETD_COM
 2619:C0BC           IRQ_FLAG
 111A:0654           ISEL_4GB3
 111A:0652           ISEL_DS3
 111A:0650           ISEL_DSIG3
 2619:507A           IZIT486
 2619:02B1           IZITCOMMENT
 2619:007D           IZITEGA
 2619:02B8           IZITEOL
 1F58:1A69           IZITLSEG
 2619:00A9           IZITVGA
 2619:7048           IZITWS
 0000:4FC8           IZIT_CPIHOOK
 2619:50AC           IZIT_CPUID
 1F58:1ACC           IZIT_MACLINK
 2619:A78E           IZIT_PNP
 0000:4FE4           IZIT_PPIHOOK
 111A:B77A           IZIT_RATIONAL
 0000:4F8A           IZIT_REFLINT
 0000:E395           IZIT_SHDROM
 2619:9C76           IZIT_ZMSPORT
 1F58:6A18           JCODE_NXT
 0000:BFC0           JGRBASE
 0000:BFC8           JGRDSIZE
 0000:BFC4           JGRSIZE
 1F58:3638           JMM2_CM3FLAG
 1F58:024A           JMM2_CURSOR
 1F58:025D           JMM2_CURSOR0
 1F58:027E           JMM2_CURSOR1
 1F58:3625           JMM2_DB2FLAG
 1F58:3606           JMM2_DBGFLAG
 1F58:459E           JMM2_DISPSTR
 1F58:047B           JMM2_DLGROUP
 1F58:50A0           JMM2_DSTKS
 1F58:50B3           JMM2_DSTKS0
 1F58:50E5           JMM2_DSTKS1
 1F58:50FC           JMM2_DSTKS2
 1F58:45AF           JMM2_EXTADDR
 1F58:4557           JMM2_FLEXINFO
 1F58:0068           JMM2_GETINFO
 1F58:0045           JMM2_GETMAP
 1F58:5082           JMM2_GETMAXINT
 1F58:0013           JMM2_GETMCS
 1F58:4585           JMM2_GETOLDINT
 1F58:0080           JMM2_GETPPM
 1F58:359C           JMM2_GETPTE
 1F58:0309           JMM2_GETTEXT
 1F58:35F3           JMM2_GLBFLAG
 1F58:0173           JMM2_GOREAL
 1F58:38B7           JMM2_GOREALWIN3
 1F58:03D6           JMM2_GSLINK58
 1F58:0346           JMM2_HARP0
 1F58:034F           JMM2_HARP1
 1F58:037D           JMM2_HARP2
 1F58:03A4           JMM2_HARP3
 1F58:03BF           JMM2_HARP4
 1F58:032C           JMM2_HARPOINFO
 1F58:019F           JMM2_HIMEM
 1F58:510E           JMM2_INITREST
 1F58:432D           JMM2_INITWIN3
 1F58:0443           JMM2_MALLOC
 1F58:009C           JMM2_MEMTIME
 1F58:4500           JMM2_PHYS2LIN
 1F58:04D7           JMM2_PNP
 1F58:02D5           JMM2_POSCOPY
 1F58:440D           JMM2_PSMEM
 1F58:364B           JMM2_RAMSCAN
 1F58:3859           JMM2_ROMRW
 1F58:37E5           JMM2_ROMSWAP
 1F58:451B           JMM2_SETPTE
 1F58:52F2           JMM2_SWAPFILE
 1F58:52D7           JMM2_TMPCLOSE
 1F58:5339           JMM2_VMVSAPI
 1F58:536D           JMM2_VSAPI00
 1F58:0034           JMM_E00AL
 1F58:3588           JMM_E84
 1F58:358D           JMM_E87
 1F58:3592           JMM_E8A
 1F58:3597           JMM_E8B
 1F58:000E           JMM_E8F
 1F58:5126           JMM_TEST
 111A:C5CC           JMPTAB10
 111A:C6E8           JMPTAB15
 111A:C75C           JMPTAB21
 111A:CBF8           JMPTAB33
 1F58:63A0           JSEL_DS3
 0000:C5D1           KERNEL_MODEL
 0000:57C6           KEYWAIT
 111A:DAE8           KRNL386
 0FEF:0A94           L0CNUM
 0FEF:0AF2           L12NUM
 0000:A970           LABBMDST
 0000:A96C           LABBMSRC
 0000:A448           LACR3
 0000:C4D0           LACVD
 0000:A428           LADIR2
 0000:AAE4           LADPMIPDIR
 0000:AAE8           LADPMIPDIRMEM
 0000:AC1C           LADSTK_TAB
 0000:F5DC           LAEMM_IMPORT_PTR
 0000:9BBA           LAGDTPNPARG
 0000:B78C           LAINDOS
 1F58:630E           LALINKFLG
 1F58:6312           LALINKSEG
 0000:F4E8           LALO
 0000:A434           LAOPTE
 0000:A444           LAPDIREND
 0000:9BB4           LAPL3STK
 0000:C69C           LAPNP_BIOS
 0000:C6A0           LAPNP_PMCS
 0000:C6A4           LAPNP_PMDS
 0000:BF8C           LASIRBCUR
 0000:BAE0           LAST64
 0000:F5D8           LASTCHAR
 2619:AFBC           LASTKEY
 0000:C484           LASTLINK
 111A:CD8C           LASTSWAPHANDLE
 111A:CD8A           LASTSWAPPSP
 0000:A968           LAST_BBMDST
 0000:A964           LAST_BBMSRC
 0000:C480           LAST_CR3
 0000:C590           LAST_DPMI_DS
 0000:C592           LAST_DPMI_ES
 0000:C594           LAST_DPMI_FS
 0000:C596           LAST_DPMI_GS
 0000:AC0C           LAST_EMSHNDL
 0000:C48A           LAST_ESP
 0000:B650           LAST_INTCOM
 0000:B654           LAST_INTFLG
 1F58:6364           LAST_RINFO
 0000:9AF0           LAVROM_BEG
 0000:9AF4           LAVROM_END
 0000:BD2C           LCL28_VEC
 2619:C800           LCLDPFE
 0000:BC58           LCLMEM
 0000:0080      Abs  LCLMEM_LEN
 2619:CCE6           LCL_ALCSIGN
 2619:CD08           LCL_ALRSIGN
 2619:CD2F           LCL_AMSTRADSIGN
 2619:CD9F           LCL_ASEMSIGN
 2619:CDBF           LCL_ASTSIGN
 2619:CDD5           LCL_CASIGN
 0000:0058           LCL_CR3
 2619:CCFB           LCL_DELLSIGN
 0000:B638           LCL_DTR
 0000:0BE5           LCL_EFL
 2619:CDA3           LCL_EPSONSIGN
 0000:01BA           LCL_FLAG
 2619:CE27           LCL_GATEWAYSIGN
 0000:E618           LCL_INT03
 2619:2044           LCL_INT1C
 2619:8793           LCL_INT24
 2619:CCC3           LCL_ITTSIGN
 2619:CD5D           LCL_NECSIGN
 2619:CD6C           LCL_NECSIGNLAP
 2619:CD7B           LCL_NECSXSIGN
 2619:CCAD           LCL_OLISIGN
 2619:CD82           LCL_PHOENIXSIGN
 2619:CDAD           LCL_QUADSIGN
 0000:AC32           LCL_SAVE_PTR
 2619:CD9A           LCL_TANDYSIGN
 2619:CDA8           LCL_TOSHSIGN
 2619:CD39           LCL_ZDSSIGN
 2619:CD3C           LCL_ZMSPORT
 111A:0658           LCODE_NXT
 25FA:019E           LDBG
 0000:C5A8           LDT_SIZ
 0000:0050           LHI_END
 0000:004B           LHI_INTR
 0000:0050           LHI_INTR3
 0000:004E           LHI_INTR_CS
 0000:0053           LHI_INTR_CS3
 0000:0046           LHI_STRA
 0000:0049           LHI_STRA_CS
 1F58:3EF6           LIN2PHYS
 111A:CDB8           LINEARBOTTOM
 111A:CDBC           LINEARCLIENTBOTTOM
 111A:CDC0           LINEARCLIENTTOP
 111A:CDC4           LINEARSYSTEMBREAK
 0000:6E2C           LINPHYS
 0000:6EAE           LINPHYS_NP_SUB
 0000:6EC7           LINPHYS_PG_SUB
 0000:B6F0           LMLBASE
 0000:B9A4           LMLTOP
 0000:BB84           LOADBYTE
 0000:BB88           LOADCOUNT
 2619:5462           LOADHI
 2619:53E5           LOADHISUB
 0000:01CA           LOADSEG
 1F58:636E           LOADSIZE
 1F58:0FE4           LOADSUB
 0000:BB8C           LOADTAB
 0000:BB8A           LOADTABIND
 2619:21BB           LOADUP
 1F58:2C89           LOAD_INPRO
 2619:597E           LOCAL_INT13
 2619:C0C0           LODBASE
 0000:C2DE           LOFFCPQSTR
 2619:C9FE           LOGICAL_ID
 1F58:299E           LOTUS_COM
 0000:AC0E           LOTUS_EMSHNDL
 0FEF:0798           LOTUS_SIGN
 0000:B6E0           LOWBASE
 2619:0D57           LOWERCASE
 0000:006C           LOWGDT
 0000:B9A0           LOWOFF
 0000:019A           LOWSIZE
 0000:0086           LOWSTK
 0000:0186           LOWSTKZ
 0000:AC2C           LOWSTK_FVEC
 2619:CA74           LOWTEXT
 0000:020C           LOWWIN3_CB
 0000:0068           LO_PGET_WINVXD_VEC
 0000:0064           LO_WINVXD_VEC
 0000:C580           LPMSTK_CNT
 0000:C588           LPMSTK_FVEC
 0000:AAF0           LPMSTK_SEL
 0000:C584           LPMSTK_SIZ
 0000:0D90           LSEG
 0000:0DC2           LSEGZ
 0000:F596           LSEG_OFF
 111A:8E60           LSM_ALLOC
 111A:9219           LSM_ALLOC_FREE_NODE
 111A:956A           LSM_EXPAND_UNCOMPDE
 111A:93C7           LSM_FILL_PT
 111A:9148           LSM_FREE
 111A:950B           LSM_GET_CLIENT_LIST
 111A:9502           LSM_GET_SHARED_LIST
 111A:9251           LSM_GROW_FREE_NODE_ARRAY
 111A:8CB0           LSM_INIT
 111A:8D28           LSM_INIT_CLIENT
 111A:92F1           LSM_MAP_PAGE
 111A:935F           LSM_MERGE_FREE_LIST
 111A:9283           LSM_NEW_PAGE_TABLE
 111A:91EA           LSM_QUERY
 111A:9520           LSM_RELEASE_NODE_ARRAY
 111A:93FB           LSM_SETN_PTES
 111A:9591           LSM_SET_PDE
 0000:FE20           MACHID
 1F58:2CC5           MAC_ALLOC
 1F58:348A           MAC_FREE
 1F58:2AE8           MAC_MERGE
 1F58:2AFA           MAC_MERGESUB
 1F58:322D           MAC_REALLOC
 1F58:630C           MAC_STRA
 0000:B6E8           MAPBASE
 0000:C464           MAPSEG_NXT
 0000:01A6           MAPSIZE
 0000:C3A4           MAPTAB
 0000:C3A0           MAPTAB_CNT
 0000:C3A2           MAPTAB_IND
 1F58:407C           MAP_WIN3
 2619:2111           MARKENTRY
 2619:6A2B           MARK_ALIGN
 2619:8941           MARK_XT
 0FEF:0398           MAXINT_VECS
 0000:F4B2           MAXMOVE
 1F58:6372           MAXPARA
 0000:AB24           MAXRPN
 2619:C0BA           MAX_DSECTS
 2619:CA70           MAX_EMSMEM
 2619:C0B9           MAX_TSECTS
 2619:CE48           MBOOT_SECTION
 2619:CBEE           MCAID
 0000:B9AC           MCSTAB
 0000:B9AA           MCSTAB_CNT
 1F58:2668           MEM2BUF
 1F58:267A           MEM2BUF_SUB
 0000:FE60           MEMTIME
 0000:FE5E           MEMTIME_HI
 0000:FE5A           MEMTIME_LO
 0000:FE5C           MEMTIME_MD
 0000:F5E8           MEM_MAP
 0000:0800      Abs  MEM_MAP_LEN
 0000:B6D8           MINBASE
 0000:BEDC           MISSPTE
 0000:9B08           MIVT_VEC
 1F58:6366           MNAME
 2619:0947           MODIFY_FLEXINFO
 2619:58E8           MODIFY_INT2F
 0000:2556           MOVE_4GB
 0000:2323           MOVE_CC_DO
 0000:22F8           MOVE_CC_XDO
 0000:21E8           MOVE_CE
 0000:6404           MOVE_DB
 0000:2270           MOVE_EC
 0000:20EA           MOVE_EE_DO
 0000:2029           MOVE_EE_XDO
 2619:13AF           MOVE_SUB
 0000:F4EC           MOVE_TAB
 2619:CE33           MOVPCI
 0000:BD3C           MRS_CUR
 0000:BD3A           MRS_MAX
 0000:01C0           MSC_FLAG
 0000:C288           MSG1
 0FEF:0980           MSG_286
 3357:35F9           MSG_ABIOSERR
 3357:2C3F           MSG_ABORT
 0FEF:0DDD           MSG_ADDROFF
 0FEF:0DD8           MSG_ADDRSEG
 0FEF:0DDC           MSG_ADDRSEP
 0000:A994           MSG_APPLNAME
 0FEF:0D25           MSG_APPLUNK
 3357:285D           MSG_AUTOBCF_128K
 3357:2875           MSG_AUTOBCF_64K
 3357:2753           MSG_AUTOBCF_ARGERR
 3357:26B9           MSG_AUTOBCF_INST
 3357:267B           MSG_AUTOBCF_TERSE
 3357:2653           MSG_BCFERR
 3357:2633           MSG_BCF_ARGERR
 3357:25AD           MSG_BCF_BCRC
 3357:25DE           MSG_BCF_CMD
 3357:2621           MSG_BCF_DBG
 3357:262E           MSG_BCF_DBG1
 3357:258F           MSG_BCF_FCRC
 3357:25FD           MSG_BCF_INT
 3357:2613           MSG_BCF_INT1
 3357:2E21           MSG_BUSMASTER
 3357:2534           MSG_CMDCHK_EMSEXT
 3357:297B           MSG_CMDCHK_FRM1
 3357:29AA           MSG_CMDCHK_INC1
 3357:29EC           MSG_CMDCHK_WTK
 3357:2BBC           MSG_COPY
 3357:2BBA           MSG_COPYRIGHT
 0000:0085      Abs  MSG_COPYRIGHT_LEN
 3357:24C5           MSG_CRLF
 0FEF:0923           MSG_CRN
 0FEF:0938           MSG_CTRL
 0FEF:0A07           MSG_DMAFULL
 0FEF:08C4           MSG_DMAPAGE
 3357:3551           MSG_DOS5
 3357:295C           MSG_DPMI
 0FEF:0E06           MSG_DPMIADDR
 0FEF:0E11           MSG_DPMIADDROFF
 0FEF:0E0C           MSG_DPMIADDRSEL
 0FEF:0E10           MSG_DPMIADDRSEP
 0FEF:0E43           MSG_DPMIAPPLNAME
 0FEF:0E93           MSG_DPMIPRESS
 0000:C21F           MSG_EAVL
 3357:34DD           MSG_EISA_BAD
 3357:351A           MSG_EISA_BAD1
 3357:24EB           MSG_EOLERR
 3357:2880           MSG_ERRCPQ
 3357:288F           MSG_ERRCPQ1
 3357:2B53           MSG_ERRMOV
 3357:2B8D           MSG_ERRMOV1
 3357:2BA0           MSG_ERRMOV2
 3357:2BA4           MSG_ERRMOV3
 3357:2BB2           MSG_ERRMOV4
 3357:2AE3           MSG_ERRPRO
 3357:2B15           MSG_ERRPRO1
 3357:28BC           MSG_ERRSROM
 3357:28CB           MSG_ERRSROM1
 3357:2B1B           MSG_ERRTIM
 3357:2B4D           MSG_ERRTIM1
 3357:2A7A           MSG_EXECUP
 3357:2AB0           MSG_EXTLOD
 3357:3324           MSG_FF_ERR
 3357:332F           MSG_FF_ERR1
 3357:343C           MSG_FF_NORAM
 3357:3407           MSG_FF_NOROM
 3357:34A9           MSG_FF_ROM
 3357:3470           MSG_FF_SHDROM
 3357:32C3           MSG_FF_XROOM
 3357:32F3           MSG_FF_XVER
 3357:334E           MSG_FF_XVID
 3357:3389           MSG_FF_XVID1
 0FEF:11AC           MSG_FOXCOMPAT
 3357:366F           MSG_HPDARCHG
 0FEF:09DD           MSG_ICTRL
 3357:2484           MSG_INVALIDOK
 3357:2512           MSG_INVERR
 0FEF:085C           MSG_L01
 0FEF:086F           MSG_L03
 0FEF:0887           MSG_L06
 0FEF:089A           MSG_L08
 0FEF:0A45           MSG_L0A
 0FEF:0A5B           MSG_L0B
 0FEF:0A78           MSG_L0C
 0FEF:08AA           MSG_L0D
 0FEF:0AAD           MSG_L11
 0FEF:0AC7           MSG_L12
 0FEF:0DD2           MSG_LADR
 3357:2A55           MSG_LEXEC
 0FEF:0DA6           MSG_LKEY
 0FEF:0A94           MSG_LLA
 0FEF:0AF2           MSG_NF
 3357:31E4           MSG_NOALTVXD
 3357:3254           MSG_NOFLEXFILE_PASS1
 3357:3296           MSG_NOFLEXFILE_PASS2
 3357:35AF           MSG_NOIOWRAP
 3357:3520           MSG_NOPSMEM
 3357:2CDE           MSG_NOROOM
 3357:2C57           MSG_NOT386
 3357:2D9B           MSG_NOTDRV
 3357:2DDA           MSG_NOTINST
 3357:2C8C           MSG_NOTVM
 3357:3153           MSG_NOVXD
 3357:2574           MSG_OVF
 0FEF:09F3           MSG_P92
 3357:338F           MSG_PASS1_PAK
 0FEF:1220           MSG_PHARLAP
 0FEF:08D6           MSG_PNP
 3357:2A09           MSG_POPEN
 3357:3128           MSG_POSBOOT
 3357:2DFE           MSG_PRESS
 0FEF:0963           MSG_PULSE
 0FEF:11C9           MSG_RATIONAL1
 0FEF:11FA           MSG_RATIONAL2
 0FEF:09C0           MSG_REBOOT
 0FEF:0907           MSG_ROM
 0FEF:09A6           MSG_SELF
 3357:23FD           MSG_SEP
 3357:28F7           MSG_SHDROM1
 3357:2916           MSG_SHDROM2
 3357:292D           MSG_SHDROM3
 3357:295B           MSG_SHDROM4
 3357:3122           MSG_SIZE_DIF
 3357:307C           MSG_SIZE_EMM
 3357:302C           MSG_SIZE_EXT
 3357:2F7C           MSG_SIZE_LOW
 3357:2FEF           MSG_SIZE_MAP
 3357:2FBF           MSG_SIZE_OVR
 3357:2F30           MSG_SIZE_P1
 3357:302D           MSG_SIZE_P2
 3357:305C           MSG_SIZE_P3
 3357:309C           MSG_SIZE_PRG
 3357:303D           MSG_SIZE_PRV
 3357:30BC           MSG_SIZE_REQ
 3357:30DF           MSG_SIZE_TOT
 3357:36B0           MSG_STACKRCHG
 0000:BFCC           MSG_STAT
 0000:0303      Abs  MSG_STATLEN
 0FEF:08F0           MSG_SUP
 3357:244D           MSG_SWERR
 0FEF:0D30           MSG_TAIL
 0FEF:0B66           MSG_TITL2
 0FEF:0BFF           MSG_TITL3
 0FEF:0CDB           MSG_TITL4
 0FEF:0B14           MSG_TITLE
 3357:2417           MSG_UNK
 3357:24C8           MSG_UNKPRO
 3357:2A2A           MSG_UNKSYS
 3357:246E           MSG_VAL
 3357:35D4           MSG_VDSERR
 3357:33C4           MSG_VGASWAP_TWICE
 0000:0494           MSG_VXDGONE
 0FEF:0946           MSG_WOUT
 3357:2D37           MSG_WSFULL
 3357:23D4           MSG_WTKOFF
 3357:36F3           MSG_XBDARCHG
 2619:C268           MSG_XINST
 0FEF:0995           MSG_XTA20
 0000:A4F8           MSW_PM
 0000:9D42           MULPGMAP_FNS
 0000:18A6           MULPGMAP_PPN
 0000:1917           MULPGMAP_SEG
 0000:004B      Abs  NBCFINTS
 0000:BEE4           NBOARDS
 0000:009F      Abs  NCMDARGS
 2619:C0AC           NDMA
 2619:B838           NETB_CCB
 2619:AFB8           NEWARGSTK_VEC
 2619:C3FC           NEWBUSSTK_VEC
 0000:C486           NEWIMR1
 0000:C488           NEWIMR2
 0000:C494           NEWVCPSTK_FVEC
 0000:F58C           NEWXMS_VEC
 0000:72B0           NEW_ACCKEY
 0000:C628           NEW_DUM67_VEC
 0000:138A           NEXT_DMACHAN
 0000:C598           NEXT_DPMI_DS
 0000:C59A           NEXT_DPMI_ES
 0000:C59C           NEXT_DPMI_FS
 0000:C59E           NEXT_DPMI_GS
 0000:001E      Abs  NFLEXROMINTS
 0000:0008      Abs  NFLEX_DEFAULTS
 0000:A4FD           NMIDIS
 0000:A4FC           NMIENA
 0000:A4FE           NMIMASK
 0000:A4FA           NMIPORT
 0000:0080      Abs  NOLDINTS
 1F58:63A8           NOSCAN_MAP
 0000:C64E           NOSWAP_CNT
 0000:BCDC           NPHYS16F
 0000:BCDE           NPHYS16S
 0000:BCE0           NPHYSCNV
 0000:BCE2           NPHYSINC
 0000:BCE4           NPHYSSCR
 0000:EDF7           NRCACHE_INVD
 0000:F584           NRD_FLAG
 111A:CDE9           NREGIONS
 0000:BF90           NSTACKS
 0000:0002      Abs  NSYSARGS
 2619:AFBE           NUMBERS_LO
 2619:6F75           NVRAMFN
 2619:7460           NVRAM_CMPWRITE
 2619:751D           NVRAM_CRC
 2619:CA54           NVRAM_CRCTAB
 2619:CA24           NVRAM_LID
 2619:CA26           NVRAM_RB_LEN
 0000:77AC           OFF2LIN
 0000:A43C           OFFCR3
 36FA:0000           OFFPDT
 0000:C694           OFFPNP_PMCS
 0000:C698           OFFPNP_PMOFF
 0000:C690           OFFPNP_RMVEC
 0000:01CC           OFFSIZE
 2619:AFB4           OLDARGSTK_VEC
 2619:C3F8           OLDBUSSTK_VEC
 2619:B830           OLDCPQSTK_VEC
 0000:A73C           OLDCR2
 0000:01B0           OLDDOS
 0000:C53C           OLDDTA_VEC
 0000:C650           OLDHDM
 2619:C0B6           OLDIMR
 2619:C0B7           OLDIMR2
 2619:C07C           OLDINT0A_VEC
 2619:C080           OLDINT0B_VEC
 2619:C084           OLDINT0C_VEC
 2619:C088           OLDINT0D_VEC
 2619:C08C           OLDINT0E_VEC
 2619:C090           OLDINT0F_VEC
 0000:05F3           OLDINT11_VEC
 0000:06A7           OLDINT13A_VEC
 0000:06C0           OLDINT13B_VEC
 0000:090A           OLDINT15_VEC
 0000:0BAC           OLDINT19_VEC
 2619:C0C4           OLDINT1C_VEC
 0000:09D4           OLDINT20_VEC
 0000:01DA           OLDINT21_VEC
 2619:CBE8           OLDINT24_VEC
 0000:0A60           OLDINT27_VEC
 0000:072A           OLDINT2F_VEC
 0000:085F           OLDINT40_VEC
 0000:0B44           OLDINT67_VEC
 2619:C094           OLDINT72_VEC
 2619:C098           OLDINT73_VEC
 2619:C09C           OLDINT74_VEC
 2619:C0A0           OLDINT75_VEC
 2619:C0A4           OLDINT76_VEC
 2619:C0A8           OLDINT77_VEC
 2619:B638           OLDINTHW_VEC
 0000:B79C           OLDINT_VECS
 1F58:6302           OLDREGINT0D_ARB
 1F58:62FC           OLDREGINT0D_FVEC
 0000:F590           OLDSTK_VEC
 0000:FE24           OLDTMPINT15_VEC
 0000:0AEF           OLDVCPI
 0000:78C5           OLDVCPI00
 0000:78D6           OLDVCPI03
 0000:C4B4           OLDVCPI_FNS
 0000:C48E           OLDVCPSTK_FVEC
 0000:F588           OLDXMS_VEC
 0000:C624           OLD_DUM67_VEC
 2619:CA48           OLD_MAPSEG
 0000:C5B0           OLD_PCURTSS
 0000:A984           OLD_SRC
 0000:ED49           OLI_RESET
 0000:01D4           ONFSIZE
 0000:A762           OPCOD1
 0000:A862           OPCOD2
 0000:3EFB           OPENHIGH
 25FA:017A           ORIGAX
 0000:0060           ORIG_PNP_RMVEC
 0000:BE41           OSE_FNS
 2619:CB0A           OTHTEXT
 0000:28DF           OUTCMOS
 0000:B6E4           OVRBASE
 0000:019E           OVRSIZE
 2619:CA92           OVRTEXT
 0000:C651           OVR_FLAG
 0000:0C60           OVR_HPDA
 0000:01B6           P1ST_MAC
 0000:A42C           PADIR2
 111A:CE60           PAGEDIRLA
 0000:C65A           PAGEFAULTACTIVE
 111A:CD89           PAGEIOACTIVE
 0000:2998           PAGE_ON
 111A:9D54           PAGE_SWITCH
 0000:C2D8           PAMAX
 0000:A438           PAOPTE1
 0000:A420           PAPRGBASE
 0000:A424           PAPRGBASE2
 0000:2861           PATCH_PNP
 2619:0E37           PATCH_WBINVD
 2619:AE95           PATHSTEM_LEN
 0000:0F2B           PAUSE
 0000:A9E6           PBAPPBASE
 0000:BF4C           PBASEPAGE
 111A:CD18           PBSCACHE
 0000:B790           PCFGFILE
 0000:BAD0           PCHECKER_INP
 0000:BAD4           PCHECKER_OUT
 0000:B6C4           PCURTSS
 0000:A440           PDBSIZE
 0000:AAA2           PDC_FLAG
 0000:AB14           PDDSBUF
 0000:C5A4           PDPMILDT
 0000:AC20           PDSTKCOM
 0000:A430           PDTDIR2
 0000:BF2C           PDTLEN
 0000:BF30           PDTVALID
 0000:B67E           PGDT_LHI
 0000:F4B4           PGDT_PHI
 0000:B672           PGDT_VCP
 0000:9D4A           PGMAPCALL_FNS
 0000:9D46           PGMAPJMP_FNS
 0000:0A89           PGMAPRET
 0000:46EB           PGMAP_ALL
 0000:472A           PGMAP_COM
 0000:F5CC           PGRSEG
 0000:C47C           PHAR_PDE
 0000:BF60           PHFRMSAV
 0000:BF3C           PHNDLCNT
 0000:BF40           PHNDLNAME
 0000:BF54           PHNDLPAGE
 1F58:3F2A           PHYS2LIN
 111A:CDD9           PHYSICALFREELISTHEAD
 111A:CDE5           PHYSICALINUSE
 111A:CDD1           PHYSICALLOCKED
 111A:CDE1           PHYSICALMANAGED
 111A:CDD5           PHYSICALMINUNLOCKED
 111A:CDEA           PHYSICALSWAPPABLE
 111A:CDDD           PHYSICALTOTAL
 0000:B794           PHYSIZE
 0000:F4B0           PICBASE
 2619:CC0E           PICDATA
 3357:3A20           PIDENT
 0000:B684           PIDT_LHI
 0000:F4C0           PIDT_LLO
 0000:F4BA           PIDT_PHI
 0000:B678           PIDT_VCP
 0000:B6CC           PIOBIT
 0000:C4C8           PIOTRAP
 0000:4949           PL3DSSI
 0000:4966           PL3ESDI
 0000:6CBE           PL3STK_DS
 2619:C850           PLAST_MAC
 0000:BF44           PLINKBASE
 0000:0084           PLOWSTKZ
 0000:0200      Abs  PMFDEF00
 0000:0202      Abs  PMFDEF01
 0000:0204      Abs  PMFDEF02
 0000:0206      Abs  PMFDEF03
 0000:0208      Abs  PMFDEF04
 0000:020A      Abs  PMFDEF05
 0000:020C      Abs  PMFDEF06
 0000:020E      Abs  PMFDEF07
 0000:0210      Abs  PMFDEF08
 0000:0212      Abs  PMFDEF09
 0000:0214      Abs  PMFDEF0A
 0000:0216      Abs  PMFDEF0B
 0000:0218      Abs  PMFDEF0C
 0000:021A      Abs  PMFDEF0D
 0000:021C      Abs  PMFDEF0E
 0000:021E      Abs  PMFDEF0F
 0000:0220      Abs  PMFDEF10
 0000:0222      Abs  PMFDEF11
 0000:0224      Abs  PMFDEF12
 0000:0226      Abs  PMFDEF13
 0000:0228      Abs  PMFDEF14
 0000:022A      Abs  PMFDEF15
 0000:022C      Abs  PMFDEF16
 0000:022E      Abs  PMFDEF17
 0000:0230      Abs  PMFDEF18
 0000:0232      Abs  PMFDEF19
 0000:0234      Abs  PMFDEF1A
 0000:0236      Abs  PMFDEF1B
 0000:0238      Abs  PMFDEF1C
 0000:023A      Abs  PMFDEF1D
 0000:023C      Abs  PMFDEF1E
 0000:023E      Abs  PMFDEF1F
 0000:0287      Abs  PMFLPM
 0000:0289      Abs  PMFLPM2
 111A:4255           PMFLTCOM
 111A:448C           PMFLTCOM_LPMFULL
 111A:D928           PMFLT_DVECS
 111A:D868           PMFLT_FVECS
 111A:333C           PMFLT_JMP
 111A:33DC           PMIDEF
 0000:0000      Abs  PMIDEF00
 0000:0002      Abs  PMIDEF01
 0000:0004      Abs  PMIDEF02
 0000:0006      Abs  PMIDEF03
 0000:0008      Abs  PMIDEF04
 0000:000A      Abs  PMIDEF05
 0000:000C      Abs  PMIDEF06
 0000:000E      Abs  PMIDEF07
 0000:0010      Abs  PMIDEF08
 0000:0012      Abs  PMIDEF09
 0000:0014      Abs  PMIDEF0A
 0000:0016      Abs  PMIDEF0B
 0000:0018      Abs  PMIDEF0C
 0000:001A      Abs  PMIDEF0D
 0000:001C      Abs  PMIDEF0E
 0000:001E      Abs  PMIDEF0F
 0000:0020      Abs  PMIDEF10
 0000:0022      Abs  PMIDEF11
 0000:0024      Abs  PMIDEF12
 0000:0026      Abs  PMIDEF13
 0000:0028      Abs  PMIDEF14
 0000:002A      Abs  PMIDEF15
 0000:002C      Abs  PMIDEF16
 0000:002E      Abs  PMIDEF17
 0000:0030      Abs  PMIDEF18
 0000:0032      Abs  PMIDEF19
 0000:0034      Abs  PMIDEF1A
 0000:0036      Abs  PMIDEF1B
 0000:0038      Abs  PMIDEF1C
 0000:003A      Abs  PMIDEF1D
 0000:003C      Abs  PMIDEF1E
 0000:003E      Abs  PMIDEF1F
 0000:0040      Abs  PMIDEF20
 0000:0042      Abs  PMIDEF21
 0000:0044      Abs  PMIDEF22
 0000:0046      Abs  PMIDEF23
 0000:0048      Abs  PMIDEF24
 0000:004A      Abs  PMIDEF25
 0000:004C      Abs  PMIDEF26
 0000:004E      Abs  PMIDEF27
 0000:0050      Abs  PMIDEF28
 0000:0052      Abs  PMIDEF29
 0000:0054      Abs  PMIDEF2A
 0000:0056      Abs  PMIDEF2B
 0000:0058      Abs  PMIDEF2C
 0000:005A      Abs  PMIDEF2D
 0000:005C      Abs  PMIDEF2E
 0000:005E      Abs  PMIDEF2F
 0000:0060      Abs  PMIDEF30
 0000:0062      Abs  PMIDEF31
 0000:0064      Abs  PMIDEF32
 0000:0066      Abs  PMIDEF33
 0000:0068      Abs  PMIDEF34
 0000:006A      Abs  PMIDEF35
 0000:006C      Abs  PMIDEF36
 0000:006E      Abs  PMIDEF37
 0000:0070      Abs  PMIDEF38
 0000:0072      Abs  PMIDEF39
 0000:0074      Abs  PMIDEF3A
 0000:0076      Abs  PMIDEF3B
 0000:0078      Abs  PMIDEF3C
 0000:007A      Abs  PMIDEF3D
 0000:007C      Abs  PMIDEF3E
 0000:007E      Abs  PMIDEF3F
 0000:0080      Abs  PMIDEF40
 0000:0082      Abs  PMIDEF41
 0000:0084      Abs  PMIDEF42
 0000:0086      Abs  PMIDEF43
 0000:0088      Abs  PMIDEF44
 0000:008A      Abs  PMIDEF45
 0000:008C      Abs  PMIDEF46
 0000:008E      Abs  PMIDEF47
 0000:0090      Abs  PMIDEF48
 0000:0092      Abs  PMIDEF49
 0000:0094      Abs  PMIDEF4A
 0000:0096      Abs  PMIDEF4B
 0000:0098      Abs  PMIDEF4C
 0000:009A      Abs  PMIDEF4D
 0000:009C      Abs  PMIDEF4E
 0000:009E      Abs  PMIDEF4F
 0000:00A0      Abs  PMIDEF50
 0000:00A2      Abs  PMIDEF51
 0000:00A4      Abs  PMIDEF52
 0000:00A6      Abs  PMIDEF53
 0000:00A8      Abs  PMIDEF54
 0000:00AA      Abs  PMIDEF55
 0000:00AC      Abs  PMIDEF56
 0000:00AE      Abs  PMIDEF57
 0000:00B0      Abs  PMIDEF58
 0000:00B2      Abs  PMIDEF59
 0000:00B4      Abs  PMIDEF5A
 0000:00B6      Abs  PMIDEF5B
 0000:00B8      Abs  PMIDEF5C
 0000:00BA      Abs  PMIDEF5D
 0000:00BC      Abs  PMIDEF5E
 0000:00BE      Abs  PMIDEF5F
 0000:00C0      Abs  PMIDEF60
 0000:00C2      Abs  PMIDEF61
 0000:00C4      Abs  PMIDEF62
 0000:00C6      Abs  PMIDEF63
 0000:00C8      Abs  PMIDEF64
 0000:00CA      Abs  PMIDEF65
 0000:00CC      Abs  PMIDEF66
 0000:00CE      Abs  PMIDEF67
 0000:00D0      Abs  PMIDEF68
 0000:00D2      Abs  PMIDEF69
 0000:00D4      Abs  PMIDEF6A
 0000:00D6      Abs  PMIDEF6B
 0000:00D8      Abs  PMIDEF6C
 0000:00DA      Abs  PMIDEF6D
 0000:00DC      Abs  PMIDEF6E
 0000:00DE      Abs  PMIDEF6F
 0000:00E0      Abs  PMIDEF70
 0000:00E2      Abs  PMIDEF71
 0000:00E4      Abs  PMIDEF72
 0000:00E6      Abs  PMIDEF73
 0000:00E8      Abs  PMIDEF74
 0000:00EA      Abs  PMIDEF75
 0000:00EC      Abs  PMIDEF76
 0000:00EE      Abs  PMIDEF77
 0000:00F0      Abs  PMIDEF78
 0000:00F2      Abs  PMIDEF79
 0000:00F4      Abs  PMIDEF7A
 0000:00F6      Abs  PMIDEF7B
 0000:00F8      Abs  PMIDEF7C
 0000:00FA      Abs  PMIDEF7D
 0000:00FC      Abs  PMIDEF7E
 0000:00FE      Abs  PMIDEF7F
 0000:0100      Abs  PMIDEF80
 0000:0102      Abs  PMIDEF81
 0000:0104      Abs  PMIDEF82
 0000:0106      Abs  PMIDEF83
 0000:0108      Abs  PMIDEF84
 0000:010A      Abs  PMIDEF85
 0000:010C      Abs  PMIDEF86
 0000:010E      Abs  PMIDEF87
 0000:0110      Abs  PMIDEF88
 0000:0112      Abs  PMIDEF89
 0000:0114      Abs  PMIDEF8A
 0000:0116      Abs  PMIDEF8B
 0000:0118      Abs  PMIDEF8C
 0000:011A      Abs  PMIDEF8D
 0000:011C      Abs  PMIDEF8E
 0000:011E      Abs  PMIDEF8F
 0000:0120      Abs  PMIDEF90
 0000:0122      Abs  PMIDEF91
 0000:0124      Abs  PMIDEF92
 0000:0126      Abs  PMIDEF93
 0000:0128      Abs  PMIDEF94
 0000:012A      Abs  PMIDEF95
 0000:012C      Abs  PMIDEF96
 0000:012E      Abs  PMIDEF97
 0000:0130      Abs  PMIDEF98
 0000:0132      Abs  PMIDEF99
 0000:0134      Abs  PMIDEF9A
 0000:0136      Abs  PMIDEF9B
 0000:0138      Abs  PMIDEF9C
 0000:013A      Abs  PMIDEF9D
 0000:013C      Abs  PMIDEF9E
 0000:013E      Abs  PMIDEF9F
 0000:0140      Abs  PMIDEFA0
 0000:0142      Abs  PMIDEFA1
 0000:0144      Abs  PMIDEFA2
 0000:0146      Abs  PMIDEFA3
 0000:0148      Abs  PMIDEFA4
 0000:014A      Abs  PMIDEFA5
 0000:014C      Abs  PMIDEFA6
 0000:014E      Abs  PMIDEFA7
 0000:0150      Abs  PMIDEFA8
 0000:0152      Abs  PMIDEFA9
 0000:0154      Abs  PMIDEFAA
 0000:0156      Abs  PMIDEFAB
 0000:0158      Abs  PMIDEFAC
 0000:015A      Abs  PMIDEFAD
 0000:015C      Abs  PMIDEFAE
 0000:015E      Abs  PMIDEFAF
 0000:0160      Abs  PMIDEFB0
 0000:0162      Abs  PMIDEFB1
 0000:0164      Abs  PMIDEFB2
 0000:0166      Abs  PMIDEFB3
 0000:0168      Abs  PMIDEFB4
 0000:016A      Abs  PMIDEFB5
 0000:016C      Abs  PMIDEFB6
 0000:016E      Abs  PMIDEFB7
 0000:0170      Abs  PMIDEFB8
 0000:0172      Abs  PMIDEFB9
 0000:0174      Abs  PMIDEFBA
 0000:0176      Abs  PMIDEFBB
 0000:0178      Abs  PMIDEFBC
 0000:017A      Abs  PMIDEFBD
 0000:017C      Abs  PMIDEFBE
 0000:017E      Abs  PMIDEFBF
 0000:0180      Abs  PMIDEFC0
 0000:0182      Abs  PMIDEFC1
 0000:0184      Abs  PMIDEFC2
 0000:0186      Abs  PMIDEFC3
 0000:0188      Abs  PMIDEFC4
 0000:018A      Abs  PMIDEFC5
 0000:018C      Abs  PMIDEFC6
 0000:018E      Abs  PMIDEFC7
 0000:0190      Abs  PMIDEFC8
 0000:0192      Abs  PMIDEFC9
 0000:0194      Abs  PMIDEFCA
 0000:0196      Abs  PMIDEFCB
 0000:0198      Abs  PMIDEFCC
 0000:019A      Abs  PMIDEFCD
 0000:019C      Abs  PMIDEFCE
 0000:019E      Abs  PMIDEFCF
 0000:01A0      Abs  PMIDEFD0
 0000:01A2      Abs  PMIDEFD1
 0000:01A4      Abs  PMIDEFD2
 0000:01A6      Abs  PMIDEFD3
 0000:01A8      Abs  PMIDEFD4
 0000:01AA      Abs  PMIDEFD5
 0000:01AC      Abs  PMIDEFD6
 0000:01AE      Abs  PMIDEFD7
 0000:01B0      Abs  PMIDEFD8
 0000:01B2      Abs  PMIDEFD9
 0000:01B4      Abs  PMIDEFDA
 0000:01B6      Abs  PMIDEFDB
 0000:01B8      Abs  PMIDEFDC
 0000:01BA      Abs  PMIDEFDD
 0000:01BC      Abs  PMIDEFDE
 0000:01BE      Abs  PMIDEFDF
 0000:01C0      Abs  PMIDEFE0
 0000:01C2      Abs  PMIDEFE1
 0000:01C4      Abs  PMIDEFE2
 0000:01C6      Abs  PMIDEFE3
 0000:01C8      Abs  PMIDEFE4
 0000:01CA      Abs  PMIDEFE5
 0000:01CC      Abs  PMIDEFE6
 0000:01CE      Abs  PMIDEFE7
 0000:01D0      Abs  PMIDEFE8
 0000:01D2      Abs  PMIDEFE9
 0000:01D4      Abs  PMIDEFEA
 0000:01D6      Abs  PMIDEFEB
 0000:01D8      Abs  PMIDEFEC
 0000:01DA      Abs  PMIDEFED
 0000:01DC      Abs  PMIDEFEE
 0000:01DE      Abs  PMIDEFEF
 0000:01E0      Abs  PMIDEFF0
 0000:01E2      Abs  PMIDEFF1
 0000:01E4      Abs  PMIDEFF2
 0000:01E6      Abs  PMIDEFF3
 0000:01E8      Abs  PMIDEFF4
 0000:01EA      Abs  PMIDEFF5
 0000:01EC      Abs  PMIDEFF6
 0000:01EE      Abs  PMIDEFF7
 0000:01F0      Abs  PMIDEFF8
 0000:01F2      Abs  PMIDEFF9
 0000:01F4      Abs  PMIDEFFA
 0000:01F6      Abs  PMIDEFFB
 0000:01F8      Abs  PMIDEFFC
 0000:01FA      Abs  PMIDEFFD
 0000:01FC      Abs  PMIDEFFE
 0000:01FE      Abs  PMIDEFFF
 0000:02D3      Abs  PMIDEF_LEN
 0000:0280      Abs  PMIDEF_SSR16
 0000:0281      Abs  PMIDEF_SSR32
 0000:0285      Abs  PMILPM
 111A:460A           PMINTCOM
 111A:4836           PMINTCOM_APPLFULL
 111A:483E           PMINTCOM_LPMFULL
 111A:D468           PMINT_DVECS
 111A:CE68           PMINT_FVECS
 111A:2E3C           PMINT_JMP
 0000:0283      Abs  PMIRMS
 0000:028D      Abs  PMMEI
 0000:7D61           PMOLDVCPI
 0000:02D1      Abs  PMRSP
 0000:BD34           PMRS_PDT
 0000:7D36           PMVCPI
 0000:7D87           PMVCPI03
 0000:7DAF           PMVCPI04
 0000:7DDB           PMVCPI05
 0000:7E0C           PMVCPI0C
 0000:8020           PMVCPI0C_NEXT
 0000:028B      Abs  PMVMCB
 0000:02CF      Abs  PMVPF
 0000:029E      Abs  PMVSAPI16_386MAX
 0000:028F      Abs  PMVSAPI16_MSDOS
 0000:02BE      Abs  PMVSAPI32_386MAX
 0000:02AD      Abs  PMVSAPI32_MSDOS
 2619:B834           PNETB_CCB
 0000:C6B2           PNP_DATA
 0000:9A70           PNP_FR_VCPI
 0000:C6B0           PNP_SEG
 0000:9A10           PNP_TO_VCPI
 0000:C6A8           PNP_VCPI_DIFF
 0000:C6AC           PNP_VEC
 0000:01AA           PORT15
 0000:01AC           PORT67
 0000:BEE6           PORTPMR
 0000:BEE8           PORTPMRZ
 2619:CBEC           POSBASE
 0000:BEEC           POSDATA
 2619:C0F5           POSFILE_SLOTCHG
 2619:705F           POSINIT
 2619:7368           POSREAD
 2619:74AD           POSREADALL
 2619:73E4           POSWRITE
 2619:CA28           POS_BLK
 0000:A9E4           POVR_LIE
 0000:01C2           POVR_MAC
 2619:C2DA           POVR_MAC2
 0000:C64C           POVR_MAC_SQZ
 0000:BF48           PPAGELINK
 0000:B73C           PPDT1MB
 0000:B740           PPDT1P1MB
 0000:B744           PPDT1W1MB
 0000:B738           PPDTBACK
 0000:B764           PPDTBBMDST
 0000:B760           PPDTBBMSRC
 0000:B730           PPDTCNV
 0000:B734           PPDTCNVZ
 0000:B770           PPDTCVD
 0000:B77E           PPDTD2M
 0000:B776           PPDTDMA
 0000:B782           PPDTDMAP
 0000:B77A           PPDTDMAZ
 0000:B710           PPDTEMM
 0000:B714           PPDTEMMZ
 0000:B708           PPDTFRM
 0000:B70C           PPDTFRMZ
 0000:B72C           PPDTLML
 0000:B71C           PPDTLOW
 0000:B728           PPDTMAP
 0000:B758           PPDTMISS
 0000:B720           PPDTOVR
 0000:B75C           PPDTPDIR
 0000:B768           PPDTPNPBIOS
 0000:B724           PPDTPRG
 0000:B76C           PPDTPSM
 0000:B718           PPDTRSV
 0000:B748           PPDTSCR
 0000:A44C           PPDTSHD
 0000:B750           PPDTUNW
 0000:B754           PPDTUNWZ
 0000:B74C           PPDTVID
 0000:AB1C           PPHNDLFREE
 0000:AB20           PPHNDLVMS
 0000:BF58           PPHYS2SEG
 0000:030A           PPI_K2S
 0000:02FE           PPI_S2C
 0000:0312           PPI_S2C_K2S
 0000:031B           PPI_S2C_S2K
 0000:0EB2           PPI_S2K
 0000:0EC3           PPI_S2K_K2S
 0000:BF84           PPL0STK_DERR
 0000:BF88           PPL0STK_DNRM
 0000:BF70           PPL0STK_ERR
 0000:BF6C           PPL0STK_INI
 0000:BF80           PPL0STK_MAP
 0000:BF7C           PPL0STK_MAX
 0000:BF78           PPL0STK_MIN
 0000:BF74           PPL0STK_NRM
 0000:C360           PPMTAB
 0000:0040      Abs  PPMTAB_LEN
 111A:9BB1           PPM_AGE_PAGES
 111A:97BF           PPM_ALLOC
 111A:98D8           PPM_DRAIN_POOL
 111A:9A11           PPM_FILL_POOL
 111A:9847           PPM_FREE
 111A:9C81           PPM_GET_LOWADDR
 111A:9640           PPM_GET_PAGE_RECORD
 111A:96A7           PPM_INIT
 111A:9B01           PPM_LOCK
 111A:98A6           PPM_QUERY
 111A:98C3           PPM_QUERY_SWAPPABLE
 111A:967F           PPM_SETPHYSMU
 111A:9B8D           PPM_SET_PAGE_ADDRESS
 111A:9B70           PPM_SET_PAGE_OWNER
 111A:9C96           PPM_SHUTDOWN
 111A:9B3F           PPM_UNLOCK
 0000:74C9           PPN2BRDRPN
 111A:CDF2           PPRBASEADDRESS
 0000:B6C8           PPRMTSS
 0000:0460           PRESINT_XMS
 2619:C2B1           PREV_LMAC_NPAR
 0000:A41C           PRGBASE
 0000:BF38           PRGPDT
 0000:F5A0           PRGREG
 0000:01A4           PRGSIZE
 0000:BF34           PRGTAIL
 2619:B666           PRMACT
 2619:0590           PROCESS_FLEXFILE
 2619:127D           PROC_BCF
 2619:B00A           PROC_BCFTAB
 2619:015B           PROC_PROFILE
 0000:F4E4           PROF_CNT
 0000:F4E6           PROF_SEG
 2619:3EF9           PROT_INIT
 0000:AB6E           PRPNCUR
 0000:AB6A           PRPNTAB
 0000:BFA8           PRVSIZE
 0000:BF5C           PSEG2PHYS
 0000:C67C           PSHMEMHANDLES
 0000:BF96           PSMSEG
 0000:BF92           PSMSIZE
 2619:CBC2           PSMTEXT
 0000:BF94           PSMWIN
 0000:002C           PSP_ENVIR_PTR
 0000:002E           PSP_LCL_STACK
 0000:0080           PSP_PARM_COUNT
 0000:0081           PSP_PARM_STRING
 0000:000A           PSP_TERMINATE
 0000:BEE0           PTE_FLAG
 0000:9AF8           PTE_VROM_BEG
 0000:9AFA           PTE_VROM_END
 0000:9AFC           PTE_VROM_SRC
 0000:0328           PULSE8042
 0000:C620           PUMB_INST
 0000:1A31           PURGE_RPNCUR
 0000:F5E4           PUTSIZE
 0000:BFB0           PVDSTAB
 1F58:25B9           PVDS_TRANS
 0000:B6C0           PVMTSS
 0000:C618           PWIN3_CB
 0000:BF24           PWIN3_PAGE
 0000:BF28           PWIN3_PAGEZ
 0000:C61C           PWIN3_STARTUP
 0000:C4D8           PXMSBASE
 0000:C670           PXMSBMAP
 0000:C4E0           PXMSHNDL
 0000:C4E4           PXMSLOCK
 0000:C4DC           PXMSSIZE
 0000:F5CE           PZLOCODE
 2619:CE1C           QEXTXXX0
 0000:C478           QMAX_PDE
 0000:018E           QMAX_VER
 0000:9719           QRY_PGCNT
 2619:6D99           RAMSCAN
 2619:CA46           RAM_EXTSEG
 0000:9D38           RAWALLOC_FNS
 2619:209C           READFILE
 2619:8F6F           READ_ABSENT
 2619:02C7           READ_CFG
 2619:045B           READ_CFG_CLEAR
 2619:0474           READ_CFG_LINK
 0000:394F           READ_CHIPSET
 2619:993B           READ_CMOS
 0000:F4E0           READ_CNT
 2619:0559           READ_FLEXFILE
 2619:1D42           READ_HD
 0000:0339           READ_IRR
 0000:F4E2           READ_SEG
 1F58:6303           REGINT0D_ARB
 1F58:6304           REGINT0D_FVEC
 111A:CDF7           REGIONTABLE
 1F58:2C3C           RELEASE_MAC
 0000:E10D           RELOC_DTE
 0000:E145           RELOC_GDT
 0000:8EE7           REMOVE_E2X
 0000:AB78           REMPGCNT
 0000:F5E0           REMSIZE
 0000:46AC           REPL_PTE
 0000:BADC           REP_FAC
 0000:6DC4           RESET_KEYB
 0000:0BE7           RESINT06
 0000:05F0           RESINT11
 0000:069C           RESINT13A
 0000:06B5           RESINT13B
 0000:08BE           RESINT15
 0000:0929           RESINT15_INT
 0000:0970           RESINT15_OLD
 0000:0B62           RESINT19
 0000:09C4           RESINT20
 0000:09D8           RESINT21
 0000:0A4F           RESINT27
 0000:06C6           RESINT2F
 0000:072E           RESINT2F_GPME
 0000:0742           RESINT2F_WIN3_BEGINIT
 0000:076E           RESINT2F_WIN3_BEGINIT_TAIL
 0000:0846           RESINT40
 0000:0AF2           RESINT67
 0000:0B3F           RESINT67_INT
 0000:0B49           RESINT67_IRET
 0000:0AEF           RESINTFE_INT
 0000:0A95           RESINTFF_INT
 0000:0429           RESINT_PNP
 0000:07D9           RESINT_XMS
 0000:0801           RESINT_XMS_INT
 2619:87D7           REST24
 2619:1B04           RESTINT01
 0000:EE68           REST_CACHEPM
 2619:A082           REST_CACHERM
 2619:1E61           REST_IMR
 2619:1DA5           REST_INTS
 0000:6F48           REST_PROT
 0000:38DF           REST_PTE
 1F58:0FA0           REST_TMPINT0D
 2619:9FAA           REST_TMPINT15
 111A:21F0           REST_VMCREGS
 0000:0470           RH_VEC
 2619:C295           RH_VECX
 1F58:6334           RINFO
 2619:9C03           ROM2OVR
 2619:B652           ROMADDR
 2619:B654           ROMIDN
 2619:87ED           ROMINT10
 2619:8809           ROMINT11
 2619:8825           ROMINT13
 2619:883D           ROMINT6D
 2619:165E           ROMREF
 2619:1702           ROMREF_MOF
 2619:1711           ROMREF_MOFSUB
 2619:16BB           ROMREF_MRM
 2619:16CA           ROMREF_MRMSUB
 2619:67A9           ROMSCAN
 2619:CAEC           ROMTEXT
 2619:7AE5           ROOM_AMRS
 2619:79FA           ROOM_DMASWAP
 2619:A5B3           ROOM_DPMI
 2619:A646           ROOM_DPMI2
 2619:7B43           ROOM_FGROUP
 2619:7635           ROOM_HFRM
 2619:77A7           ROOM_HNDL
 2619:788F           ROOM_INST
 2619:777A           ROOM_IOCHK
 2619:7B95           ROOM_IOTRAP
 2619:7B60           ROOM_JGROUP
 2619:7A27           ROOM_OPTE
 2619:78BE           ROOM_PDT
 2619:75B9           ROOM_PHYS
 2619:771A           ROOM_PHYS2
 2619:7B19           ROOM_PSM
 2619:7650           ROOM_RPNTAB
 2619:76DC           ROOM_SIRBDEF
 2619:7680           ROOM_STACK
 2619:784A           ROOM_TSS
 2619:76F0           ROOM_VDS
 2619:77D9           ROOM_XMSTAB
 2619:5641           ROUND_END
 2619:485C           ROUND_SCRDN
 0000:CD00           ROUND_SCRDN_PM
 0000:0046      Abs  ROWLEN
 0000:BCDA           RPNCURSIZ
 0000:4839           RPNMAP_COM
 0000:49DD           RPN_DIFF
 0000:49A8           RPN_READ
 0000:4983           RPN_STORE
 1F58:6A14           RSPHEAD
 1F58:63B4           RSPS
 1F58:6A16           RSPTAIL
 1F58:59F5           RSP_ALLOC
 1F58:62CE           RSP_FREE_SEGMENT
 0000:B6DC           RSVBASE
 2619:1AA8           SAVEINT01
 0000:020E           SAVE_AH
 0000:EE46           SAVE_CACHEPM
 2619:A025           SAVE_CACHERM
 0000:AC24           SAVE_EAX
 0000:C574           SAVE_EBP
 0000:C578           SAVE_EBX
 0000:AC28           SAVE_EFL
 0000:C57C           SAVE_ES
 0000:F4AC           SAVE_ESP
 2619:6606           SAVE_PHYS
 2619:88ED           SAVE_SCRUB
 2619:8866           SAVE_SHADOW
 2619:8752           SAVE_TEXT
 111A:21BD           SAVE_VMCREGS
 0000:048E           SBIOSDATA
 1114:0060           SCODE_END
 1114:0000           SCODE_INI
 0000:C320           SCRBCNT
 0000:C322           SCRBIND
 0000:C324           SCRBTAB
 0000:F32E           SCRUB_SHADOW
 1F58:26F2           SEGSEL_BASE
 0000:C4EC           SEL_4GB
 0000:C4EE           SEL_4GB3
 0000:C4E8           SEL_DATA
 0000:C4EA           SEL_DS3
 0000:C4F4           SEL_DSFG3
 0000:C4F2           SEL_DSHI
 0000:C4F6           SEL_DSIG3
 0000:C4F8           SEL_DSJG3
 0000:B78A           SEL_GDT
 0000:C4F0           SEL_PDT
 0000:9BC0           SEL_PNPARG0
 0000:9BC2           SEL_PNPARG1
 0000:9BC4           SEL_PNPARG2
 0000:9BBE           SEL_PNPDS
 0000:0219           SEND_CHIPSET
 2619:9947           SEND_CMOS
 0000:F4A5           SEPARATOR
 0000:6EF2           SETBASE
 0000:62FB           SETBDAREBOOT
 0000:E951           SETIOBIT
 0000:E629           SETIOPERM
 111A:7C33           SETLBASE
 2619:53CC           SETMEM
 0000:62EF           SETREBOOT
 2619:3DF1           SETUP_EPM
 0000:70FF           SET_AMRS
 1F58:02B5           SET_BITMAP
 2619:3D6F           SET_CG
 0000:EB08           SET_COMMON
 0000:1236           SET_DMA
 2619:91A6           SET_EPS
 0000:64F4           SET_EXTMEM_CS
 0000:0838           SET_FLAGS
 0000:6444           SET_GDT
 1F58:0B95           SET_HWSP
 2619:1B94           SET_IMR
 2619:3E27           SET_LOWMEM
 2619:0C66           SET_NOSCAN
 2619:04A7           SET_PATHSTEM
 0000:D613           SET_PHYS
 0000:3AC7           SET_POVR
 0000:62B7           SET_PPL0STK
 0000:E4B3           SET_SIRBCUR
 0000:EBD2           SET_TGDT
 2619:A4B8           SET_VCPIVARS
 0000:985B           SET_XMSBMAP
 0000:92F4           SET_XMSBND
 0000:931F           SET_XMSBND_SUB
 0000:0D4E           SHADOW_DISABLE
 0000:022B           SHADOW_ENABLE
 2619:CE10           SHAD_KEYB_DLY
 0000:C2E0           SHDCNT
 0000:C2E2           SHDIND
 0000:01CE           SHDSIZE
 0000:C2E4           SHDTAB
 0000:C680           SHMEMHANDLESIZE
 0000:BB6C           SHRT_DUR
 0000:BB6E           SHRT_FRQ
 0000:28B2           SIRBCUR2B
 2619:7CC9           SIZE_ERR
 2619:CE99           SKIPSECT
 2619:0255           SKIP_EOL
 2619:026C           SKIP_EOL_COMMENT
 0000:1ED9           SKIP_LPN
 1F58:238F           SLOCK_AVL
 1F58:254F           SLOCK_INCXAVL
 1F58:23C0           SLOCK_MERGE
 1F58:239C           SLOCK_MIN
 1F58:24AE           SLOCK_SPLIT
 1F58:5816           SMEM_ADD_SERIAL
 1F58:57CC           SMEM_ADD_USER
 1F58:58F4           SMEM_FIND_NAME
 1F58:5983           SMEM_GET_STATE
 1F58:5859           SMEM_REMOVE_SERIAL
 1F58:58AC           SMEM_REMOVE_USER
 1F58:5954           SMEM_USER_COUNT
 1F58:4171           SQZOVR_WIN3
 2619:6457           SRCHMEM
 2619:89C9           SRCHSTR
 2619:1092           SRCH_BCFCHKDUBL
 2619:10BB           SRCH_BCFINT
 2619:1074           SRCH_BCFINT_GETLIN
 0000:1BAE           SRCH_HNAME
 2619:9DAE           SRCH_PPMTAB
 2619:C2A7           STACKR
 2619:B848           STATBLK
 0000:0ACD           STATE_OFF
 0000:026A           STATE_PM
 0000:005C           STKPTR
 0000:6CAF           STRIP_DX
 0000:9C5A           SUBSEG_INFO
 0000:9CD2           SUBSEG_PTR
 2619:9F7E           SWAP_CTAL
 0000:D807           SWAP_DMA
 0000:D930           SWAP_DMA_HIGH
 0000:D8F7           SWAP_DMA_LOW
 0000:D993           SWAP_DMA_SUB
 2619:C0F6           SWAP_FNEZ
 0000:4A27           SWAP_H0PAGES
 0000:D730           SWAP_LML
 0000:75F8           SWAP_MAP
 0000:DA22           SWAP_MAPBASE
 0000:765B           SWAP_MEM
 0000:76C4           SWAP_MEM_SUB
 0000:DFF6           SWAP_PRG
 0000:C2D0           SWAP_SRC
 0000:C2D4           SWAP_SRC2
 0000:BC4C           SWATCODE
 0000:EB2A           SWATINI
 0000:BC52           SWATMSG
 0000:01D2           SWPSIZE
 2619:D3A8           SYSARG_ACT
 2619:D128           SYSARG_LEN
 2619:CFE6           SYSARG_TAB
 2619:3B9A           SYSCHK_INBOARD
 2619:3BAD           SYSCHK_JET386
 2619:CA22           SYSINIT_SEG
 2619:CA00           SYSPARM
 0000:01D6           SYSROM_START
 0000:01B2           SYS_FLAG
 2619:A6B3           TARGET_CODE
 0000:F51C           TDESC_TAB
 1F58:631C           TEMP_PSP
 0000:BB78           TENS_DUR
 0000:BB7A           TENS_FRQ
 2619:1B5E           TEST_DMA
 1F58:37C6           TEST_PSMEM
 1F58:3736           TEST_RAM
 0000:F418           TIDTPROC
 0000:FE62           TIDT_DESC
 0000:0078      Abs  TIDT_DESC_LEN
 0000:7831           TIMER_READ
 0000:780F           TIMER_RESTORE
 0000:77ED           TIMER_SETUP
 0000:EE96           TIME_ALLMEM
 0000:77C0           TIME_MEM
 2619:A0DE           TIME_ROM
 0000:F418           TINTPROC0
 0000:F41E           TINTPROC1
 0000:F454           TINTPROC10
 0000:F45A           TINTPROC11
 0000:F460           TINTPROC12
 0000:F466           TINTPROC13
 0000:F46C           TINTPROC14
 0000:F424           TINTPROC2
 0000:F42A           TINTPROC3
 0000:F430           TINTPROC4
 0000:F436           TINTPROC5
 0000:F43C           TINTPROC6
 0000:F442           TINTPROC7
 0000:F448           TINTPROC8
 0000:F44E           TINTPROC9
 2619:C2AF           TMPHPDASEG
 1F58:0FCF           TMPINT0D
 0000:F2F4           TMPINT15
 0000:B6EC           TOPBASE
 0000:3F9F           TOPDOS
 0000:FE28           TOP_GDT
 0000:FE58           TOP_MIO
 2619:9FBB           TOP_WRITE
 111A:CDEE           TOTALPPRSIZE
 0000:AB76           TOTPGCNT
 0000:01E2           TOTSIZE
 2619:B65E           TRIP_BP
 2619:B65C           TRIP_BX
 2619:B642           TRIP_CS
 2619:B662           TRIP_DI
 2619:B656           TRIP_DS
 2619:B658           TRIP_ES
 2619:B660           TRIP_SI
 2619:B65A           TRIP_SS
 0000:C68C           TSRSIZE
 0000:FE0A           UCSYSROM_START
 0000:BB70           UNITS_DUR
 0000:BB72           UNITS_FRQ
 2619:CB28           UNKTEXT
 1F58:1A9C           UNLINK_LSEG
 1F58:10A9           UNPLUG_MAC
 2619:CE11           UNROM_TEXT
 2619:A44C           UNSHADOW
 0000:B774           UNWCNT
 2619:024A           UPPERCASE
 0000:15CA           UTL_VXD2MAX
 2619:4E53           VALIDATE_EISAMEM
 0000:4926           VALID_HNDL
 111A:7B4D           VALID_LSEL
 0000:8E54           VALID_XHNDL
 0000:78F4           VCPI00
 0000:7907           VCPI01
 0000:7A09           VCPI02
 0000:7A15           VCPI03
 0000:7A20           VCPI04
 0000:7A2F           VCPI05
 0000:7A39           VCPI06
 0000:7A63           VCPI07
 0000:7A6E           VCPI08
 0000:7ABC           VCPI09
 0000:7AFE           VCPI0A
 0000:7B0F           VCPI0B
 0000:7B25           VCPI0C
 0000:C474           VCPIBASE
 0000:C46C           VCPIMAX
 0000:C470           VCPITOP
 0000:7F02           VCPI_ALLOC
 0000:7EF1           VCPI_COUNT
 0000:7F45           VCPI_DEALLOC
 0000:C49A           VCPI_FNS
 0000:7FDA           VCPI_SET
 0000:8011           VCPI_SET1
 0000:7916           VCPI_V86MODE
 0000:7C26           VCP_MODESUB
 0000:BFB4           VDSTAB_LEN
 0000:F59C           VDSTAB_SEG
 1F58:235F           VDS_WRAP
 0000:0323      Abs  VER
 0000:0008      Abs  VERH
 0000:0003      Abs  VERL
 0000:0020      Abs  VERSLTR1
 0000:00CD      Abs  VERSLTR2
 0000:0038      Abs  VERS_H
 0000:0803      Abs  VERS_HTU
 0000:0030      Abs  VERS_T
 0000:0033      Abs  VERS_U
 2619:6668           VGARAM
 2619:6E81           VGASWAP
 2619:C0D0           VGASWAP_TEXT
 0000:BD26           VGA_ALTSEG1
 0000:BD28           VGA_ALTSEG2
 2619:2171           VIDCOM
 0000:B658           VIDMODE
 0000:B99C           VIDOFF
 0000:019C           VIDSIZE
 2619:CACE           VIDTEXT
 111A:CE58           VIRTUALRESERVED
 0000:0086           VIRT_DEV_DPFE
 2619:AE97           VIRT_DEV_NAME
 0000:AAA6           VM2PM_DTAVEC
 0000:AAAC           VM2PM_ERR
 0000:AAA4           VM2PM_PSP
 0000:AAAA           VM2PM_TSS
 0000:C540           VMCREGS
 111A:2164           VMCREGS2EGP
 0000:0240      Abs  VMFDEF00
 0000:0242      Abs  VMFDEF01
 0000:0244      Abs  VMFDEF02
 0000:0246      Abs  VMFDEF03
 0000:0248      Abs  VMFDEF04
 0000:024A      Abs  VMFDEF05
 0000:024C      Abs  VMFDEF06
 0000:024E      Abs  VMFDEF07
 0000:0250      Abs  VMFDEF08
 0000:0252      Abs  VMFDEF09
 0000:0254      Abs  VMFDEF0A
 0000:0256      Abs  VMFDEF0B
 0000:0258      Abs  VMFDEF0C
 0000:025A      Abs  VMFDEF0D
 0000:025C      Abs  VMFDEF0E
 0000:025E      Abs  VMFDEF0F
 0000:0260      Abs  VMFDEF10
 0000:0262      Abs  VMFDEF11
 0000:0264      Abs  VMFDEF12
 0000:0266      Abs  VMFDEF13
 0000:0268      Abs  VMFDEF14
 0000:026A      Abs  VMFDEF15
 0000:026C      Abs  VMFDEF16
 0000:026E      Abs  VMFDEF17
 0000:0270      Abs  VMFDEF18
 0000:0272      Abs  VMFDEF19
 0000:0274      Abs  VMFDEF1A
 0000:0276      Abs  VMFDEF1B
 0000:0278      Abs  VMFDEF1C
 0000:027A      Abs  VMFDEF1D
 0000:027C      Abs  VMFDEF1E
 0000:027E      Abs  VMFDEF1F
 111A:4228           VMFLTCOM
 111A:DA68           VMFLT_DVECS
 111A:D9A8           VMFLT_FVECS
 0000:8D3B           VMFN_CHKVSAPI
 111A:CE64           VMMCLIENTCOUNT
 111A:CE5C           VMMCURRENTCLIENT
 111A:CE5E           VMMCURRENTTIME
 111A:9F40           VMM_ALLOC
 111A:B1B9           VMM_DISCARD_PAGES
 0000:7B8A           VMM_DRAIN_POOL
 111A:AD8C           VMM_EXCHANGE_MAPPING
 0000:C658           VMM_FLAG
 111A:A023           VMM_FREE
 111A:A64C           VMM_GET_ATTRIBUTES
 111A:AF19           VMM_GET_CLIENT_INFO
 111A:AD55           VMM_GET_PHYSICAL_PAGE
 111A:AE77           VMM_GET_PTE_ADDRESS
 111A:9E25           VMM_INIT
 111A:9EF5           VMM_INIT_CLIENT
 111A:A2CE           VMM_LOCK
 111A:B472           VMM_MAPP2L
 111A:A90F           VMM_MAP_PHYSICAL
 111A:B13E           VMM_MARK_CANDIDATES
 111A:AA91           VMM_PAGEFAULTHANDLER
 111A:B0E3           VMM_QUERY
 111A:A10E           VMM_REALLOC
 111A:B282           VMM_RELOCATE_BLOCK
 111A:A710           VMM_SET_ATTRIBUTES
 111A:B064           VMM_SHUTDOWN
 111A:AC1B           VMM_SWAP_OUT
 111A:AF40           VMM_TERMINATE_CLIENT
 111A:A4EE           VMM_UNLOCK
 111A:B602           VMM_UNMAPP2L
 111A:AE1A           VMM_UPDATE_PAGEINFO
 111A:AEF5           VMM_ZERO_PAGE
 0000:0BC3           VM_VSAPI
 1F58:3586           VSAPIACT
 111A:CCF0           VSAPI_386MAX
 111A:CCEC           VSAPI_MSDOS
 0000:C538           VXD_LEVEL
 0000:02BB           WAITIBUF_CLR
 0000:02D1           WAITOBUF_CLR
 0000:02E8           WAITOBUF_SET
 2619:C0C8           WAIT_CNT
 0000:0A97           WARMBOOT
 0000:0BE8           WARMBOOT_SUB
 2619:D3DA           WBPAT_ENDTAB
 2619:D3B0           WBPAT_TAB
 0000:03E0           WIN3_CB
 0000:03F9           WIN3_CB_GOREAL
 0000:045F           WIN3_END
 0000:C604           WIN3_IMPORT_PRODUCT
 0000:C5F0           WIN3_IMPORT_VENDOR
 0000:A454           WIN3_REF_DATA
 0000:01FA           WIN3_STARTUP
 0000:0476           WIN3_VERSION
 0000:8DC8           WIN_LIN2LIN
 0000:696C           WORD_ADDRCNT
 0000:BE5C           WRAPTAB
 0000:BE9C           WRAPWTK
 0000:7378           WRAP_DISABLE
 0000:7351           WRAP_ENABLE
 0000:7304           WRAP_SWAP
 0000:ED24           WRITE_BLANK
 0000:F4A8           XAM863
 2619:C2A1           XBDAR
 2619:C2BB           XBIOS_DOS
 2619:C2B5           XBIOS_DST
 2619:C2B9           XBIOS_SIZ
 0000:0464           XBIOS_SRC
 0000:256E           XCHG_4GB
 0000:252B           XCHG_CC
 0000:241B           XCHG_CE
 0000:24A3           XCHG_EC
 0000:235A           XCHG_EE
 0000:7784           XCHG_PTE
 2619:C2B3           XENDADDR
 2619:CB68           XHITEXT
 0000:F59A           XHI_ENDADDR
 0000:C4FE           XHNDLCNT
 0000:FDF7           XLAT_FLAG
 0000:FDE8           XLAT_MAP
 2619:5F05           XLAT_VIDEO
 0000:C5AC           XLDT_SIZ
 2619:CB4A           XLOTEXT
 0000:9D50           XMOVEMEM_FNS
 0000:C526           XMS2_FNS
 0000:C674           XMSBMAP_LEN
 0000:C678           XMSBND_BRKPNT
 0000:C4FC           XMSNHNDL
 0000:906E           XMSPTE_CLR
 0000:90D1           XMSPTE_SET
 0000:85F3           XMS_ERR
 0000:0474           XMS_FLAG
 0000:C500           XMS_FNS
 0000:8B0A           XMS_GET2INF
 0000:8790           XMS_GET2XMB
 0000:8B05           XMS_GETINF
 0000:8CBF           XMS_GETUMB
 0000:878B           XMS_GETXMB
 0000:8699           XMS_GLBDIS
 0000:8684           XMS_GLBENA
 0000:8A65           XMS_LCKXMB
 0000:86C9           XMS_LCLDIS
 0000:86D1           XMS_LCLDIS_COM
 0000:86A9           XMS_LCLENA
 0000:86B1           XMS_LCLENA_COM
 0000:9971           XMS_MEMAVL
 0000:99BF           XMS_MEMSPAN
 0000:8B68           XMS_MOD2XMB
 0000:8D16           XMS_MODUMB
 0000:8B60           XMS_MODXMB
 0000:8894           XMS_MOVXMB
 0000:8713           XMS_QRY2XMB
 0000:86F6           XMS_QRYA20
 0000:870F           XMS_QRYXMB
 0000:8667           XMS_RELHMA
 0000:8CF8           XMS_RELUMB
 0000:8817           XMS_RELXMB
 0000:863B           XMS_REQHMA
 0000:8555           XMS_SUCCESS
 0000:8AD8           XMS_UNLXMB
 0000:860E           XMS_VERS
 0000:8F72           XMS_VXD2MAX
 0000:853D           XMS_VXDIN
 0000:982F           XMS_XLAT
 2619:B030           XORLIST
 2619:C299           XPGRSEG
 1F58:6374           XSDAT_2523
 0000:01D0           XSHDSIZE
 2619:0010           XSKIP_BLACK
 2619:028D           XSKIP_EOL
 2619:0000           XSKIP_WHITE
 1F58:6379           XSTACK
 3357:3A24           YDATA_NXT
 0000:EDDE           YMSGOUT
 2619:2158           YMSGOUT2
 0000:0D84           ZCODE_XLHI
 0000:C880           ZLDATA
 0000:0C60           ZLOCODE
 0000:0C1F           ZLOCODE_XINB
 0000:0CA8           ZLODPMI
 2619:6156           ZMAC_DTA
 2619:60C3           ZMAC_FN52
 2619:610F           ZMAC_SRCH

  Address         Publics by Value

 0000:0000      Abs  @A20DEF
 0000:0000      Abs  @AMRS_FREE
 0000:0000      Abs  @HOOK13_OFF
 0000:0000      Abs  @H_AVAIL
 0000:0000      Abs  @XLAT_UNK
 0000:0000           DEVDRV
 0000:0000      Abs  PMIDEF00
 0000:0001      Abs  $$ES
 0000:0001      Abs  @HOOK13_ACTIV
 0000:0001      Abs  @H_INUSE
 0000:0001      Abs  @XLAT_DOS
 0000:0002      Abs  $$CS
 0000:0002      Abs  @HOOK13_INACT
 0000:0002      Abs  @XLAT_LOW
 0000:0002      Abs  CPQVGABUG2_PAT1
 0000:0002      Abs  NSYSARGS
 0000:0002      Abs  PMIDEF01
 0000:0003      Abs  @XLAT_VID
 0000:0003      Abs  BINVERS_TU
 0000:0003      Abs  CPQVGABUG2_RPL2_LEN
 0000:0003      Abs  VERL
 0000:0004      Abs  $$SS
 0000:0004      Abs  @XLAT_OVR
 0000:0004      Abs  CPQVGABUG2_FIX2_LEN
 0000:0004      Abs  CPQVGABUG2_RPL1_LEN
 0000:0004      Abs  PMIDEF02
 0000:0005      Abs  @KERNEL_PATCHOFF
 0000:0005      Abs  @OVR_HPDALENP
 0000:0005      Abs  @XLAT_ROM0
 0000:0005      Abs  CPQVGABUG_LEN3
 0000:0006      Abs  @XLAT_ROM1
 0000:0006      Abs  PMIDEF03
 0000:0007      Abs  @XLAT_ROM2
 0000:0008      Abs  $$DS
 0000:0008      Abs  @XLAT_OTH
 0000:0008      Abs  BCFX_CNT
 0000:0008      Abs  BINVERS_H
 0000:0008      Abs  CPDREGTAB_LEN
 0000:0008      Abs  CPQVGABUG2_FIX1_LEN
 0000:0008      Abs  NFLEX_DEFAULTS
 0000:0008      Abs  PMIDEF04
 0000:0008      Abs  VERH
 0000:0009      Abs  @XLAT_EMS
 0000:000A      Abs  @XLAT_XLO
 0000:000A      Abs  PMIDEF05
 0000:000A           PSP_TERMINATE
 0000:000B      Abs  @MSG_STAT_ROWCNT
 0000:000B      Abs  @XLAT_XHI
 0000:000C      Abs  @XLAT_INC
 0000:000C      Abs  CPQVGABUG_LEN2
 0000:000C      Abs  PMIDEF06
 0000:000D      Abs  @XLAT_EXC
 0000:000E      Abs  @XLAT_PSM
 0000:000E      Abs  PMIDEF07
 0000:000F      Abs  @CFGLIST_LEN
 0000:000F      Abs  CPQVGAPAT_LEN
 0000:0010      Abs  $$FS
 0000:0010      Abs  @MAX_FREE_REG
 0000:0010      Abs  PMIDEF08
 0000:0011      Abs  CPQVGABUG_LEN
 0000:0012      Abs  @OVR_HPDALEND
 0000:0012           DEVDRV2
 0000:0012      Abs  PMIDEF09
 0000:0014      Abs  @WIN3_IMPORT_PRODUCT_LEN
 0000:0014      Abs  @WIN3_IMPORT_VENDOR_LEN
 0000:0014      Abs  PMIDEF0A
 0000:0016      Abs  PMIDEF0B
 0000:0018      Abs  PMIDEF0C
 0000:001A      Abs  PMIDEF0D
 0000:001C      Abs  PMIDEF0E
 0000:001E      Abs  @LKERNEL_MODEL
 0000:001E      Abs  NFLEXROMINTS
 0000:001E      Abs  PMIDEF0F
 0000:0020      Abs  $$GS
 0000:0020      Abs  @ERR_TIM
 0000:0020      Abs  PMIDEF10
 0000:0020      Abs  VERSLTR1
 0000:0022      Abs  PMIDEF11
 0000:0024      Abs  PMIDEF12
 0000:0025      Abs  CPQVGABUG2_PAT2
 0000:0026      Abs  PMIDEF13
 0000:0028      Abs  PMIDEF14
 0000:002A      Abs  PMIDEF15
 0000:002C      Abs  PMIDEF16
 0000:002C           PSP_ENVIR_PTR
 0000:002E      Abs  PMIDEF17
 0000:002E           PSP_LCL_STACK
 0000:0030      Abs  BETA_H
 0000:0030      Abs  BETA_T
 0000:0030      Abs  PMIDEF18
 0000:0030      Abs  VERS_T
 0000:0032      Abs  PMIDEF19
 0000:0033      Abs  VERS_U
 0000:0034      Abs  BETA_U
 0000:0034      Abs  PMIDEF1A
 0000:0036      Abs  PMIDEF1B
 0000:0038      Abs  PMIDEF1C
 0000:0038      Abs  VERS_H
 0000:003A      Abs  PMIDEF1D
 0000:003C      Abs  PMIDEF1E
 0000:003E      Abs  PMIDEF1F
 0000:0040      Abs  $$OSP
 0000:0040      Abs  @ERR_PRO
 0000:0040      Abs  @HMAPSIZE
 0000:0040      Abs  @MPPBASE
 0000:0040      Abs  PMIDEF20
 0000:0040      Abs  PPMTAB_LEN
 0000:0042      Abs  PMIDEF21
 0000:0044      Abs  PMIDEF22
 0000:0046           LHI_STRA
 0000:0046      Abs  PMIDEF23
 0000:0046      Abs  ROWLEN
 0000:0048      Abs  PMIDEF24
 0000:0049           LHI_STRA_CS
 0000:004A      Abs  PMIDEF25
 0000:004B           LHI_INTR
 0000:004B      Abs  NBCFINTS
 0000:004C      Abs  PMIDEF26
 0000:004E           LHI_INTR_CS
 0000:004E      Abs  PMIDEF27
 0000:0050           LHI_END
 0000:0050           LHI_INTR3
 0000:0050      Abs  PMIDEF28
 0000:0052      Abs  PMIDEF29
 0000:0053           LHI_INTR_CS3
 0000:0054      Abs  PMIDEF2A
 0000:0056      Abs  PMIDEF2B
 0000:0058           LCL_CR3
 0000:0058      Abs  PMIDEF2C
 0000:005A      Abs  PMIDEF2D
 0000:005C      Abs  PMIDEF2E
 0000:005C           STKPTR
 0000:005E      Abs  PMIDEF2F
 0000:0060           ORIG_PNP_RMVEC
 0000:0060      Abs  PMIDEF30
 0000:0062      Abs  PMIDEF31
 0000:0064      Abs  @UMB_INST_N
 0000:0064           LO_WINVXD_VEC
 0000:0064      Abs  PMIDEF32
 0000:0066      Abs  INFOSIZE
 0000:0066      Abs  PMIDEF33
 0000:0068           LO_PGET_WINVXD_VEC
 0000:0068      Abs  PMIDEF34
 0000:006A      Abs  PMIDEF35
 0000:006C           LOWGDT
 0000:006C      Abs  PMIDEF36
 0000:006E      Abs  PMIDEF37
 0000:0070      Abs  PMIDEF38
 0000:0072      Abs  PMIDEF39
 0000:0074      Abs  PMIDEF3A
 0000:0076      Abs  PMIDEF3B
 0000:0078      Abs  PMIDEF3C
 0000:0078      Abs  TIDT_DESC_LEN
 0000:007A      Abs  PMIDEF3D
 0000:007C      Abs  PMIDEF3E
 0000:007E      Abs  PMIDEF3F
 0000:0080      Abs  $$ASP
 0000:0080      Abs  @ERR_MOV
 0000:0080      Abs  @PPL0STK_INT
 0000:0080      Abs  LCLMEM_LEN
 0000:0080      Abs  NOLDINTS
 0000:0080      Abs  PMIDEF40
 0000:0080           PSP_PARM_COUNT
 0000:0081           PSP_PARM_STRING
 0000:0082      Abs  PMIDEF41
 0000:0084           PLOWSTKZ
 0000:0084      Abs  PMIDEF42
 0000:0085      Abs  MSG_COPYRIGHT_LEN
 0000:0086           LOWSTK
 0000:0086      Abs  PMIDEF43
 0000:0086           VIRT_DEV_DPFE
 0000:0088      Abs  PMIDEF44
 0000:008A      Abs  PMIDEF45
 0000:008C      Abs  PMIDEF46
 0000:008E      Abs  PMIDEF47
 0000:0090      Abs  PMIDEF48
 0000:0092      Abs  PMIDEF49
 0000:0094      Abs  PMIDEF4A
 0000:0096      Abs  PMIDEF4B
 0000:0098      Abs  PMIDEF4C
 0000:009A      Abs  PMIDEF4D
 0000:009C      Abs  PMIDEF4E
 0000:009E      Abs  PMIDEF4F
 0000:009F      Abs  NCMDARGS
 0000:00A0      Abs  PMIDEF50
 0000:00A2      Abs  PMIDEF51
 0000:00A4      Abs  PMIDEF52
 0000:00A6      Abs  PMIDEF53
 0000:00A8      Abs  PMIDEF54
 0000:00AA      Abs  PMIDEF55
 0000:00AC      Abs  PMIDEF56
 0000:00AE      Abs  PMIDEF57
 0000:00B0      Abs  PMIDEF58
 0000:00B2      Abs  PMIDEF59
 0000:00B4      Abs  PMIDEF5A
 0000:00B6      Abs  PMIDEF5B
 0000:00B8      Abs  PMIDEF5C
 0000:00BA      Abs  PMIDEF5D
 0000:00BC      Abs  PMIDEF5E
 0000:00BE      Abs  PMIDEF5F
 0000:00C0      Abs  PMIDEF60
 0000:00C2      Abs  PMIDEF61
 0000:00C4      Abs  PMIDEF62
 0000:00C6      Abs  PMIDEF63
 0000:00C8      Abs  PMIDEF64
 0000:00CA      Abs  PMIDEF65
 0000:00CC      Abs  PMIDEF66
 0000:00CD      Abs  VERSLTR2
 0000:00CE      Abs  PMIDEF67
 0000:00D0      Abs  PMIDEF68
 0000:00D2      Abs  PMIDEF69
 0000:00D4      Abs  PMIDEF6A
 0000:00D6      Abs  PMIDEF6B
 0000:00D8      Abs  PMIDEF6C
 0000:00DA      Abs  PMIDEF6D
 0000:00DC      Abs  PMIDEF6E
 0000:00DE      Abs  PMIDEF6F
 0000:00E0      Abs  PMIDEF70
 0000:00E2      Abs  PMIDEF71
 0000:00E4      Abs  PMIDEF72
 0000:00E6      Abs  PMIDEF73
 0000:00E8      Abs  PMIDEF74
 0000:00EA      Abs  PMIDEF75
 0000:00EC      Abs  PMIDEF76
 0000:00EE      Abs  PMIDEF77
 0000:00F0      Abs  PMIDEF78
 0000:00F2      Abs  PMIDEF79
 0000:00F4      Abs  PMIDEF7A
 0000:00F6      Abs  PMIDEF7B
 0000:00F8      Abs  PMIDEF7C
 0000:00FA      Abs  PMIDEF7D
 0000:00FC      Abs  PMIDEF7E
 0000:00FE      Abs  PMIDEF7F
 0000:00FF      Abs  @AMRS_INUSE
 0000:00FF      Abs  @MAX_EHNDLCNT
 0000:00FF      Abs  @RPN_UNUSED
 0000:0100      Abs  $$LOCK
 0000:0100      Abs  @MAX_FREE_UMBS
 0000:0100      Abs  @MAX_XHNDLCNT
 0000:0100      Abs  PMIDEF80
 0000:0102      Abs  PMIDEF81
 0000:0104      Abs  PMIDEF82
 0000:0106      Abs  PMIDEF83
 0000:0108      Abs  PMIDEF84
 0000:010A      Abs  PMIDEF85
 0000:010C      Abs  PMIDEF86
 0000:010E      Abs  PMIDEF87
 0000:0110      Abs  PMIDEF88
 0000:0112      Abs  PMIDEF89
 0000:0114      Abs  PMIDEF8A
 0000:0116      Abs  PMIDEF8B
 0000:0118      Abs  PMIDEF8C
 0000:011A      Abs  PMIDEF8D
 0000:011C      Abs  PMIDEF8E
 0000:011E      Abs  PMIDEF8F
 0000:0120      Abs  PMIDEF90
 0000:0122      Abs  PMIDEF91
 0000:0124      Abs  PMIDEF92
 0000:0126      Abs  PMIDEF93
 0000:0128      Abs  PMIDEF94
 0000:012A      Abs  PMIDEF95
 0000:012C      Abs  PMIDEF96
 0000:012E      Abs  PMIDEF97
 0000:0130      Abs  PMIDEF98
 0000:0132      Abs  PMIDEF99
 0000:0134      Abs  PMIDEF9A
 0000:0136      Abs  PMIDEF9B
 0000:0138      Abs  PMIDEF9C
 0000:013A      Abs  PMIDEF9D
 0000:013C      Abs  PMIDEF9E
 0000:013E      Abs  PMIDEF9F
 0000:0140      Abs  PMIDEFA0
 0000:0142      Abs  PMIDEFA1
 0000:0144      Abs  PMIDEFA2
 0000:0146      Abs  PMIDEFA3
 0000:0148      Abs  PMIDEFA4
 0000:014A      Abs  PMIDEFA5
 0000:014C      Abs  PMIDEFA6
 0000:014E      Abs  PMIDEFA7
 0000:0150      Abs  PMIDEFA8
 0000:0152      Abs  PMIDEFA9
 0000:0154      Abs  PMIDEFAA
 0000:0156      Abs  PMIDEFAB
 0000:0158      Abs  PMIDEFAC
 0000:015A      Abs  PMIDEFAD
 0000:015C      Abs  PMIDEFAE
 0000:015E      Abs  IDENTIFY_LEN
 0000:015E      Abs  PMIDEFAF
 0000:0160      Abs  PMIDEFB0
 0000:0162      Abs  PMIDEFB1
 0000:0164      Abs  PMIDEFB2
 0000:0166      Abs  PMIDEFB3
 0000:0168      Abs  PMIDEFB4
 0000:016A      Abs  PMIDEFB5
 0000:016C      Abs  PMIDEFB6
 0000:016E      Abs  PMIDEFB7
 0000:0170      Abs  PMIDEFB8
 0000:0172      Abs  PMIDEFB9
 0000:0174      Abs  PMIDEFBA
 0000:0176      Abs  PMIDEFBB
 0000:0178      Abs  PMIDEFBC
 0000:017A      Abs  PMIDEFBD
 0000:017C      Abs  PMIDEFBE
 0000:017E      Abs  PMIDEFBF
 0000:0180      Abs  PMIDEFC0
 0000:0182      Abs  PMIDEFC1
 0000:0184      Abs  PMIDEFC2
 0000:0186           LOWSTKZ
 0000:0186      Abs  PMIDEFC3
 0000:0187           INFO_CTL
 0000:0188           INFO
 0000:0188      Abs  PMIDEFC4
 0000:018A      Abs  PMIDEFC5
 0000:018C      Abs  PMIDEFC6
 0000:018E      Abs  PMIDEFC7
 0000:018E           QMAX_VER
 0000:0190      Abs  PMIDEFC8
 0000:0192           DEVICE_CS
 0000:0192      Abs  PMIDEFC9
 0000:0194      Abs  PMIDEFCA
 0000:0196      Abs  PMIDEFCB
 0000:0198           GLB_FLAG
 0000:0198      Abs  PMIDEFCC
 0000:019A           LOWSIZE
 0000:019A      Abs  PMIDEFCD
 0000:019C      Abs  PMIDEFCE
 0000:019C           VIDSIZE
 0000:019E           OVRSIZE
 0000:019E      Abs  PMIDEFCF
 0000:01A0      Abs  PMIDEFD0
 0000:01A2      Abs  PMIDEFD1
 0000:01A4      Abs  PMIDEFD2
 0000:01A4           PRGSIZE
 0000:01A6           MAPSIZE
 0000:01A6      Abs  PMIDEFD3
 0000:01A8      Abs  PMIDEFD4
 0000:01AA      Abs  PMIDEFD5
 0000:01AA           PORT15
 0000:01AC      Abs  PMIDEFD6
 0000:01AC           PORT67
 0000:01AE           CMDCOM_PAR
 0000:01AE      Abs  PMIDEFD7
 0000:01B0           OLDDOS
 0000:01B0      Abs  PMIDEFD8
 0000:01B2      Abs  PMIDEFD9
 0000:01B2           SYS_FLAG
 0000:01B4      Abs  PMIDEFDA
 0000:01B6           P1ST_MAC
 0000:01B6      Abs  PMIDEFDB
 0000:01B8      Abs  PMIDEFDC
 0000:01BA           LCL_FLAG
 0000:01BA      Abs  PMIDEFDD
 0000:01BC           DBG_FLAG
 0000:01BC      Abs  PMIDEFDE
 0000:01BE           DB2_FLAG
 0000:01BE      Abs  PMIDEFDF
 0000:01C0           MSC_FLAG
 0000:01C0      Abs  PMIDEFE0
 0000:01C2      Abs  PMIDEFE1
 0000:01C2           POVR_MAC
 0000:01C4           CMD_FLAG
 0000:01C4      Abs  PMIDEFE2
 0000:01C6           CM2_FLAG
 0000:01C6      Abs  PMIDEFE3
 0000:01C8           CM3_FLAG
 0000:01C8      Abs  PMIDEFE4
 0000:01CA           LOADSEG
 0000:01CA      Abs  PMIDEFE5
 0000:01CC           OFFSIZE
 0000:01CC      Abs  PMIDEFE6
 0000:01CE      Abs  PMIDEFE7
 0000:01CE           SHDSIZE
 0000:01D0      Abs  PMIDEFE8
 0000:01D0           XSHDSIZE
 0000:01D2      Abs  PMIDEFE9
 0000:01D2           SWPSIZE
 0000:01D4           ONFSIZE
 0000:01D4      Abs  PMIDEFEA
 0000:01D6      Abs  PMIDEFEB
 0000:01D6           SYSROM_START
 0000:01D8           DB3_FLAG
 0000:01D8      Abs  PMIDEFEC
 0000:01DA           OLDINT21_VEC
 0000:01DA      Abs  PMIDEFED
 0000:01DC      Abs  PMIDEFEE
 0000:01DE           CURINT67_VEC
 0000:01DE      Abs  PMIDEFEF
 0000:01E0      Abs  PMIDEFF0
 0000:01E2      Abs  PMIDEFF1
 0000:01E2           TOTSIZE
 0000:01E4      Abs  PMIDEFF2
 0000:01E6           EXTSIZE
 0000:01E6      Abs  PMIDEFF3
 0000:01E8      Abs  PMIDEFF4
 0000:01EA           EMMSIZE
 0000:01EA      Abs  PMIDEFF5
 0000:01EC      Abs  PMIDEFF6
 0000:01EE           ACTA20_COMSUB
 0000:01EE      Abs  PMIDEFF7
 0000:01F0           ACTA20_ENA
 0000:01F0      Abs  PMIDEFF8
 0000:01F2      Abs  PMIDEFF9
 0000:01F4      Abs  PMIDEFFA
 0000:01F6      Abs  PMIDEFFB
 0000:01F8      Abs  PMIDEFFC
 0000:01FA      Abs  PMIDEFFD
 0000:01FA           WIN3_STARTUP
 0000:01FC      Abs  PMIDEFFE
 0000:01FE      Abs  PMIDEFFF
 0000:0200      Abs  $$REPNE
 0000:0200      Abs  PMFDEF00
 0000:0202      Abs  PMFDEF01
 0000:0204      Abs  PMFDEF02
 0000:0206      Abs  PMFDEF03
 0000:0208      Abs  PMFDEF04
 0000:020A      Abs  PMFDEF05
 0000:020C           LOWWIN3_CB
 0000:020C      Abs  PMFDEF06
 0000:020D           AT386_CFG
 0000:020E      Abs  PMFDEF07
 0000:020E           SAVE_AH
 0000:020F           AT386_RAB
 0000:0210      Abs  PMFDEF08
 0000:0211           AT386_RCD
 0000:0212      Abs  PMFDEF09
 0000:0213           AT386_REF
 0000:0214      Abs  PMFDEF0A
 0000:0215           CT_ROMCFG
 0000:0216           CT_RAM_AB
 0000:0216      Abs  PMFDEF0B
 0000:0217           CT_RAM_CD
 0000:0218           CT_RAM_EF
 0000:0218      Abs  PMFDEF0C
 0000:0219           SEND_CHIPSET
 0000:021A      Abs  PMFDEF0D
 0000:021C      Abs  PMFDEF0E
 0000:021E      Abs  PMFDEF0F
 0000:0220      Abs  PMFDEF10
 0000:0222      Abs  PMFDEF11
 0000:0224      Abs  PMFDEF12
 0000:0226      Abs  PMFDEF13
 0000:0228      Abs  PMFDEF14
 0000:022A      Abs  PMFDEF15
 0000:022B           SHADOW_ENABLE
 0000:022C      Abs  PMFDEF16
 0000:022E      Abs  PMFDEF17
 0000:0230      Abs  PMFDEF18
 0000:0232      Abs  PMFDEF19
 0000:0234      Abs  PMFDEF1A
 0000:0236      Abs  PMFDEF1B
 0000:0238      Abs  PMFDEF1C
 0000:023A      Abs  PMFDEF1D
 0000:023C      Abs  PMFDEF1E
 0000:023E      Abs  PMFDEF1F
 0000:0240      Abs  VMFDEF00
 0000:0242      Abs  VMFDEF01
 0000:0244      Abs  VMFDEF02
 0000:0246      Abs  VMFDEF03
 0000:0248      Abs  VMFDEF04
 0000:024A      Abs  VMFDEF05
 0000:024C      Abs  VMFDEF06
 0000:024E      Abs  VMFDEF07
 0000:0250      Abs  VMFDEF08
 0000:0252      Abs  VMFDEF09
 0000:0254      Abs  VMFDEF0A
 0000:0256      Abs  VMFDEF0B
 0000:0258      Abs  VMFDEF0C
 0000:025A      Abs  VMFDEF0D
 0000:025C      Abs  VMFDEF0E
 0000:025E      Abs  VMFDEF0F
 0000:0260      Abs  VMFDEF10
 0000:0262      Abs  VMFDEF11
 0000:0264      Abs  VMFDEF12
 0000:0266      Abs  VMFDEF13
 0000:0268      Abs  VMFDEF14
 0000:026A           STATE_PM
 0000:026A      Abs  VMFDEF15
 0000:026C      Abs  VMFDEF16
 0000:026E      Abs  VMFDEF17
 0000:0270      Abs  VMFDEF18
 0000:0272      Abs  VMFDEF19
 0000:0274      Abs  VMFDEF1A
 0000:0276      Abs  VMFDEF1B
 0000:0278      Abs  VMFDEF1C
 0000:027A      Abs  VMFDEF1D
 0000:027C      Abs  VMFDEF1E
 0000:027E      Abs  VMFDEF1F
 0000:0280      Abs  PMIDEF_SSR16
 0000:0281      Abs  PMIDEF_SSR32
 0000:0283      Abs  PMIRMS
 0000:0285      Abs  PMILPM
 0000:0287      Abs  PMFLPM
 0000:0289      Abs  PMFLPM2
 0000:028B      Abs  PMVMCB
 0000:028D      Abs  PMMEI
 0000:028F      Abs  PMVSAPI16_MSDOS
 0000:029E      Abs  PMVSAPI16_386MAX
 0000:02AD      Abs  PMVSAPI32_MSDOS
 0000:02BB           WAITIBUF_CLR
 0000:02BE      Abs  PMVSAPI32_386MAX
 0000:02CF      Abs  PMVPF
 0000:02D1      Abs  PMRSP
 0000:02D1           WAITOBUF_CLR
 0000:02D3      Abs  PMIDEF_LEN
 0000:02E8           WAITOBUF_SET
 0000:02FE           PPI_S2C
 0000:0303      Abs  MSG_STATLEN
 0000:030A           PPI_K2S
 0000:0312           PPI_S2C_K2S
 0000:031B           PPI_S2C_S2K
 0000:0323      Abs  VER
 0000:0328           PULSE8042
 0000:0339           READ_IRR
 0000:0346           A20ENA_I92
 0000:0349           A20ENA_QUD
 0000:034C           A20ENA_XT
 0000:034F           A20ENA_I78
 0000:0352           A20ENA_ISA
 0000:0357           A20COM_I92
 0000:035F           A20COM_QUD
 0000:036B           A20COM_XT
 0000:0372           A20COM_I78
 0000:037B           A20COM_ISA
 0000:03CA           GATEA20
 0000:03D1           ACTA20_COM
 0000:03E0           WIN3_CB
 0000:03F9           WIN3_CB_GOREAL
 0000:0400      Abs  $$REP
 0000:0400      Abs  @IO_LIM
 0000:0429           RESINT_PNP
 0000:045C           DUMMY_INT67
 0000:045F           WIN3_END
 0000:0460           @QMAX_OVR_HICODE
 0000:0460           PRESINT_XMS
 0000:0464           XBIOS_SRC
 0000:0468           EX2SIZE
 0000:046C           I15_FLAG
 0000:046E           INTA01
 0000:046F           INTB01
 0000:0470           RH_VEC
 0000:0474           XMS_FLAG
 0000:0476           WIN3_VERSION
 0000:0478           EMM_IMPORT_PTR
 0000:047C           HI_WINVXD_VEC
 0000:0480           HI_PGET_WINVXD_VEC
 0000:0484           IIS_MAX
 0000:048E           SBIOSDATA
 0000:0490           I13CNT
 0000:0492           EXITRCHI
 0000:0494           MSG_VXDGONE
 0000:04B1           DEV_STRA
 0000:04BC           DEV_INTR
 0000:04CF      Abs  @CHECKER_LEN
 0000:0592           DEV_INTR3
 0000:05F0           RESINT11
 0000:05F3           OLDINT11_VEC
 0000:0624           GOVM86_LOW
 0000:0651           FARJMP_VEC
 0000:0682           ENABLE_IMR
 0000:069C           RESINT13A
 0000:06A7           OLDINT13A_VEC
 0000:06B5           RESINT13B
 0000:06C0           OLDINT13B_VEC
 0000:06C6           RESINT2F
 0000:06FD           HOOK13
 0000:072A           OLDINT2F_VEC
 0000:072E           RESINT2F_GPME
 0000:0742           RESINT2F_WIN3_BEGINIT
 0000:076E           RESINT2F_WIN3_BEGINIT_TAIL
 0000:0773           FIND_VXD
 0000:07A4           GET_WINVXD_VEC
 0000:07D9           RESINT_XMS
 0000:0800      Abs  $$ESCOD
 0000:0800      Abs  IDT_DESC_LEN
 0000:0800      Abs  MEM_MAP_LEN
 0000:0801           RESINT_XMS_INT
 0000:0803      Abs  VERS_HTU
 0000:081D           FILL_EX2SIZE
 0000:0838           SET_FLAGS
 0000:0846           RESINT40
 0000:085F           OLDINT40_VEC
 0000:08BE           RESINT15
 0000:090A           OLDINT15_VEC
 0000:0929           RESINT15_INT
 0000:0970           RESINT15_OLD
 0000:0975           EXT_MACFNS
 0000:09C3           EXTMAC_ORIG
 0000:09C4           RESINT20
 0000:09D4           OLDINT20_VEC
 0000:09D8           RESINT21
 0000:0A1C           CHECK_CLOSF
 0000:0A4F           RESINT27
 0000:0A60           OLDINT27_VEC
 0000:0A64           CHECK_ROOM
 0000:0A89           PGMAPRET
 0000:0A95           HARDRET
 0000:0A95           RESINTFF_INT
 0000:0A97           WARMBOOT
 0000:0ACD           STATE_OFF
 0000:0AEF           OLDVCPI
 0000:0AEF           RESINTFE_INT
 0000:0AF2           RESINT67
 0000:0B3F           RESINT67_INT
 0000:0B44           OLDINT67_VEC
 0000:0B49           RESINT67_IRET
 0000:0B62           RESINT19
 0000:0BAC           OLDINT19_VEC
 0000:0BB0           DPMI_VM2PM
 0000:0BC1           DPMI_VM2PM_INT
 0000:0BC3           VM_VSAPI
 0000:0BE0           EMPTY_HIMAC
 0000:0BE5           LCL_EFL
 0000:0BE7           RESINT06
 0000:0BE8           WARMBOOT_SUB
 0000:0C1F           ZLOCODE_XINB
 0000:0C60           OVR_HPDA
 0000:0C60           ZLOCODE
 0000:0CA8           @QMAX_OVR_ZCODE
 0000:0CA8           IDT_REAL
 0000:0CA8           ZLODPMI
 0000:0CAE           ACTA20_DIS
 0000:0CB8           A20DIS_I92
 0000:0CBB           A20DIS_QUD
 0000:0CBE           A20DIS_XT
 0000:0CC1           A20DIS_I78
 0000:0CC4           A20DIS_ISA
 0000:0CC9           DEGATEA20
 0000:0CD1           GOREAL_SUB
 0000:0D13           GOREAL_LOW
 0000:0D4E           SHADOW_DISABLE
 0000:0D84           ZCODE_XLHI
 0000:0D90           LSEG
 0000:0DC2           LSEGZ
 0000:0DD0           @QMAX_KEY_BLINK
 0000:0DD1           CHECKPOINT
 0000:0E3D           BLINK_LED
 0000:0EB2           PPI_S2K
 0000:0EC3           PPI_S2K_K2S
 0000:0EDB           BEEP
 0000:0F2B           PAUSE
 0000:0F34           @QMAX_DMA_ECODE
 0000:0F34           CHECK_PMR
 0000:1000      Abs  $$FJMP
 0000:1000      Abs  @BSCSIZE
 0000:117C           CHECK_PTE
 0000:1234      Abs  @ROMOFF
 0000:1236           SET_DMA
 0000:12D0           CHECK_DMA
 0000:12E9           DMA_COPYALL
 0000:12FC           CHECK_PART
 0000:1346           GET_TC
 0000:1372           CHECK_TC
 0000:138A           NEXT_DMACHAN
 0000:1399           DMA_COPY
 0000:1441           CHECK_TERM
 0000:147C           @QMAX_EM2_ECODE
 0000:147C           EMM2_GETMCS
 0000:1481           EMM2_GETMAP
 0000:1486           EMM2_GETINFO
 0000:148B           EMM2_GETPPM
 0000:1490           EMM2_MEMTIME
 0000:1495           EMM2_GOREAL
 0000:149A           EMM2_HIMEM
 0000:149F           EMM2_CURSOR
 0000:14A4           EMM2_POSCOPY
 0000:14A9           EMM2_GETTEXT
 0000:14AE           EMM2_HARPOINFO
 0000:14B3           EMM2_GSLINK58
 0000:14B8           EMM2_MALLOC
 0000:14BD           EMM2_DLGROUP
 0000:14C2           EMM2_PNP
 0000:14C7           EMM2_PNP1
 0000:14CC           EMM2_REBOOT
 0000:15CA           UTL_VXD2MAX
 0000:1797           FSET_XMSBND
 0000:179B           FPGMAP_ALL
 0000:17A0           @QMAX_EM4_ECODE
 0000:17A0           EMM_GETSETPART
 0000:17B2           EMM_GETSETPART0
 0000:1824           EMM_GETSETPART1
 0000:187E           EMM_GETSETPART2
 0000:1894           EMM_MULPGMAP
 0000:18A6           MULPGMAP_PPN
 0000:18E7           EMM_MULPGMAP0
 0000:1917           MULPGMAP_SEG
 0000:196D           EMM_MULPGMAP1
 0000:199E           EMM_REALLOC
 0000:1A31           PURGE_RPNCUR
 0000:1A75           EMM_GETSETATTR
 0000:1A87           EMM_GETSETATTR0
 0000:1A94           EMM_GETSETATTR1
 0000:1AAA           EMM_GETSETATTR2
 0000:1AB0           EMM_GETSETNAME
 0000:1AC2           EMM_GETSETNAME0
 0000:1AE9           EMM_GETSETNAME1
 0000:1B1E           EMM_GETHDIR
 0000:1B30           EMM_GETHDIR0
 0000:1B66           EMM_GETHDIR1
 0000:1BAE           SRCH_HNAME
 0000:1C02           EMM_GETHDIR2
 0000:1C0C           EMM_PGMAPJMP
 0000:1C1E           EMM_PGMAPJMP0
 0000:1C83           EMM_PGMAPJMP1
 0000:1CE8           EMM_PGMAPCALL
 0000:1CFA           EMM_PGMAPCALL0
 0000:1D03           EMM_PGMAPCALL1
 0000:1D0A           EMM_PGMAPCALL_COM
 0000:1DE4           EMM_PGMAPCALL2
 0000:1DEE           EMM_PGMAPRET
 0000:1E6C           EMM_GETPHYS
 0000:1E7E           EMM_GETPHYS0
 0000:1EB0           EMM_GETPHYS1
 0000:1EBB           EMM_RAWALLOC
 0000:1ECD           EMM_RAWALLOC0
 0000:1ED1           EMM_RAWALLOC1
 0000:1ED5           EMM_BOOT
 0000:1ED9           SKIP_LPN
 0000:1F0F           COPY2LCL
 0000:1F38           @QMAX_EMX_ECODE
 0000:1F38           EMM_XMOVEMEM
 0000:1F4A           EMM_XMOVEMEM0
 0000:1FCA           EMM_XMOVEMEM1
 0000:2000      Abs  $$INIB
 0000:2000      Abs  @IOMAP
 0000:2029           MOVE_EE_XDO
 0000:20EA           MOVE_EE_DO
 0000:21E8           MOVE_CE
 0000:2270           MOVE_EC
 0000:22F8           MOVE_CC_XDO
 0000:2323           MOVE_CC_DO
 0000:235A           XCHG_EE
 0000:241B           XCHG_CE
 0000:24A3           XCHG_EC
 0000:252B           XCHG_CC
 0000:2556           MOVE_4GB
 0000:256E           XCHG_4GB
 0000:25C3           GET_EMSADDR
 0000:25EE           CHK_XMOVE
 0000:283C           CALC_PNPSUM
 0000:2861           PATCH_PNP
 0000:28B2           @QMAX_EVM_ECODE
 0000:28B2           SIRBCUR2B
 0000:28DF           OUTCMOS
 0000:28F1           DISABLE_NMI
 0000:2903           ENABLE_NMI
 0000:291A           CLR_PARITY
 0000:2941           COPY_GDT
 0000:296B           COPY_IDT
 0000:2998           PAGE_ON
 0000:2A05           ENTERVM
 0000:2B6E           FIXUP_ISELS
 0000:2BEA           FIXUP_SUB
 0000:2C34           ENABLE_P5
 0000:2C6C           DISABLE_P5
 0000:2CA4           @QMAX_I09_ECODE
 0000:2CA4           INT09
 0000:2E18           GETSHIFT
 0000:2E2C           @QMAX_I0D_ECODE
 0000:2E2C           CACHE_INVD
 0000:2E55           INT0D
 0000:2F94           GP_ES
 0000:2F99           GP_CS
 0000:2F9E           GP_SS
 0000:2FA3           GP_DS
 0000:2FA8           GP_FS
 0000:2FAD           GP_GS
 0000:2FB2           GP_OSP
 0000:2FB7           GP_ASP
 0000:2FBD           GP_LOCK
 0000:2FC3           GP_REPNE
 0000:2FC9           GP_REP
 0000:2FCF           GP_HLT
 0000:2FF2           GP_CLI
 0000:2FFB           GP_STI
 0000:3004           GP_FJMP
 0000:305A           GP_ESCOD
 0000:30AB           GP_MOV_R32_CRN
 0000:30B9           GP_MOV_R32_DRN
 0000:30C7           GP_MOV_R32_TRN
 0000:310D           GP_MOV_CRN_R32
 0000:311B           GP_MOV_DRN_R32
 0000:3129           GP_MOV_TRN_R32
 0000:321A           INT0D_IRETD
 0000:3287           INT0D_IRETD1
 0000:3298           INT0D_IRET_TF
 0000:32BE           INT0D_UGHNF
 0000:32C4           INT0D_DPMIREST
 0000:3356           INT0D_SOR
 0000:3360           INT0D_INVOPCOD
 0000:3373           INS_MOV_R32_CRN
 0000:3377           INS_MOV_R32_DRN
 0000:337B           INS_MOV_R32_TRN
 0000:3394           INS_MOV_CRN_R32
 0000:33CD           INS_MOV_DRN_R32
 0000:33D1           INS_MOV_TRN_R32
 0000:33D8           @QMAX_I0E_ECODE
 0000:33D8           INT0E
 0000:3720           INT0E_UGHPNP
 0000:3740           INT0E_DPMI_VISIBLE
 0000:37E0           DPMI_VPFRET
 0000:381F           INT0E_UGHSUP
 0000:3825           INT0E_UGHROM
 0000:384E           CR2INT01
 0000:38DF           REST_PTE
 0000:394F           READ_CHIPSET
 0000:3964           GETILEN
 0000:3A60           @QMAX_I15_ECODE
 0000:3A60           FGETSHIFT
 0000:3A64           @QMAX_I21_ECODE
 0000:3A64           FOPENHIGHDOS
 0000:3AA3           FCLOSEHIGHDOS
 0000:3AC7           SET_POVR
 0000:3AE1           INT21
 0000:3C9C           INT21_EXEC
 0000:3E37           CHECK_CFG_LINK
 0000:3E81           CLOSEHIGH
 0000:3EFB           OPENHIGH
 0000:3F9F           TOPDOS
 0000:3FA4           @QMAX_I31_ECODE
 0000:3FA4           FDISP_STR
 0000:3FB9           FDD2HEX
 0000:3FBD           FSET_PPL0STK
 0000:3FC8           FALLOCMEM
 0000:3FDE           FDEALLOCMEM
 0000:3FF5           FWRAP_DISABLE
 0000:3FF9           FWRAP_ENABLE
 0000:3FFD           FAPPEND_EXT
 0000:4000      Abs  $$INIW
 0000:4001           FCHECK_HOOK
 0000:4005           EMM2_DPMIPRES
 0000:4028           @QMAX_I67_ECODE
 0000:4028           INT67
 0000:4038           INT67A_HIMEM_CS
 0000:4061           INT67B_HIMEM_CS
 0000:411F           EMU_INT67
 0000:41DD           EMM_STATUS
 0000:41E1           EMM_FRAME
 0000:41F5           EMM_PGCNT
 0000:420A           EMM_ALLOC
 0000:4213           EMM_ALLOC_ZERO
 0000:42A1           EMM_PGMAP
 0000:4369           EMM_DEALLOC
 0000:43DC           EMM_VERSION
 0000:43E2           EMM_SAVEMAP
 0000:444E           EMM_RESTMAP
 0000:4479           EMM_HNDLCNT
 0000:4484           EMM_HNDLNPG
 0000:4496           EMM_ALLHP
 0000:44C4           EMM_GETSET
 0000:44D6           EMM_GETSET0
 0000:44DD           EMM_GETSET1
 0000:44E8           EMM_GETSET2
 0000:44F6           EMM_GETSET3
 0000:44FD           EMM_E80
 0000:44FD           EMM_RETURN
 0000:4501           EMM_E83
 0000:4505           EMM_E84
 0000:4509           EMM_E85
 0000:450D           EMM_E86
 0000:4511           EMM_E87
 0000:4515           EMM_E88
 0000:4519           EMM_E89
 0000:451D           EMM_E8A
 0000:4521           EMM_E8B
 0000:4525           EMM_E8D
 0000:4529           EMM_E8E
 0000:452D           EMM_E8F
 0000:4531           EMM_E91
 0000:4535           EMM_E92
 0000:4539           EMM_E9B
 0000:453D           EMM_E9C
 0000:4541           EMM_E9D
 0000:4545           EMM_EA0
 0000:4549           EMM_EA1
 0000:454D           EMM_EA3
 0000:4551           EMM_EA4
 0000:4555           EMM_E00AL
 0000:4559           EMM_E00
 0000:455D           EMM_ERR
 0000:4568           EMM_EXITAL
 0000:456C           EMM_EXIT
 0000:4570           EMM_EXIT1
 0000:45ED           EMM_EXIT_GOREAL
 0000:4698           INT67_IRETD
 0000:46AC           REPL_PTE
 0000:46EB           PGMAP_ALL
 0000:472A           PGMAP_COM
 0000:4839           RPNMAP_COM
 0000:4926           VALID_HNDL
 0000:4933           ACTIVE_PAGES
 0000:4949           PL3DSSI
 0000:4966           PL3ESDI
 0000:4983           RPN_STORE
 0000:49A8           RPN_READ
 0000:49DD           RPN_DIFF
 0000:4A10           CHECK_HFRMSAV
 0000:4A27           SWAP_H0PAGES
 0000:4A88           DEALLOCEMS
 0000:4B4A           ALLOCEMS
 0000:4C08           @QMAX_IDT_ECODE
 0000:4C08           INTCOM
 0000:4C22           INTCOM_DPMI_CHKRET
 0000:4D5C           INTCOM_DPMI_HARDRET
 0000:4DC6           INTCOM_DPMI_INT
 0000:4E0F           INTCOM_DPMI_INTMAX
 0000:4F2F           INTCOM_DPMI_FAULT
 0000:4F8A           IZIT_REFLINT
 0000:4FC8           IZIT_CPIHOOK
 0000:4FE4           IZIT_PPIHOOK
 0000:5008           IRETD_COM
 0000:503A           INTPROC
 0000:503C           INTPROC00
 0000:503F           INTPROC00Z
 0000:5040           INTPROC01
 0000:5044           INTPROC02
 0000:5048           INTPROC03
 0000:504C           INTPROC04
 0000:5050           INTPROC05
 0000:5054           INTPROC06
 0000:5058           INTPROC07
 0000:505C           INTPROC08
 0000:5060           INTPROC09
 0000:5064           INTPROC0A
 0000:5068           INTPROC0B
 0000:506C           INTPROC0C
 0000:5070           INTPROC0D
 0000:5074           INTPROC0E
 0000:5078           INTPROC0F
 0000:507C           INTPROC10
 0000:5080           INTPROC11
 0000:5084           INTPROC12
 0000:5088           INTPROC13
 0000:508C           INTPROC14
 0000:5090           INTPROC15
 0000:5094           INTPROC16
 0000:5098           INTPROC17
 0000:509C           INTPROC18
 0000:50A0           INTPROC19
 0000:50A4           INTPROC1A
 0000:50A8           INTPROC1B
 0000:50AC           INTPROC1C
 0000:50B0           INTPROC1D
 0000:50B4           INTPROC1E
 0000:50B8           INTPROC1F
 0000:50BC           INTPROC20
 0000:50C0           INTPROC21
 0000:50C4           INTPROC22
 0000:50C8           INTPROC23
 0000:50CC           INTPROC24
 0000:50D0           INTPROC25
 0000:50D4           INTPROC26
 0000:50D8           INTPROC27
 0000:50DC           INTPROC28
 0000:50E0           INTPROC29
 0000:50E4           INTPROC2A
 0000:50E8           INTPROC2B
 0000:50EC           INTPROC2C
 0000:50F0           INTPROC2D
 0000:50F4           INTPROC2E
 0000:50F8           INTPROC2F
 0000:50FC           INTPROC30
 0000:5100           INTPROC31
 0000:5104           INTPROC32
 0000:5108           INTPROC33
 0000:510C           INTPROC34
 0000:5110           INTPROC35
 0000:5114           INTPROC36
 0000:5118           INTPROC37
 0000:511C           INTPROC38
 0000:5120           INTPROC39
 0000:5124           INTPROC3A
 0000:5128           INTPROC3B
 0000:512C           INTPROC3C
 0000:5130           INTPROC3D
 0000:5134           INTPROC3E
 0000:5138           INTPROC3F
 0000:513C           INTPROC40
 0000:5140           INTPROC41
 0000:5144           INTPROC42
 0000:5148           INTPROC43
 0000:514C           INTPROC44
 0000:5150           INTPROC45
 0000:5154           INTPROC46
 0000:5158           INTPROC47
 0000:515C           INTPROC48
 0000:5160           INTPROC49
 0000:5164           INTPROC4A
 0000:5168           INTPROC4B
 0000:516C           INTPROC4C
 0000:5170           INTPROC4D
 0000:5174           INTPROC4E
 0000:5178           INTPROC4F
 0000:517C           INTPROC50
 0000:5180           INTPROC51
 0000:5184           INTPROC52
 0000:5188           INTPROC53
 0000:518C           INTPROC54
 0000:5190           INTPROC55
 0000:5194           INTPROC56
 0000:5198           INTPROC57
 0000:519C           INTPROC58
 0000:51A0           INTPROC59
 0000:51A4           INTPROC5A
 0000:51A8           INTPROC5B
 0000:51AC           INTPROC5C
 0000:51B0           INTPROC5D
 0000:51B4           INTPROC5E
 0000:51B8           INTPROC5F
 0000:51BC           INTPROC60
 0000:51C0           INTPROC61
 0000:51C4           INTPROC62
 0000:51C8           INTPROC63
 0000:51CC           INTPROC64
 0000:51D0           INTPROC65
 0000:51D4           INTPROC66
 0000:51D8           INTPROC67
 0000:51DC           INTPROC68
 0000:51E0           INTPROC69
 0000:51E4           INTPROC6A
 0000:51E8           INTPROC6B
 0000:51EC           INTPROC6C
 0000:51F0           INTPROC6D
 0000:51F4           INTPROC6E
 0000:51F8           INTPROC6F
 0000:51FC           INTPROC70
 0000:5200           INTPROC71
 0000:5204           INTPROC72
 0000:5208           INTPROC73
 0000:520C           INTPROC74
 0000:5210           INTPROC75
 0000:5214           INTPROC76
 0000:5218           INTPROC77
 0000:521C           INTPROC78
 0000:5220           INTPROC79
 0000:5224           INTPROC7A
 0000:5228           INTPROC7B
 0000:522C           INTPROC7C
 0000:5230           INTPROC7D
 0000:5234           INTPROC7E
 0000:5238           INTPROC7F
 0000:523C           INTPROC80
 0000:5240           INTPROC81
 0000:5244           INTPROC82
 0000:5248           INTPROC83
 0000:524C           INTPROC84
 0000:5250           INTPROC85
 0000:5254           INTPROC86
 0000:5258           INTPROC87
 0000:525C           INTPROC88
 0000:5260           INTPROC89
 0000:5264           INTPROC8A
 0000:5268           INTPROC8B
 0000:526C           INTPROC8C
 0000:5270           INTPROC8D
 0000:5274           INTPROC8E
 0000:5278           INTPROC8F
 0000:527C           INTPROC90
 0000:5280           INTPROC91
 0000:5284           INTPROC92
 0000:5288           INTPROC93
 0000:528C           INTPROC94
 0000:5290           INTPROC95
 0000:5294           INTPROC96
 0000:5298           INTPROC97
 0000:529C           INTPROC98
 0000:52A0           INTPROC99
 0000:52A4           INTPROC9A
 0000:52A8           INTPROC9B
 0000:52AC           INTPROC9C
 0000:52B0           INTPROC9D
 0000:52B4           INTPROC9E
 0000:52B8           INTPROC9F
 0000:52BC           INTPROCA0
 0000:52C0           INTPROCA1
 0000:52C4           INTPROCA2
 0000:52C8           INTPROCA3
 0000:52CC           INTPROCA4
 0000:52D0           INTPROCA5
 0000:52D4           INTPROCA6
 0000:52D8           INTPROCA7
 0000:52DC           INTPROCA8
 0000:52E0           INTPROCA9
 0000:52E4           INTPROCAA
 0000:52E8           INTPROCAB
 0000:52EC           INTPROCAC
 0000:52F0           INTPROCAD
 0000:52F4           INTPROCAE
 0000:52F8           INTPROCAF
 0000:52FC           INTPROCB0
 0000:5300           INTPROCB1
 0000:5304           INTPROCB2
 0000:5308           INTPROCB3
 0000:530C           INTPROCB4
 0000:5310           INTPROCB5
 0000:5314           INTPROCB6
 0000:5318           INTPROCB7
 0000:531C           INTPROCB8
 0000:5320           INTPROCB9
 0000:5324           INTPROCBA
 0000:5328           INTPROCBB
 0000:532C           INTPROCBC
 0000:5330           INTPROCBD
 0000:5334           INTPROCBE
 0000:5338           INTPROCBF
 0000:533C           INTPROCC0
 0000:5340           INTPROCC1
 0000:5344           INTPROCC2
 0000:5348           INTPROCC3
 0000:534C           INTPROCC4
 0000:5350           INTPROCC5
 0000:5354           INTPROCC6
 0000:5358           INTPROCC7
 0000:535C           INTPROCC8
 0000:5360           INTPROCC9
 0000:5364           INTPROCCA
 0000:5368           INTPROCCB
 0000:536C           INTPROCCC
 0000:5370           INTPROCCD
 0000:5374           INTPROCCE
 0000:5378           INTPROCCF
 0000:537C           INTPROCD0
 0000:5380           INTPROCD1
 0000:5384           INTPROCD2
 0000:5388           INTPROCD3
 0000:538C           INTPROCD4
 0000:5390           INTPROCD5
 0000:5394           INTPROCD6
 0000:5398           INTPROCD7
 0000:539C           INTPROCD8
 0000:53A0           INTPROCD9
 0000:53A4           INTPROCDA
 0000:53A8           INTPROCDB
 0000:53AC           INTPROCDC
 0000:53B0           INTPROCDD
 0000:53B4           INTPROCDE
 0000:53B8           INTPROCDF
 0000:53BC           INTPROCE0
 0000:53C0           INTPROCE1
 0000:53C4           INTPROCE2
 0000:53C8           INTPROCE3
 0000:53CC           INTPROCE4
 0000:53D0           INTPROCE5
 0000:53D4           INTPROCE6
 0000:53D8           INTPROCE7
 0000:53DC           INTPROCE8
 0000:53E0           INTPROCE9
 0000:53E4           INTPROCEA
 0000:53E8           INTPROCEB
 0000:53EC           INTPROCEC
 0000:53F0           INTPROCED
 0000:53F4           INTPROCEE
 0000:53F8           INTPROCEF
 0000:53FC           INTPROCF0
 0000:5400           INTPROCF1
 0000:5404           INTPROCF2
 0000:5408           INTPROCF3
 0000:540C           INTPROCF4
 0000:5410           INTPROCF5
 0000:5414           INTPROCF6
 0000:5418           INTPROCF7
 0000:541C           INTPROCF8
 0000:5420           INTPROCF9
 0000:5424           INTPROCFA
 0000:5428           INTPROCFB
 0000:542C           INTPROCFC
 0000:5430           INTPROCFD
 0000:5434           INTPROCFE
 0000:5438           INTPROCFF
 0000:543B           INTXXCOM
 0000:54CD           GOREAL_REBOOT
 0000:54D5           EMM2_GOREAL_HI
 0000:54D9           GOREAL
 0000:56CE           DISP_MSG
 0000:579D           DISP_STR
 0000:57C6           KEYWAIT
 0000:57D7           HOUSE_DOG
 0000:5810           INT01
 0000:58C6           INT01_COMMON
 0000:58F2           INT02
 0000:594C           INT03
 0000:59B2           INT06
 0000:5D47           COPY_DWDD
 0000:5D5E           INT07
 0000:5E44           INT08
 0000:5EC0           INT0A
 0000:5F3C           INT0B
 0000:5FB8           INT0C
 0000:6072           INT0F
 0000:607C           INT70
 0000:6086           INT71
 0000:6090           INT72
 0000:609A           INT73
 0000:60A4           INT74
 0000:60AE           INT75
 0000:60B8           INT76
 0000:60C2           INT77
 0000:60CC           INTNFCOM
 0000:6102           HARDINT
 0000:61C0           INTFF
 0000:61D0           INTFF_HIMEM_CS
 0000:62B7           SET_PPL0STK
 0000:62EF           SETREBOOT
 0000:62FB           SETBDAREBOOT
 0000:6308           DPMI_DSTK_CHK
 0000:6317           DSTK_CHK
 0000:6404           @QMAX_IN2_ECODE
 0000:6404           MOVE_DB
 0000:6444           SET_GDT
 0000:64D8           FSET_GDT
 0000:64F4           @QMAX_INI_ECODE
 0000:64F4           SET_EXTMEM_CS
 0000:6530           @QMAX_IOP_ECODE
 0000:6530           CHECK_SYSROM
 0000:6544           CHECK60OUT
 0000:6544           CHECKFNS
 0000:6572           CHECK60INP
 0000:6596           CHECK64OUT
 0000:65C8           CHECKFNS_TEST
 0000:65DF           CHECKFNS_RESET
 0000:65F3           CHECKFNS_A20
 0000:65FA           CHECK1F8OUT
 0000:6614           CHECK310OUT
 0000:6626           CTRL_A20
 0000:6642           CHECK00OUT
 0000:6656           CHECK01OUT
 0000:666D           CHECK401OUT
 0000:6688           CHECK0AOUT
 0000:66A2           CHECK0BOUT
 0000:66B2           CHECK0COUT
 0000:66BA           CHECK0FOUT
 0000:66D2           BYTE_ADDRCNT
 0000:6762           CHECK18OUT
 0000:680C           CHECK92OUT
 0000:6832           CHECK92INP
 0000:684C           CHECK81OUT
 0000:685C           CHECK81INP
 0000:686C           CHECK481OUT
 0000:687C           CHECK481INP
 0000:688C           CHECK89OUT
 0000:689C           CHECK89INP
 0000:68AC           CHECK489OUT
 0000:68BC           CHECK489INP
 0000:68CB           CHECKC0OUT
 0000:68E8           CHECKC2OUT
 0000:6903           CHECK4C2OUT
 0000:691E           CHECKD4OUT
 0000:693A           CHECKD6OUT
 0000:694C           CHECKD8OUT
 0000:6954           CHECKDEOUT
 0000:696C           WORD_ADDRCNT
 0000:69F6           CHECK3B4OUT
 0000:6A20           CHECK3B5OUT
 0000:6A3E           CHECK3B5INP
 0000:6A5C           CHECK_X
 0000:6A5E           CHECK_XINP
 0000:6A6A           CHECK_XOUT
 0000:6A75           CHECK_IOTRAP
 0000:6B50           CHECK_DBG
 0000:6B5C           CHECK_INP
 0000:6B7C           CHECK_OUT
 0000:6B9C           GP_OUTIB
 0000:6BBE           GP_OUTIW
 0000:6BFA           GP_OUTDB
 0000:6C40           GP_OUTDW
 0000:6CAF           STRIP_DX
 0000:6CBE           PL3STK_DS
 0000:6CDA           GP_INIB
 0000:6CFC           GP_INIW
 0000:6D3C           GP_INDB
 0000:6D70           GP_INDW
 0000:6DC4           @QMAX_KEY_ECODE
 0000:6DC4           RESET_KEYB
 0000:6E2C           @QMAX_LOD_ECODE
 0000:6E2C           LINPHYS
 0000:6EAE           LINPHYS_NP_SUB
 0000:6EC7           LINPHYS_PG_SUB
 0000:6EE0           GETBASE
 0000:6EF2           SETBASE
 0000:6F07           INIT_PROT
 0000:6F48           REST_PROT
 0000:6F8C           @QMAX_MAC_ECODE
 0000:6F8C           FKEYWAIT
 0000:6F90           @QMAX_OSE_ECODE
 0000:6F90           EMM_GETXINFO
 0000:6FA3           EMM_GETXINFO0
 0000:6FD7           EMM_GETXINFO1
 0000:6FDA           EMM_ALTMAPREG
 0000:6FF6           EMM_ALTMAPREG0
 0000:701B           EMM_ALTMAPREG1
 0000:70FF           SET_AMRS
 0000:713D           EMM_ALTMAPREG2
 0000:7147           EMM_ALTMAPREG3
 0000:71E6           EMM_ALTMAPREG4
 0000:722A           EMM_ALTMAPREG5
 0000:7233           EMM_ALTMAPREG6
 0000:723F           EMM_ALTMAPREG7
 0000:724B           EMM_ALTMAPREG8
 0000:7257           EMM_OSE
 0000:7285           EMM_OSE0
 0000:7291           EMM_OSE1
 0000:729D           EMM_OSE2
 0000:72B0           NEW_ACCKEY
 0000:72D2           CALC_ACCKEY
 0000:7304           @QMAX_PDT_ECODE
 0000:7304           WRAP_SWAP
 0000:7351           WRAP_ENABLE
 0000:7378           WRAP_DISABLE
 0000:73A8           FLUSH_TLB
 0000:73B5           FIND_PTE
 0000:743A           FIND_PTE_SUB
 0000:7460           @QMAX_PMR_ECODE
 0000:7460           EMM_GETPMR
 0000:747C           EMM_GETL2PMAP
 0000:74C9           PPN2BRDRPN
 0000:74E8           EMU_PORTPMRI
 0000:751F           EMU_PORTPMRO
 0000:75D8           @QMAX_STA_ECODE
 0000:75D9           BIN2BASE
 0000:75F8           @QMAX_SWP_ECODE
 0000:75F8           SWAP_MAP
 0000:765B           SWAP_MEM
 0000:76C4           SWAP_MEM_SUB
 0000:7784           XCHG_PTE
 0000:77AC           OFF2LIN
 0000:77C0           @QMAX_TIM_ECODE
 0000:77C0           TIME_MEM
 0000:77ED           TIMER_SETUP
 0000:780F           TIMER_RESTORE
 0000:7831           TIMER_READ
 0000:7858           @QMAX_VCP_ECODE
 0000:7858           INTFE
 0000:7868           INTFE_HIMEM_CS
 0000:78C5           OLDVCPI00
 0000:78D6           OLDVCPI03
 0000:78E1           EMM_VCPI
 0000:78F4           VCPI00
 0000:7907           VCPI01
 0000:7916           VCPI_V86MODE
 0000:7A09           VCPI02
 0000:7A15           VCPI03
 0000:7A20           VCPI04
 0000:7A2F           VCPI05
 0000:7A39           VCPI06
 0000:7A63           VCPI07
 0000:7A6E           VCPI08
 0000:7ABC           VCPI09
 0000:7AFE           VCPI0A
 0000:7B0F           VCPI0B
 0000:7B25           VCPI0C
 0000:7B8A           VMM_DRAIN_POOL
 0000:7BA8           CHECK_EPM
 0000:7C26           VCP_MODESUB
 0000:7CAE           CHECK_LOTUS_OLD
 0000:7CC7           CHECK_LOTUSPF
 0000:7D36           PMVCPI
 0000:7D61           PMOLDVCPI
 0000:7D87           PMVCPI03
 0000:7DAF           PMVCPI04
 0000:7DDB           PMVCPI05
 0000:7E0C           PMVCPI0C
 0000:7EF1           VCPI_COUNT
 0000:7F02           VCPI_ALLOC
 0000:7F45           VCPI_DEALLOC
 0000:7FDA           VCPI_SET
 0000:8000      Abs  $$OUTIB
 0000:8000      Abs  @ENVLEN
 0000:8011           VCPI_SET1
 0000:8020           PMVCPI0C_NEXT
 0000:8023           COPY_PTE
 0000:804A           GDTSET
 0000:8090           @QMAX_XMS_ECODE
 0000:8090           INT2F
 0000:80BA           INT2F_INTRETPM
 0000:8138           INT2F_HIMEM_CS
 0000:853D           XMS_VXDIN
 0000:8555           XMS_SUCCESS
 0000:85F3           XMS_ERR
 0000:860E           XMS_VERS
 0000:863B           XMS_REQHMA
 0000:8667           XMS_RELHMA
 0000:8684           XMS_GLBENA
 0000:8699           XMS_GLBDIS
 0000:86A9           XMS_LCLENA
 0000:86B1           XMS_LCLENA_COM
 0000:86C9           XMS_LCLDIS
 0000:86D1           XMS_LCLDIS_COM
 0000:86F6           XMS_QRYA20
 0000:870F           XMS_QRYXMB
 0000:8713           XMS_QRY2XMB
 0000:878B           XMS_GETXMB
 0000:8790           XMS_GET2XMB
 0000:8817           XMS_RELXMB
 0000:8894           XMS_MOVXMB
 0000:8A65           XMS_LCKXMB
 0000:8AD8           XMS_UNLXMB
 0000:8B05           XMS_GETINF
 0000:8B0A           XMS_GET2INF
 0000:8B60           XMS_MODXMB
 0000:8B68           XMS_MOD2XMB
 0000:8CBF           XMS_GETUMB
 0000:8CF8           XMS_RELUMB
 0000:8D16           XMS_MODUMB
 0000:8D3B           VMFN_CHKVSAPI
 0000:8D7D           CHECK_HOOK
 0000:8DC8           WIN_LIN2LIN
 0000:8DF9           CHECK_VDISK
 0000:8E54           VALID_XHNDL
 0000:8E6D           APPEND_EXT
 0000:8EB1           APPEND_E2X
 0000:8EE7           REMOVE_E2X
 0000:8F1D           INIT_XMS
 0000:8F72           XMS_VXD2MAX
 0000:906E           XMSPTE_CLR
 0000:90D1           XMSPTE_SET
 0000:9138           @QMAX_L31_ECODE
 0000:9138           FQRY_PGCNT
 0000:9149           FALLOCMEM_SUB
 0000:9160           @QMAX_N31_ECODE
 0000:9160           INT10
 0000:9170           INT41_DOSX
 0000:923C           @QMAX_IM2_ECODE
 0000:923C           EMM2_GETPTE
 0000:9241           EMM2_GLBFLAG
 0000:9246           EMM2_DBGFLAG
 0000:924B           EMM2_DB2FLAG
 0000:9250           EMM2_CM3FLAG
 0000:9255           EMM2_RAMSCAN
 0000:925A           EMM2_ROMSWAP
 0000:925F           EMM2_ROMRW
 0000:9264           EMM2_GOREALWIN3
 0000:9269           EMM2_INITWIN3
 0000:926E           EMM2_PSMEM
 0000:9273           EMM2_PHYS2LIN
 0000:9278           EMM2_SETPTE
 0000:927D           EMM2_FLEXINFO
 0000:9282           EMM2_GETOLDINT
 0000:9287           EMM2_DISPSTR
 0000:928C           EMM2_EXTADDR
 0000:9291           EMM2_GETMAXINT
 0000:9296           EMM2_DSTKS
 0000:929B           EMM2_INITREST
 0000:92A0           EMM2_TMPCLOSE
 0000:92A5           EMM2_SWAPFILE
 0000:92AA           EMM2_VMVSAPI
 0000:92AF           FPL3ESDI
 0000:92B3           FFLUSH_TLB
 0000:92B7           FDISABLE_NMI
 0000:92BB           FENABLE_NMI
 0000:92BF           FREST_PTE
 0000:92C3           FSWAP_MAP
 0000:92C7           FINIT_PROT
 0000:92CB           FREST_PROT
 0000:92CF           FVALID_HNDL
 0000:92D3           FCHECK_HFRMSAV
 0000:92D7           FXCHG_PTE
 0000:92DB           FPGMAP_COM
 0000:92F4           @QMAX_VMM_ECODE
 0000:92F4           SET_XMSBND
 0000:931F           SET_XMSBND_SUB
 0000:936F           ALLOCMEM
 0000:94E1           ALLOCMEM_SUB
 0000:95E3           DEALLOCMEM
 0000:9719           QRY_PGCNT
 0000:982F           XMS_XLAT
 0000:985B           SET_XMSBMAP
 0000:98E6           CLR_XMSBMAP
 0000:9971           XMS_MEMAVL
 0000:99A0           FXMS_MEMSPAN
 0000:99BF           XMS_MEMSPAN
 0000:9A10           @QMAX_PNP_ECODE
 0000:9A10           PNP_TO_VCPI
 0000:9A70           PNP_FR_VCPI
 0000:9AB0           @QMAX_DBG_DEBUG
 0000:9AB1           DD2HEX
 0000:9AC0           DW2HEX
 0000:9ACD           DB2HEX
 0000:9ADA           DN2HEX
 0000:9AEA           FDW2HEX
 0000:9AF0           LAVROM_BEG
 0000:9AF4           LAVROM_END
 0000:9AF8           PTE_VROM_BEG
 0000:9AFA           PTE_VROM_END
 0000:9AFC           PTE_VROM_SRC
 0000:9AFE           CFG_CNT
 0000:9B00           CFG_LCNT
 0000:9B02           INVALID_OK
 0000:9B04           BCF_CNT
 0000:9B06           BCF_SEG
 0000:9B08           MIVT_VEC
 0000:9B0E           BCF_BIOSSIZE
 0000:9B12           BCF_BASSIZE
 0000:9B14           BIOS_CRC64
 0000:9B16           BIOS_CRC128
 0000:9B18           FIX_FLAG
 0000:9B1C           DMA_BLK
 0000:9B20           DMA_PTR
 0000:9B40           DMA_LEN
 0000:9B60           DMA_MVD
 0000:9B80           DMA_PA
 0000:9B84           DMA_LA
 0000:9B88           DMA_D2M
 0000:9B8C           DMA_IADDR
 0000:9B94           DMA_ICNT
 0000:9B9C           DMA_FLIP
 0000:9BA4           DMA_MODE
 0000:9BAC           DMASIZE
 0000:9BAE           DMA_CHAN
 0000:9BB0           BASEPAGE_INV
 0000:9BB4           LAPL3STK
 0000:9BB8           GDTR_PNP
 0000:9BBA           LAGDTPNPARG
 0000:9BBE           SEL_PNPDS
 0000:9BC0           SEL_PNPARG0
 0000:9BC2           SEL_PNPARG1
 0000:9BC4           SEL_PNPARG2
 0000:9BC6           EMSPGCNT
 0000:9BC8           IDT_REBOOT
 0000:9BCE           DPMI_HWSP
 0000:9BEE           DPMI_HW
 0000:9C0E           DPMI_CPIHOOK
 0000:9C2E           DPMI_CPFHOOK
 0000:9C32           DPMI_PPIHOOK
 0000:9C52           DPMI_PVFHOOK
 0000:9C56           DPMI_CVFHOOK
 0000:9C5A           SUBSEG_INFO
 0000:9CD2           SUBSEG_PTR
 0000:9CD4           HARPO_FILESPEC
 0000:9D24           GETSETATTR_FNS
 0000:9D2A           GETSETNAME_FNS
 0000:9D2E           GETHDIR_FNS
 0000:9D34           GETPHYS_FNS
 0000:9D38           RAWALLOC_FNS
 0000:9D3C           GETSETPART_FNS
 0000:9D42           MULPGMAP_FNS
 0000:9D46           PGMAPJMP_FNS
 0000:9D4A           PGMAPCALL_FNS
 0000:9D50           XMOVEMEM_FNS
 0000:9D54           DESC_TAB
 0000:A41C           PRGBASE
 0000:A420           PAPRGBASE
 0000:A424           PAPRGBASE2
 0000:A428           LADIR2
 0000:A42C           PADIR2
 0000:A430           PDTDIR2
 0000:A434           LAOPTE
 0000:A438           PAOPTE1
 0000:A43C           OFFCR3
 0000:A440           PDBSIZE
 0000:A444           LAPDIREND
 0000:A448           LACR3
 0000:A44C           PPDTSHD
 0000:A450           GORSIZE
 0000:A454           WIN3_REF_DATA
 0000:A4EA           DMA_SWAP
 0000:A4EC           DMA_MAX
 0000:A4F0           INT07DP
 0000:A4F8           MSW_PM
 0000:A4FA           NMIPORT
 0000:A4FC           NMIENA
 0000:A4FD           NMIDIS
 0000:A4FE           NMIMASK
 0000:A4FF           FILES_STR_LEN
 0000:A500           CPUREV
 0000:A504           CM4_FLAG
 0000:A506           DSTK_CNT
 0000:A508           DSTK_ISIZ
 0000:A50A           DSTK_HWINTS
 0000:A52A           DSTK_FLAG
 0000:A52C           DPMICNT0D
 0000:A52E           INT0D_DPMIJMP
 0000:A530           GP_ACT
 0000:A730           FLG_GET_CRN
 0000:A731           FLG_GET_DRN
 0000:A732           FLG_GET_TRN
 0000:A733           FLG_SET_CRN
 0000:A734           FLG_SET_DRN
 0000:A735           FLG_SET_TRN
 0000:A736           CACHESIZE
 0000:A73C           OLDCR2
 0000:A740           CR2DATA
 0000:A750           CR2OFF
 0000:A752           CR2FLAG
 0000:A754           CR2INT01_IVEC
 0000:A75C           CR2_PTE
 0000:A760           DPMICNT0E
 0000:A762           OPCOD1
 0000:A862           OPCOD2
 0000:A964           LAST_BBMSRC
 0000:A968           LAST_BBMDST
 0000:A96C           LABBMSRC
 0000:A970           LABBMDST
 0000:A974           ASTMIO_LO
 0000:A978           ASTMIO_HI
 0000:A97C           CPQMIO_LO
 0000:A980           CPQMIO_HI
 0000:A984           OLD_SRC
 0000:A986           CPQMIO_HIGH
 0000:A987           EBIOS_CODE
 0000:A994           MSG_APPLNAME
 0000:A9E4           POVR_LIE
 0000:A9E6           PBAPPBASE
 0000:A9EA           CFGLIST
 0000:AA56           CFGLIST_XMEI
 0000:AAA0           I31_FLAG
 0000:AAA2           PDC_FLAG
 0000:AAA4           VM2PM_PSP
 0000:AAA6           VM2PM_DTAVEC
 0000:AAAA           VM2PM_TSS
 0000:AAAC           VM2PM_ERR
 0000:AAAE           DPM_FLAG
 0000:AAB0           EXITRC
 0000:AAB2           CPUTYPE
 0000:AAB3           DPMITYPE
 0000:AAB4           DPMI_CODE
 0000:AAB6           DPMI_DATA
 0000:AAB8           DPMI_IDEF
 0000:AABA           DPMI_CPL
 0000:AABB           DPMI_DPL
 0000:AABC           HPDASTK_SIZ
 0000:AABE           HPDABUF_SIZ
 0000:AAC0           HPDAVMC_CNT
 0000:AAC2           HPDASTK_OFF
 0000:AAC4           HPDASTK_TOP
 0000:AAC6           HPDABUF_OFF
 0000:AAC8           HPDAVMC_OFF
 0000:AACA           HPDA_NPAR
 0000:AACC           DPMIDYN_SIZ
 0000:AAD0           DPMIHNDL_CNT
 0000:AAD4           DPMIHNDL_SIZ
 0000:AAD8           DPMIPDIR_CNT
 0000:AADC           DPMIHNDL_OFF
 0000:AAE0           DPMIPDIR_OFF
 0000:AAE4           LADPMIPDIR
 0000:AAE8           LADPMIPDIRMEM
 0000:AAEC           DPMIOLDPM_SIZ
 0000:AAF0           LPMSTK_SEL
 0000:AAF4           DMADISCNT
 0000:AB14           PDDSBUF
 0000:AB18           I4B_FLAG
 0000:AB1C           PPHNDLFREE
 0000:AB20           PPHNDLVMS
 0000:AB24           MAXRPN
 0000:AB28           EHNDLCNT
 0000:AB2A           HMAP
 0000:AB6A           PRPNTAB
 0000:AB6E           PRPNCUR
 0000:AB72           HP_LAST
 0000:AB76           TOTPGCNT
 0000:AB78           REMPGCNT
 0000:AB7A           EMM_FNS
 0000:AB8C           EMM_FNS10
 0000:AB8E           EMM_FNS11
 0000:ABB6           EMM2_FNS
 0000:AC0C           LAST_EMSHNDL
 0000:AC0E           LOTUS_EMSHNDL
 0000:AC10           GETSET_FNS
 0000:AC18           EMMBUG
 0000:AC1C           LADSTK_TAB
 0000:AC20           PDSTKCOM
 0000:AC24           SAVE_EAX
 0000:AC28           SAVE_EFL
 0000:AC2C           LOWSTK_FVEC
 0000:AC32           LCL_SAVE_PTR
 0000:AC38           IDT_DESC
 0000:B438           IDT_TAB
 0000:B638           LCL_DTR
 0000:B63E           HARDCNT
 0000:B640           HEXTABLE
 0000:B650           LAST_INTCOM
 0000:B654           LAST_INTFLG
 0000:B658           VIDMODE
 0000:B65C           EPMTAB
 0000:B672           PGDT_VCP
 0000:B678           PIDT_VCP
 0000:B67E           PGDT_LHI
 0000:B684           PIDT_LHI
 0000:B68C           CON1KB
 0000:B690           CON4KB
 0000:B694           CON8KB
 0000:B698           CON16KB
 0000:B69C           CON64KB
 0000:B6A0           CON128KB
 0000:B6A4           CON256KB
 0000:B6A8           CON1MB
 0000:B6AC           CON10FFF0
 0000:B6B0           CON1P1MB
 0000:B6B4           CON4MB
 0000:B6B8           CON16MB
 0000:B6BC           CON4GB
 0000:B6C0           PVMTSS
 0000:B6C4           PCURTSS
 0000:B6C8           PPRMTSS
 0000:B6CC           PIOBIT
 0000:B6D0           EMS_START
 0000:B6D4           EMS_END
 0000:B6D8           MINBASE
 0000:B6DC           RSVBASE
 0000:B6E0           LOWBASE
 0000:B6E4           OVRBASE
 0000:B6E8           MAPBASE
 0000:B6EC           TOPBASE
 0000:B6F0           LMLBASE
 0000:B6F4           CNVBASE
 0000:B6F8           EXTBASE
 0000:B6FC           EMMBASE
 0000:B700           IGRBASE
 0000:B704           IGRSIZE
 0000:B708           PPDTFRM
 0000:B70C           PPDTFRMZ
 0000:B710           PPDTEMM
 0000:B714           PPDTEMMZ
 0000:B718           PPDTRSV
 0000:B71C           PPDTLOW
 0000:B720           PPDTOVR
 0000:B724           PPDTPRG
 0000:B728           PPDTMAP
 0000:B72C           PPDTLML
 0000:B730           PPDTCNV
 0000:B734           PPDTCNVZ
 0000:B738           PPDTBACK
 0000:B73C           PPDT1MB
 0000:B740           PPDT1P1MB
 0000:B744           PPDT1W1MB
 0000:B748           PPDTSCR
 0000:B74C           PPDTVID
 0000:B750           PPDTUNW
 0000:B754           PPDTUNWZ
 0000:B758           PPDTMISS
 0000:B75C           PPDTPDIR
 0000:B760           PPDTBBMSRC
 0000:B764           PPDTBBMDST
 0000:B768           PPDTPNPBIOS
 0000:B76C           PPDTPSM
 0000:B770           PPDTCVD
 0000:B774           UNWCNT
 0000:B776           PPDTDMA
 0000:B77A           PPDTDMAZ
 0000:B77E           PPDTD2M
 0000:B782           PPDTDMAP
 0000:B786           FRAME
 0000:B788           CONTEXTS
 0000:B78A           SEL_GDT
 0000:B78C           LAINDOS
 0000:B790           PCFGFILE
 0000:B794           PHYSIZE
 0000:B798           CPUFET_FLAG
 0000:B79C           OLDINT_VECS
 0000:B99C           VIDOFF
 0000:B9A0           LOWOFF
 0000:B9A4           LMLTOP
 0000:B9A8           HIMEM_CS
 0000:B9AA           MCSTAB_CNT
 0000:B9AC           MCSTAB
 0000:BACC           DOSVER
 0000:BACE           CPD_FLAG
 0000:BAD0           PCHECKER_INP
 0000:BAD4           PCHECKER_OUT
 0000:BAD8           CHECKER_LEN
 0000:BADA           IO_LIM_MASK
 0000:BADC           REP_FAC
 0000:BADE           FLIPFLOP1
 0000:BADF           FLIPFLOP2
 0000:BAE0           LAST64
 0000:BAE2           DMA_MAP
 0000:BAF2           DMA_REMAP
 0000:BAFC           DMA_PMR
 0000:BB0B           DMA_PMR_HI
 0000:BB1A           DMA_ACT
 0000:BB2A           DMA_ADDR
 0000:BB3A           DMA_CNT
 0000:BB5A           DMA_FLAG
 0000:BB62           CURS_DATA
 0000:BB6A           CRT_IND
 0000:BB6C           SHRT_DUR
 0000:BB6E           SHRT_FRQ
 0000:BB70           UNITS_DUR
 0000:BB72           UNITS_FRQ
 0000:BB74           FIVES_DUR
 0000:BB76           FIVES_FRQ
 0000:BB78           TENS_DUR
 0000:BB7A           TENS_FRQ
 0000:BB7C           FREQ
 0000:BB80           DIVISOR
 0000:BB84           LOADBYTE
 0000:BB88           LOADCOUNT
 0000:BB8A           LOADTABIND
 0000:BB8C           LOADTAB
 0000:BC4C           SWATCODE
 0000:BC52           SWATMSG
 0000:BC58           LCLMEM
 0000:BCD8           INCSIZE
 0000:BCDA           RPNCURSIZ
 0000:BCDC           NPHYS16F
 0000:BCDE           NPHYS16S
 0000:BCE0           NPHYSCNV
 0000:BCE2           NPHYSINC
 0000:BCE4           NPHYSSCR
 0000:BCE6           FLEXROM_LEN
 0000:BCE8           FLEXROM_TBL
 0000:BD24           FLEXROM_FLAG
 0000:BD26           VGA_ALTSEG1
 0000:BD28           VGA_ALTSEG2
 0000:BD2C           LCL28_VEC
 0000:BD30           ACCKEY
 0000:BD34           PMRS_PDT
 0000:BD38           EMM_FLAG
 0000:BD3A           MRS_MAX
 0000:BD3C           MRS_CUR
 0000:BD3E           AMRS_TAB
 0000:BE3D           GETXINFO_FNS
 0000:BE41           OSE_FNS
 0000:BE47           ALTMAPREG_FNS
 0000:BE5C           WRAPTAB
 0000:BE9C           WRAPWTK
 0000:BEDC           MISSPTE
 0000:BEE0           PTE_FLAG
 0000:BEE4           NBOARDS
 0000:BEE6           PORTPMR
 0000:BEE8           PORTPMRZ
 0000:BEEC           POSDATA
 0000:BF24           PWIN3_PAGE
 0000:BF28           PWIN3_PAGEZ
 0000:BF2C           PDTLEN
 0000:BF30           PDTVALID
 0000:BF34           PRGTAIL
 0000:BF38           PRGPDT
 0000:BF3C           PHNDLCNT
 0000:BF40           PHNDLNAME
 0000:BF44           PLINKBASE
 0000:BF48           PPAGELINK
 0000:BF4C           PBASEPAGE
 0000:BF50           BASEPAGE_LEN
 0000:BF54           PHNDLPAGE
 0000:BF58           PPHYS2SEG
 0000:BF5C           PSEG2PHYS
 0000:BF60           PHFRMSAV
 0000:BF64           HFRMLEN
 0000:BF68           HFRMSIZE
 0000:BF6C           PPL0STK_INI
 0000:BF70           PPL0STK_ERR
 0000:BF74           PPL0STK_NRM
 0000:BF78           PPL0STK_MIN
 0000:BF7C           PPL0STK_MAX
 0000:BF80           PPL0STK_MAP
 0000:BF84           PPL0STK_DERR
 0000:BF88           PPL0STK_DNRM
 0000:BF8C           LASIRBCUR
 0000:BF90           NSTACKS
 0000:BF92           PSMSIZE
 0000:BF94           PSMWIN
 0000:BF96           PSMSEG
 0000:BF98           HMASIZE
 0000:BF9C           CMPSIZE
 0000:BFA0           CMPSIZEXT
 0000:BFA4           CMPSIZEMM
 0000:BFA8           PRVSIZE
 0000:BFAC           EXFSIZE
 0000:BFB0           PVDSTAB
 0000:BFB4           VDSTAB_LEN
 0000:BFB8           FGRBASE
 0000:BFBC           FGRSIZE
 0000:BFC0           JGRBASE
 0000:BFC4           JGRSIZE
 0000:BFC8           JGRDSIZE
 0000:BFCC           MSG_STAT
 0000:C21F           MSG_EAVL
 0000:C288           MSG1
 0000:C2D0           SWAP_SRC
 0000:C2D4           SWAP_SRC2
 0000:C2D8           PAMAX
 0000:C2DC           A20SUP
 0000:C2DE           LOFFCPQSTR
 0000:C2E0           SHDCNT
 0000:C2E2           SHDIND
 0000:C2E4           SHDTAB
 0000:C320           SCRBCNT
 0000:C322           SCRBIND
 0000:C324           SCRBTAB
 0000:C360           PPMTAB
 0000:C3A0           MAPTAB_CNT
 0000:C3A2           MAPTAB_IND
 0000:C3A4           MAPTAB
 0000:C464           MAPSEG_NXT
 0000:C466           CACHEMASK
 0000:C46C           VCPIMAX
 0000:C470           VCPITOP
 0000:C474           VCPIBASE
 0000:C478           QMAX_PDE
 0000:C47C           PHAR_PDE
 0000:C480           LAST_CR3
 0000:C484           LASTLINK
 0000:C486           NEWIMR1
 0000:C488           NEWIMR2
 0000:C48A           LAST_ESP
 0000:C48E           OLDVCPSTK_FVEC
 0000:C494           NEWVCPSTK_FVEC
 0000:C49A           VCPI_FNS
 0000:C4B4           OLDVCPI_FNS
 0000:C4C8           PIOTRAP
 0000:C4CC           IOTRAP_TYP
 0000:C4D0           LACVD
 0000:C4D4           A20CNT
 0000:C4D8           PXMSBASE
 0000:C4DC           PXMSSIZE
 0000:C4E0           PXMSHNDL
 0000:C4E4           PXMSLOCK
 0000:C4E8           SEL_DATA
 0000:C4EA           SEL_DS3
 0000:C4EC           SEL_4GB
 0000:C4EE           SEL_4GB3
 0000:C4F0           SEL_PDT
 0000:C4F2           SEL_DSHI
 0000:C4F4           SEL_DSFG3
 0000:C4F6           SEL_DSIG3
 0000:C4F8           SEL_DSJG3
 0000:C4FA           HMAMIN
 0000:C4FC           XMSNHNDL
 0000:C4FE           XHNDLCNT
 0000:C500           XMS_FNS
 0000:C526           XMS2_FNS
 0000:C538           VXD_LEVEL
 0000:C53C           OLDDTA_VEC
 0000:C540           VMCREGS
 0000:C574           SAVE_EBP
 0000:C578           SAVE_EBX
 0000:C57C           SAVE_ES
 0000:C580           LPMSTK_CNT
 0000:C584           LPMSTK_SIZ
 0000:C588           LPMSTK_FVEC
 0000:C58E           DPMIMSG
 0000:C590           LAST_DPMI_DS
 0000:C592           LAST_DPMI_ES
 0000:C594           LAST_DPMI_FS
 0000:C596           LAST_DPMI_GS
 0000:C598           NEXT_DPMI_DS
 0000:C59A           NEXT_DPMI_ES
 0000:C59C           NEXT_DPMI_FS
 0000:C59E           NEXT_DPMI_GS
 0000:C5A0           FLT_FLAG
 0000:C5A2           INT23_TYP
 0000:C5A3           INT24_TYP
 0000:C5A4           PDPMILDT
 0000:C5A8           LDT_SIZ
 0000:C5AC           XLDT_SIZ
 0000:C5B0           OLD_PCURTSS
 0000:C5B4           DPMI_STKFLG
 0000:C5B8           HOSTIDSTRING
 0000:C5C0           HPDA_IXXRET
 0000:C5C4           BSAGECLOCK
 0000:C5C6           BSAGEMAX
 0000:C5C8           DOSX_SELGDT
 0000:C5CA           DOSX_SEL4GB
 0000:C5CC           DOSX_SELCS
 0000:C5CE           DOSX_SELDS
 0000:C5D0           DOSX_FLAG
 0000:C5D1           KERNEL_MODEL
 0000:C5F0           WIN3_IMPORT_VENDOR
 0000:C604           WIN3_IMPORT_PRODUCT
 0000:C618           PWIN3_CB
 0000:C61C           PWIN3_STARTUP
 0000:C620           PUMB_INST
 0000:C624           OLD_DUM67_VEC
 0000:C628           NEW_DUM67_VEC
 0000:C62C           HIGHDOS_MAP
 0000:C64C           POVR_MAC_SQZ
 0000:C64E           NOSWAP_CNT
 0000:C650           OLDHDM
 0000:C651           OVR_FLAG
 0000:C658           VMM_FLAG
 0000:C65A           PAGEFAULTACTIVE
 0000:C65C           ALLOC_LIM
 0000:C670           PXMSBMAP
 0000:C674           XMSBMAP_LEN
 0000:C678           XMSBND_BRKPNT
 0000:C67C           PSHMEMHANDLES
 0000:C680           SHMEMHANDLESIZE
 0000:C684           BLOCKEDHANDLE
 0000:C688           BLOCKEDCLIENT
 0000:C68A           BLOCKEDSTATUS
 0000:C68B           BLOCKEDTYPE
 0000:C68C           TSRSIZE
 0000:C690           OFFPNP_RMVEC
 0000:C694           OFFPNP_PMCS
 0000:C698           OFFPNP_PMOFF
 0000:C69C           LAPNP_BIOS
 0000:C6A0           LAPNP_PMCS
 0000:C6A4           LAPNP_PMDS
 0000:C6A8           PNP_VCPI_DIFF
 0000:C6AC           PNP_VEC
 0000:C6B0           PNP_SEG
 0000:C6B2           PNP_DATA
 0000:C6B4           DPMI_VAL
 0000:C880           @QMAX_BCF_NCODE
 0000:C880           INIT_MIVT
 0000:C880           ZLDATA
 0000:CA7B           @QMAX_EVM_NCODE
 0000:CA7B           DISP_CPDMSG_PM
 0000:CCF3           GETIRR
 0000:CD00           ROUND_SCRDN_PM
 0000:CD28           ENTERPM
 0000:CEE1           ENTERPM2
 0000:D3D4           FARPTR_LO
 0000:D438           HOIST_GROUP
 0000:D499           EPM
 0000:D4E8           FILL_PDT
 0000:D5FE           FILL_PDT_SUB
 0000:D613           SET_PHYS
 0000:D730           SWAP_LML
 0000:D807           SWAP_DMA
 0000:D8F7           SWAP_DMA_LOW
 0000:D930           SWAP_DMA_HIGH
 0000:D993           SWAP_DMA_SUB
 0000:D9C7           CHECK_DMA_BOUNDARY
 0000:DA22           SWAP_MAPBASE
 0000:DAAE           FILL_LOWBASE
 0000:DB0F           FILL_SEG
 0000:DB36           FILL_PHYS2SEG
 0000:DB6E           FILL_SEG2PHYS
 0000:DBC7           FILL_OVRBASE
 0000:DCEB           FILL_VGASWAP
 0000:DD7B           FILL_MAPBASE
 0000:DDF0           FILL_WRAPTAB
 0000:DE39           FILL_PDTCNV
 0000:DE64           FILL_PDTSCR
 0000:DE9B           FILL_PDTPNPBIOS
 0000:DFA9           FILL_PDIR
 0000:DFF6           SWAP_PRG
 0000:E022           INT15PROT
 0000:E10D           RELOC_DTE
 0000:E145           RELOC_GDT
 0000:E165           DISABLE_IMR
 0000:E194           COPY_CFG
 0000:E203           COPY_VDS
 0000:E237           FLEXROM_RELOC
 0000:E395           IZIT_SHDROM
 0000:E3B2           INIT_DPMITAB
 0000:E4B3           SET_SIRBCUR
 0000:E52F           INIT_SIRBCUR
 0000:E57F           @QMAX_FCN_NCODE
 0000:E57F           CHECK_CHIPSET
 0000:E614           FOUTCMOS
 0000:E618           LCL_INT03
 0000:E61A           @QMAX_INI_NCODE
 0000:E61A           INIT
 0000:E61F           INIT2
 0000:E624           DEV_STR2
 0000:E629           @QMAX_IOP_NCODE
 0000:E629           SETIOPERM
 0000:E951           SETIOBIT
 0000:E9A1           @QMAX_LOD_NCODE
 0000:E9A1           FILELOAD
 0000:EA8B           CHECK_SWAT
 0000:EAC4           INIT_SWAT
 0000:EB08           SET_COMMON
 0000:EB2A           SWATINI
 0000:EBD2           SET_TGDT
 0000:EC26           @QMAX_MEM_NCODE
 0000:EC26           CHECK_RAM
 0000:EC81           @QMAX_SCR_NCODE
 0000:EC81           DISP_COLOR
 0000:ED24           WRITE_BLANK
 0000:ED37           @QMAX_STA_NCODE
 0000:ED38           FDISP_COLOR
 0000:ED45           FBIN2BASE
 0000:ED49           @QMAX_SYS_NCODE
 0000:ED49           OLI_RESET
 0000:ED90           INIT_CHIPSET
 0000:EDDE           YMSGOUT
 0000:EDF7           @QMAX_TIM_NCODE
 0000:EDF7           NRCACHE_INVD
 0000:EE46           SAVE_CACHEPM
 0000:EE68           REST_CACHEPM
 0000:EE96           TIME_ALLMEM
 0000:F1E5           CACHE_PNP
 0000:F2F4           TMPINT15
 0000:F32E           SCRUB_SHADOW
 0000:F418           TIDTPROC
 0000:F418           TINTPROC0
 0000:F41E           TINTPROC1
 0000:F424           TINTPROC2
 0000:F42A           TINTPROC3
 0000:F430           TINTPROC4
 0000:F436           TINTPROC5
 0000:F43C           TINTPROC6
 0000:F442           TINTPROC7
 0000:F448           TINTPROC8
 0000:F44E           TINTPROC9
 0000:F454           TINTPROC10
 0000:F45A           TINTPROC11
 0000:F460           TINTPROC12
 0000:F466           TINTPROC13
 0000:F46C           TINTPROC14
 0000:F490           CFG_SEG
 0000:F492           CFG_LNXT
 0000:F494           FLEXFILE_CNT
 0000:F496           FLEXFILE_SEG
 0000:F498           FLEXFILE_VEC
 0000:F49C           FLEXFILE
 0000:F4A5           SEPARATOR
 0000:F4A8           XAM863
 0000:F4AC           SAVE_ESP
 0000:F4B0           PICBASE
 0000:F4B2           MAXMOVE
 0000:F4B4           PGDT_PHI
 0000:F4BA           PIDT_PHI
 0000:F4C0           PIDT_LLO
 0000:F4C6           CPDOFF
 0000:F4CA           CPDCNT
 0000:F4CC           CPDREGTAB
 0000:F4DC           EXEC_BLK
 0000:F4E0           READ_CNT
 0000:F4E2           READ_SEG
 0000:F4E4           PROF_CNT
 0000:F4E6           PROF_SEG
 0000:F4E8           LALO
 0000:F4EC           MOVE_TAB
 0000:F51C           TDESC_TAB
 0000:F57C           ERR_CODE_ADDR
 0000:F580           ERR_CODE_VAL
 0000:F582           ERR_CODE
 0000:F583           ERR_FLAG
 0000:F584           NRD_FLAG
 0000:F588           OLDXMS_VEC
 0000:F58C           NEWXMS_VEC
 0000:F590           OLDSTK_VEC
 0000:F594           ENDADDR
 0000:F596           LSEG_OFF
 0000:F598           HI_ENDADDR
 0000:F59A           XHI_ENDADDR
 0000:F59C           VDSTAB_SEG
 0000:F59E           CTL387
 0000:F5A0           PRGREG
 0000:F5A2           CMDCOM_VER
 0000:F5B6           CMDCOM_SIZ
 0000:F5CC           PGRSEG
 0000:F5CE           PZLOCODE
 0000:F5D0           IOWRAP
 0000:F5D4           DROMSIGN
 0000:F5D8           LASTCHAR
 0000:F5DC           LAEMM_IMPORT_PTR
 0000:F5E0           REMSIZE
 0000:F5E4           PUTSIZE
 0000:F5E8           MEM_MAP
 0000:FDE8           XLAT_MAP
 0000:FDF7           XLAT_FLAG
 0000:FE08           DRVPATH_END
 0000:FE0A           UCSYSROM_START
 0000:FE0E           FNAM_INBRDPC
 0000:FE17           FNAM_INBRDAT
 0000:FE20           MACHID
 0000:FE24           OLDTMPINT15_VEC
 0000:FE28           TOP_GDT
 0000:FE58           TOP_MIO
 0000:FE5A           MEMTIME_LO
 0000:FE5C           MEMTIME_MD
 0000:FE5E           MEMTIME_HI
 0000:FE60           MEMTIME
 0000:FE62           TIDT_DESC
 0000:FEDA           DMA_STR0
 0000:FEE2           DMA_STR1
 0000:FEEB           DMA_STR2
 0000:FEEE           CACHESZ_RM
 0FEF:0000           FIXUP_LAST_CS2
 0FEF:0002           FIXUP_LAST_CSIG
 0FEF:0004           FIXUP_LAST_CSJG
 0FEF:0010           FIXTAB_PGROUP
 0FEF:00E4           FIXTABZP
 0FEF:00E4           FIXTAB_IGROUP
 0000:FFFE      Abs  @RPN_IDENT
 0000:FFFF      Abs  @RPN_UNMAP
 0000:00010000  Abs  $$OUTIW
 0FEF:0224           FIXTABZI
 0FEF:0224           FIXTAB_JGROUP
 0FEF:035C           FIXTABZ
 0FEF:035C           FIXTABZJ
 0FEF:035C           INT0E_DMAFULL
 0FEF:036C           INT0DMSG_VM
 0FEF:037B           INT0DMSG_NF
 0FEF:038C           INT0EMSG
 0FEF:0398           MAXINT_VECS
 0FEF:0798           LOTUS_SIGN
 0FEF:07C9           INT01MSG
 0FEF:07DA           INT03MSG
 0FEF:07EC           INT06MSG
 0FEF:07FE           INT08MSG
 0FEF:080B           INT0AMSG
 0FEF:081D           INT0BMSG
 0FEF:0831           INT0CMSG
 0FEF:083D           INT11MSG
 0FEF:084D           INT12MSG
 0FEF:085C           MSG_L01
 0FEF:086F           MSG_L03
 0FEF:0887           MSG_L06
 0FEF:089A           MSG_L08
 0FEF:08AA           MSG_L0D
 0FEF:08C4           MSG_DMAPAGE
 0FEF:08D6           MSG_PNP
 0FEF:08F0           MSG_SUP
 0FEF:0907           MSG_ROM
 0FEF:0923           MSG_CRN
 0FEF:0938           MSG_CTRL
 0FEF:0946           MSG_WOUT
 0FEF:0963           MSG_PULSE
 0FEF:0980           MSG_286
 0FEF:0995           MSG_XTA20
 0FEF:09A6           MSG_SELF
 0FEF:09C0           MSG_REBOOT
 0FEF:09DD           MSG_ICTRL
 0FEF:09F3           MSG_P92
 0FEF:0A07           MSG_DMAFULL
 0FEF:0A45           MSG_L0A
 0FEF:0A5B           MSG_L0B
 0FEF:0A78           MSG_L0C
 0FEF:0A94           L0CNUM
 0FEF:0A94           MSG_LLA
 0FEF:0AAD           MSG_L11
 0FEF:0AC7           MSG_L12
 0FEF:0AF2           L12NUM
 0FEF:0AF2           MSG_NF
 0FEF:0B14           MSG_TITLE
 0FEF:0B66           MSG_TITL2
 0FEF:0BFF           MSG_TITL3
 0FEF:0CDB           MSG_TITL4
 0FEF:0D25           MSG_APPLUNK
 0FEF:0D30           MSG_TAIL
 0FEF:0DA6           MSG_LKEY
 0FEF:0DD2           MSG_LADR
 0FEF:0DD8           MSG_ADDRSEG
 0FEF:0DDC           MSG_ADDRSEP
 0FEF:0DDD           MSG_ADDROFF
 0FEF:0E06           MSG_DPMIADDR
 0FEF:0E0C           MSG_DPMIADDRSEL
 0FEF:0E10           MSG_DPMIADDRSEP
 0FEF:0E11           MSG_DPMIADDROFF
 0FEF:0E43           MSG_DPMIAPPLNAME
 0FEF:0E93           MSG_DPMIPRESS
 0FEF:0EB6           DPMIMSG_LOW
 0FEF:0EBA           DPMIMSG_APPLFULL
 0FEF:0ED0           DPMIMSG_LPMFULL
 0FEF:0EE5           DPMIMSG_VMFULL
 0FEF:0EF9           DPMIMSG00
 0FEF:0F0E           DPMIMSG01
 0FEF:0F22           DPMIMSG02
 0FEF:0F35           DPMIMSG03
 0FEF:0F4E           DPMIMSG04
 0FEF:0F62           DPMIMSG05
 0FEF:0F76           DPMIMSG06
 0FEF:0F8A           DPMIMSG07
 0FEF:0F9E           DPMIMSG08
 0FEF:0FAF           DPMIMSG09
 0FEF:0FC8           DPMIMSG0A
 0FEF:0FD6           DPMIMSG0B
 0FEF:0FEE           DPMIMSG0C
 0FEF:0FFE           DPMIMSG0D
 0FEF:100B           DPMIMSG0E
 0FEF:101A           DPMIMSG0F
 0FEF:1031           DPMIMSG10
 0FEF:1044           DPMIMSG11
 0FEF:1059           DPMIMSG12
 0FEF:1070           DPMIMSG13
 0FEF:1087           DPMIMSG14
 0FEF:109E           DPMIMSG15
 0FEF:10B5           DPMIMSG16
 0FEF:10CC           DPMIMSG17
 0FEF:10E3           DPMIMSG18
 0FEF:10FA           DPMIMSG19
 0FEF:1111           DPMIMSG1A
 0FEF:1128           DPMIMSG1B
 0FEF:113F           DPMIMSG1C
 0FEF:1156           DPMIMSG1D
 0FEF:116D           DPMIMSG1E
 0FEF:1184           DPMIMSG1F
 0FEF:119C           INT0E_DMAPAGE
 0FEF:11AC           MSG_FOXCOMPAT
 0FEF:11C9           MSG_RATIONAL1
 0FEF:11FA           MSG_RATIONAL2
 0FEF:1220           MSG_PHARLAP
 0FEF:1250           FDATA_NXT
 1114:0000           @QMAX_IDT_SCODE
 1114:0000           DSTK_OLDSTK
 1114:0000           SCODE_INI
 1114:0004           DSTK_TAB_NXTOFF
 1114:0008           DSTKCOM
 1114:0060           DSTK_TAB
 1114:0060           SCODE_END
 111A:0000           @QMAX_EM2_LCODE
 111A:0000           GETSELBASE
 111A:0058           @QMAX_I15_LCODE
 111A:0058           INT15
 111A:0079           INT15_HIMEM_CS
 111A:00B9           EMU_INT15
 111A:048E           CHKMOVE
 111A:04CE           CHECK_BBMFILL
 111A:0534           @QMAX_N31_LCODE
 111A:0534           INT68_4403
 111A:0650           ISEL_DSIG3
 111A:0652           ISEL_DS3
 111A:0654           ISEL_4GB3
 111A:0658           @QMAX_I31_ICODE
 111A:0658           INT31
 111A:0658           LCODE_NXT
 111A:0680           INT31_INTRETPM
 111A:06DC           INT31_ERR_MAC
 111A:06E5           INT31_ERR_MNF
 111A:06ED           INT31_ERR_NODMEM
 111A:06F5           INT31_ERR_NOFNS
 111A:06FD           INT31_ERR_INVSTATE
 111A:0705           INT31_ERR_REQCAN
 111A:070D           INT31_ERR_NOSEL
 111A:0715           INT31_ERR_NOMEM
 111A:071D           INT31_ERR_NOPHYSMEM
 111A:0725           INT31_ERR_NOVMC
 111A:072D           INT31_ERR_NOHNDL
 111A:0735           INT31_ERR_EXCLUSIVE
 111A:073D           INT31_ERR_SHARED
 111A:0745           INT31_ERR_INVVAL
 111A:074D           INT31_ERR_INVSEL
 111A:0755           INT31_ERR_INVHNDL
 111A:075D           INT31_ERR_INVVMC
 111A:0765           INT31_ERR_INVADDR
 111A:076B           INT31_ERR
 111A:0781           INT31_CLC
 111A:07A1           INT31A_HIMEM_CS
 111A:0DBF           INT31_VM2PM_RET
 111A:0E1A           INT31_VM2PM_RETOK
 111A:111A           DPMIFN_CHK22
 111A:117B           DPMIFN_NEWLINE
 111A:1196           DPMIFN_LMSW
 111A:11E3           FDPMIFN_LMSW
 111A:11EF           DPMIFN_GETPSP
 111A:127F           DPMIFN_SETPSP
 111A:130F           DPMIFN_TERMINATE
 111A:13D0           @QMAX_D10_ICODE
 111A:13D0           INT10_DPMI
 111A:13ED           INT10_INTRETPM
 111A:1514           @QMAX_D15_ICODE
 111A:1514           INT15_DPMI
 111A:1531           INT15_INTRETPM
 111A:15DC           @QMAX_D21_ICODE
 111A:15DC           INT21_DPMI
 111A:15F9           INT21_INTRETPM
 111A:163C           INT21_DPMI_STROUT
 111A:169F           INT21_DPMI_STROUT_TAIL
 111A:16C5           INT21_DPMI_BKEYIN
 111A:16DA           INT21_DPMI_CKEYIN
 111A:1715           INT21_DPMI_DELEF
 111A:1715           INT21_DPMI_SRCH1
 111A:172E           INT21_DPMI_SETDTA
 111A:175C           INT21_DPMI_SETINT
 111A:1786           INT21_DPMI_PARSF
 111A:17BD           INT21_DPMI_GETDTA
 111A:17EE           INT21_DPMI_GETINT
 111A:1825           INT21_DPMI_GSTCDI
 111A:1843           INT21_DPMI_FIND1
 111A:1843           INT21_DPMI_MKDIR
 111A:1843           INT21_DPMI_XOPCR2
 111A:184B           INT21_DPMI_TMPFIL
 111A:1857           INT21_DPMI_READF2
 111A:186B           INT21_DPMI_READF2_NEXT
 111A:18A5           INT21_DPMI_READF2_TAIL
 111A:18F5           INT21_DPMI_READF2_DONE
 111A:1917           INT21_DPMI_WRITF2
 111A:192B           INT21_DPMI_WRITF2_NEXT
 111A:1964           INT21_DPMI_WRITF2_TAIL
 111A:19BA           INT21_DPMI_IOCTL2
 111A:1AE8           INT21_DPMI_GETDIR
 111A:1AF4           INT21_DPMI_GETMEM
 111A:1C26           INT21_DPMI_RELMEM
 111A:1C81           INT21_DPMI_MODMEM
 111A:1E8A           INT21_DPMI_EXEC
 111A:1EB3           INT21_DPMI_EXITRC
 111A:1EE2           INT21_DPMI_BP2DPB
 111A:1F03           INT21_DPMI_RENMF2
 111A:1F0F           INT21_DPMI_FIXPTH
 111A:1F22           INT21_DPMI_GETXCD
 111A:1F30           INT21_DPMI_GSTSER
 111A:1F48           INT21_DPMI_ERRXMEM
 111A:1F6A           INT21_DPMI_EXIT
 111A:1F80           INT21_DPMI_UNSUP
 111A:1F87           DPMIFN_GETDTA
 111A:1FDF           DPMIFN_SETDTA
 111A:2049           DPMIFN_DTA2EXT
 111A:2095           DPMIFN_EXT2DTA
 111A:20E1           EGP2VMCREGS
 111A:2164           VMCREGS2EGP
 111A:21BD           SAVE_VMCREGS
 111A:21F0           REST_VMCREGS
 111A:221C           DOSFN_SAVE_INTXXREG
 111A:223B           DOSFN_COPY_INTXXREG
 111A:2255           DOSFN_REST_INTXXREG
 111A:2265           DOSFN_SAVE_INTXXREGWORD
 111A:2274           DOSFN_REST_INTXXREGWORD
 111A:2283           DOSFN_RELREG
 111A:22D0           DOSFN_SAVE_VMCREGS
 111A:22DA           DOSFN_REST_VMCREGS
 111A:22E4           DOSFN_GETBUF
 111A:2387           DOSFN_RELBUF
 111A:23B2           DOSFN_EXT2LOW
 111A:2415           DOSFN_SIMVMI
 111A:2444           DOSFN_LOW2EXT
 111A:24D8           DOSFN_SEG2SEL
 111A:252D           DOSFN_SEL2SEG
 111A:254A           DOSFN_IF32ZX
 111A:2563           DOSFN_ASCIIZ_LEN
 111A:25A4           DOSFN_GETDTA
 111A:2601           DOSFN_RELDTA
 111A:2648           DOSFN_JMP
 111A:2650           DOSFN_EXEC_SAVEENV
 111A:26AC           DOSFN_EXEC_RESTENV
 111A:26D4           DOSFN_EXEC_LEFIX
 111A:286E           DOSFN_EXEC_LETERM
 111A:28A8           DOSFN_CHKRNG
 111A:28FE           DOSFN_GETMEM
 111A:295C           DOSFN_RELMEM
 111A:29BC           @QMAX_D33_ICODE
 111A:29BC           INT33_DPMI
 111A:29D9           INT33_INTRETPM
 111A:2A23           INT33_DPMI_SETSHAPE
 111A:2A2D           INT33_DPMI_HOOKMEI
 111A:2A64           INT33_DPMI_SWAPINT
 111A:2AE2           INT33_DPMI_SWAPINT_EXIT
 111A:2B1B           INT33_DPMI_GETSSRSIZE_EXIT
 111A:2B33           INT33_DPMI_SAVESTATE
 111A:2B49           INT33_DPMI_RESTSTATE
 111A:2B5D           INT33_DPMI_EXIT
 111A:2B73           DPMI_PDBI
 111A:2B7B           DPMI_MEI
 111A:2D41           DPMI_MEI_LPMFULL
 111A:2D75           DPMI_MEIRET
 111A:2DF1           DPMIFN_RESTMEI
 111A:2E0D           INT33_DPMI_RESTMEI
 111A:2E39           INT33_DPMI_RESTMEI_EXIT
 111A:2E3C           @QMAX_DIF_ICODE
 111A:2E3C           PMINT_JMP
 111A:333C           PMFLT_JMP
 111A:33DC           PMIDEF
 111A:36AF           INTFB
 111A:3718           INTFC
 111A:3737           DPMI_FLTRET
 111A:3AC4           DPMIFLT_CHGRET
 111A:3ADC           INTFD
 111A:3AFB           DPMI_INTRET
 111A:3ECE           DPMIFN_I24XLAT
 111A:3EF0           FLTPROC
 111A:3EF0           FLTPROC_APPL
 111A:3F07           FLTPROC00
 111A:3F11           FLTPROC01
 111A:3F1B           FLTPROC02
 111A:3F25           FLTPROC03
 111A:3F2F           FLTPROC04
 111A:3F39           FLTPROC05
 111A:3F43           FLTPROC07
 111A:3F6B           FLTPROC_VMFULL
 111A:3F75           FLTPROC_LPMFULL
 111A:3F7F           FLTPROC_APPLFULL
 111A:3F89           FLTPROC06
 111A:3F93           FLTPROC08
 111A:3F9D           FLTPROC09
 111A:3FA7           FLTPROC0A
 111A:3FB1           FLTPROC0B
 111A:3FBB           FLTPROC0C
 111A:3FC5           FLTPROC0D
 111A:3FCF           FLTPROC0E
 111A:3FD9           FLTPROC0F
 111A:3FE3           FLTPROC10
 111A:3FED           FLTPROC11
 111A:3FF7           FLTPROC12
 111A:4001           FLTPROC13
 111A:400B           FLTPROC14
 111A:4015           FLTPROC15
 111A:401F           FLTPROC16
 111A:4029           FLTPROC17
 111A:4033           FLTPROC18
 111A:403D           FLTPROC19
 111A:4047           FLTPROC1A
 111A:4051           FLTPROC1B
 111A:405B           FLTPROC1C
 111A:4065           FLTPROC1D
 111A:406F           FLTPROC1E
 111A:4079           FLTPROC1F
 111A:4086           FLTPROC_ABORT
 111A:412F           FLTPROC_SWAT
 111A:4151           FLTPROC_STRIP
 111A:4228           VMFLTCOM
 111A:4255           PMFLTCOM
 111A:448C           PMFLTCOM_LPMFULL
 111A:460A           PMINTCOM
 111A:4836           PMINTCOM_APPLFULL
 111A:483E           PMINTCOM_LPMFULL
 111A:4AD4           DPMIFN_CHK24
 111A:4B51           DPMI_REFINT
 111A:4CFC           DPMI_REFRET
 111A:4DFC           DPMI_COM_IRETD
 111A:4E08           @QMAX_J31_ICODE
 111A:4E08           FDPMIFN_CHKACCESS
 111A:4E0C           DPMIFN_CHKACCESS
 111A:4E3F           DPMIFN_CHKSEGLM1
 111A:4E4D           DPMI_GETLDT
 111A:4E64           DPMI_RELLDT
 111A:4E7D           DPMI_SEG2SEL
 111A:4EAC           DPMI_NXTSEL
 111A:4EB5           DPMI_GSELBAS
 111A:4ED8           DPMI_SSELBAS
 111A:4F00           DPMI_SSELLIM
 111A:4F69           DPMI_SSELARW
 111A:4FC8           DPMI_GETALIAS
 111A:5030           DPMI_GETLDTE
 111A:5087           DPMI_SETLDTE
 111A:5105           DPMI_GETRLDT
 111A:513C           DPMI_GETMLDTE
 111A:51AD           DPMI_SETMLDTE
 111A:524C           DPMIFN_SETMLDT
 111A:5285           DPMI_GETDMEM
 111A:5396           DPMI_RELDMEM
 111A:5430           DPMIFN_FINDMAC
 111A:546B           DPMIFN_TESTSEL
 111A:547E           DPMIFN_ALLOCSEL
 111A:5486           DPMIFN_FREESEL
 111A:54BF           DPMIFN_SELFCN
 111A:552E           DPMI_MODDMEM
 111A:5688           @QMAX_K31_ICODE
 111A:5688           DPMI_GETVMIV
 111A:56AB           DPMI_SETVMIV
 111A:5723           DPMI_GETPEHV
 111A:5779           DPMIFN_CHKSEL
 111A:57C8           DPMI_SETPEHV
 111A:582D           DPMI_GETPMIV
 111A:587D           DPMI_SETPMIV
 111A:5922           DPMI_GETEVMPEHV
 111A:5978           DPMI_SETEVMPEHV
 111A:59FA           DPMIFN_CLRINT
 111A:5A56           DPMI_SIMVMI
 111A:5A93           DPMI_SIMVMI_COM
 111A:5CFB           DPMI_SIMRET
 111A:5DE8           DPMI_VMCB
 111A:5F68           DPMI_RMSVM2PM
 111A:6037           DPMI_SIMVMRET
 111A:6085           DPMI_VMCRET
 111A:61B5           DPMIFN_NESTOUT
 111A:61F0           DPMIFN_NESTRET
 111A:623E           DPMIFN_INTXX2VMC
 111A:62E2           DPMI_SIMVMCFR
 111A:6300           DPMI_SIMVMCIR
 111A:633D           DPMI_GETVMCB
 111A:63EC           DPMI_RELVMCB
 111A:6447           DPMI_GETSSR
 111A:648A           DPMI_GETRMS
 111A:64BC           DPMI_RMSPM2VM
 111A:6550           DPMIFN_SWITCHADDR
 111A:65A8           @QMAX_L31_ICODE
 111A:65A8           DPMI_GETVER
 111A:65DD           DPMI_GETCAP
 111A:6630           DPMI_GETFMI
 111A:671F           DPMIFN_GROWMEMHNDL
 111A:67F6           DPMI_GETMEM
 111A:68A5           DPMI_RELMEM
 111A:6902           DPMI_MODMEM
 111A:6977           DPMIFN_MODMEM
 111A:6A90           DPMI_GETLMB
 111A:6B46           DPMI_MODLMB
 111A:6C64           DPMI_GPGATTR
 111A:6CD8           DPMI_SPGATTR
 111A:6D5B           DPMI_MAPDEV
 111A:6DC9           DPMI_MAPCONV
 111A:6E52           DPMI_GETMBLKSZ
 111A:6EA8           DPMI_GETMEMI
 111A:6F70           DPMI_LOCKLINREG
 111A:6F92           DPMI_UNLKLINREG
 111A:6FB4           DPMI_PAGEVM
 111A:6FB7           DPMI_RLCKVM
 111A:6FBA           DPMI_GETPAGESIZ
 111A:6FC9           DPMI_PGSELUNLK
 111A:7005           DPMI_PGSELFREE
 111A:705A           DPMI_PGUNLK
 111A:707B           DPMI_PGFREE
 111A:70CE           DPMI_GETP2L
 111A:7139           DPMI_RELP2L
 111A:714F           DPMI_INTCLI
 111A:71CA           DPMI_INTSTI
 111A:71D8           DPMI_GETIF
 111A:71E6           DPMIFN_CHKVSAPI
 111A:7261           DPMI_VSAPI
 111A:728D           DPMI_DBGSET
 111A:7376           DPMI_DBGCLR
 111A:73C0           DPMI_DBGQRY
 111A:73DF           DPMI_DBGRST
 111A:73F7           DPMI_INT01
 111A:7470           DPMI_TSRSRV
 111A:7480           DPMI_TSRXIT
 111A:7485           DPMI_GETSHR
 111A:7495           DPMI_RELSHR
 111A:74A5           DPMI_SERIALIZE
 111A:74B5           DPMI_RELSERIAL
 111A:74C5           DPMI_EMUGET
 111A:751F           DPMI_EMUSET
 111A:758F           DPMIFN_VMADDR
 111A:75C6           DPMI_LOCKSEG
 111A:7620           @QMAX_M31_ICODE
 111A:7620           DPMIFN_ZEROSEL
 111A:7686           FDPMIFN_BITMAP_SIZ
 111A:768A           DPMIFN_BITMAP_SIZ
 111A:769E           FDPMIFN_XLDT_SIZ
 111A:76A2           DPMIFN_XLDT_SIZ
 111A:76B7           DPMIFN_GROWLDT
 111A:7858           GET_LDT
 111A:7932           FGET_LDT
 111A:7947           GETSET_LDTVAR
 111A:797A           GETSET_LDTFIX
 111A:7A6F           CLR_LDT
 111A:7AE0           CLR_LDTZERO
 111A:7B03           GETLBASE
 111A:7B42           FGETLBASE
 111A:7B4D           VALID_LSEL
 111A:7C33           SETLBASE
 111A:7CB7           DPMIFN_GETDYN
 111A:7DC4           DPMIFN_VSAPI
 111A:7E0E           DPMIFN_DTECACHE
 111A:7E83           DPMIFN_LPMSTK
 111A:7ED5           FDPMIFN_LPMSTK
 111A:7EE1           DPMIFN_ESPMOD
 111A:7F2C           @QMAX_N31_ICODE
 111A:7F2C           INT00
 111A:8020           INT04
 111A:805A           INT05
 111A:8094           INT11
 111A:8107           INT1C
 111A:8128           INT20
 111A:8153           INT20_INTRETPM
 111A:8155           INT22DEF
 111A:81B0           INT23
 111A:81C6           INT23DEF
 111A:81F0           INT23_INTRETPM
 111A:8270           INT24
 111A:8282           INT24DEF
 111A:82CC           INT24_INTRETPM
 111A:830F           INT25
 111A:833A           INT25_INTRETPM
 111A:836A           INT26
 111A:8395           INT26_INTRETPM
 111A:8397           INT27
 111A:83C2           INT27_INTRETPM
 111A:83C4           INT33
 111A:83D5           INT41
 111A:8400           INT41_INTRETPM
 111A:8402           INT68
 111A:8455           INT68_INTRETPM
 111A:8458           @QMAX_BSM_ICODE
 111A:8458           BSM_INIT
 111A:857B           BSM_GROWSWAP
 111A:85E8           BSM_OPEN
 111A:8608           BSM_CREATE
 111A:862B           BSM_CLOSE
 111A:8652           BSM_INIT_CLIENT
 111A:8708           BSM_ALLOC
 111A:8765           BSM_FREE
 111A:8797           BSM_QUERY
 111A:87A4           BSM_GROW
 111A:880B           BSM_GET_CACHE_ENTRY
 111A:8829           BSM_PUTPAGE
 111A:887B           BSM_GETPAGE
 111A:88BD           BSM_PAGE_IO
 111A:8A06           BSM_READ_PAGE
 111A:8A0D           BSM_WRITE_PAGE
 111A:8A14           BSM_FLUSH_CACHE
 111A:8A49           BSM_INVALIDATE_CACHE_ENTRY
 111A:8A74           BSM_GROW_MAP
 111A:8AAD           BSM_TERMINATE_CLIENT
 111A:8ADE           BSM_SHUTDOWN
 111A:8B45           BSM_SAVE_HPDA_BUF
 111A:8C1A           BSM_RESTORE_HPDA_BUF
 111A:8CB0           @QMAX_LSM_ICODE
 111A:8CB0           LSM_INIT
 111A:8D28           LSM_INIT_CLIENT
 111A:8E5C           FLSM_ALLOC
 111A:8E60           LSM_ALLOC
 111A:9148           LSM_FREE
 111A:91EA           LSM_QUERY
 111A:9219           LSM_ALLOC_FREE_NODE
 111A:9251           LSM_GROW_FREE_NODE_ARRAY
 111A:9283           LSM_NEW_PAGE_TABLE
 111A:92F1           LSM_MAP_PAGE
 111A:935F           LSM_MERGE_FREE_LIST
 111A:93C7           LSM_FILL_PT
 111A:93F7           FLSM_SETN_PTES
 111A:93FB           LSM_SETN_PTES
 111A:9502           LSM_GET_SHARED_LIST
 111A:950B           LSM_GET_CLIENT_LIST
 111A:9520           LSM_RELEASE_NODE_ARRAY
 111A:956A           LSM_EXPAND_UNCOMPDE
 111A:9591           LSM_SET_PDE
 111A:9640           @QMAX_PPM_ICODE
 111A:9640           PPM_GET_PAGE_RECORD
 111A:967F           PPM_SETPHYSMU
 111A:96A7           PPM_INIT
 111A:97BF           PPM_ALLOC
 111A:9847           PPM_FREE
 111A:98A6           PPM_QUERY
 111A:98C3           PPM_QUERY_SWAPPABLE
 111A:98D8           PPM_DRAIN_POOL
 111A:9A11           PPM_FILL_POOL
 111A:9B01           PPM_LOCK
 111A:9B3F           PPM_UNLOCK
 111A:9B70           PPM_SET_PAGE_OWNER
 111A:9B8D           PPM_SET_PAGE_ADDRESS
 111A:9BB1           PPM_AGE_PAGES
 111A:9C81           PPM_GET_LOWADDR
 111A:9C96           PPM_SHUTDOWN
 111A:9D54           @QMAX_VME_ICODE
 111A:9D54           PAGE_SWITCH
 111A:9E1A           FVMM_INIT
 111A:9E25           VMM_INIT
 111A:9EEA           FVMM_INIT_CLIENT
 111A:9EF5           VMM_INIT_CLIENT
 111A:9F35           FVMM_ALLOC
 111A:9F40           VMM_ALLOC
 111A:A018           FVMM_FREE
 111A:A023           VMM_FREE
 111A:A0EF           FVMM_REALLOC
 111A:A10E           VMM_REALLOC
 111A:A2C3           FVMM_LOCK
 111A:A2CE           VMM_LOCK
 111A:A4E3           FVMM_UNLOCK
 111A:A4EE           VMM_UNLOCK
 111A:A641           FVMM_GET_ATTRIBUTES
 111A:A64C           VMM_GET_ATTRIBUTES
 111A:A705           FVMM_SET_ATTRIBUTES
 111A:A710           VMM_SET_ATTRIBUTES
 111A:A904           FVMM_MAP_PHYSICAL
 111A:A90F           VMM_MAP_PHYSICAL
 111A:AA91           VMM_PAGEFAULTHANDLER
 111A:AC1B           VMM_SWAP_OUT
 111A:AD55           VMM_GET_PHYSICAL_PAGE
 111A:AD8C           VMM_EXCHANGE_MAPPING
 111A:AE1A           VMM_UPDATE_PAGEINFO
 111A:AE77           VMM_GET_PTE_ADDRESS
 111A:AEF1           FVMM_ZERO_PAGE
 111A:AEF5           VMM_ZERO_PAGE
 111A:AF19           VMM_GET_CLIENT_INFO
 111A:AF40           VMM_TERMINATE_CLIENT
 111A:B064           VMM_SHUTDOWN
 111A:B0E3           VMM_QUERY
 111A:B13E           VMM_MARK_CANDIDATES
 111A:B1B9           VMM_DISCARD_PAGES
 111A:B282           VMM_RELOCATE_BLOCK
 111A:B456           FVMM_RELOCATE_BLOCK
 111A:B472           VMM_MAPP2L
 111A:B602           VMM_UNMAPP2L
 111A:B690           IMM2_DPMIPRES
 111A:B6DD           INT31B_HIMEM_CS
 111A:B6E2           IMM2_USEVCPI
 111A:B77A           IZIT_RATIONAL
 111A:B7FA           DPMIFN_INITVARS
 111A:B996           DPMIFN_DELINKTSS
 111A:B9D4           DPMIFN_PLNKTSS
 111A:B9F9           DPMIFN_FREE_VMOLDPM
 111A:BA3E           DPMIFN_INITLDT
 111A:BACB           DPMIFN_INITDPMIHNDL
 111A:BAF7           DPMIFN_FREELDT
 111A:BB49           DPMIFN_SAVEOLDPM
 111A:BEA3           CHECK_ENVCFG
 111A:C01B           DPMIFN_RESTWIN
 111A:C069           DPMIFN_SETRPL
 111A:C0CB           DPMIFN_FREEMEM
 111A:C180           DPMIFN_RESTDYN
 111A:C257           DPMIFN_RESTOLDPM
 111A:C48C           DPMIFN_FAULT
 111A:C5C8           DPMITYPEIG
 111A:C5CC           JMPTAB10
 111A:C6E8           JMPTAB15
 111A:C75C           JMPTAB21
 111A:CBF8           JMPTAB33
 111A:CCD0           DBGREGS
 111A:CCE0           DBGDR7
 111A:CCE4           DBGREGS_ACT
 111A:CCEC           VSAPI_MSDOS
 111A:CCF0           VSAPI_386MAX
 111A:CCF4           DBGCTL
 111A:CCF5           DBGSTA
 111A:CCF6           INTELCB
 111A:CD10           INT00NXT_FVEC
 111A:CD18           PBSCACHE
 111A:CD1C           BSMAP
 111A:CD20           BSMAPTOP
 111A:CD24           BSMAX
 111A:CD28           BSMIN
 111A:CD2C           BSINUSE
 111A:CD30           BSPATH
 111A:CD80           BSHIT
 111A:CD84           BSMISS
 111A:CD88           BSACTIVE
 111A:CD89           PAGEIOACTIVE
 111A:CD8A           LASTSWAPPSP
 111A:CD8C           LASTSWAPHANDLE
 111A:CD8E           BSFHDR
 111A:CD94           BSTOTAL
 111A:CD98           BSGTOTAL
 111A:CD9C           BSFTEMP
 111A:CDB8           LINEARBOTTOM
 111A:CDBC           LINEARCLIENTBOTTOM
 111A:CDC0           LINEARCLIENTTOP
 111A:CDC4           LINEARSYSTEMBREAK
 111A:CDC8           DEFAULTPDE
 111A:CDD1           PHYSICALLOCKED
 111A:CDD5           PHYSICALMINUNLOCKED
 111A:CDD9           PHYSICALFREELISTHEAD
 111A:CDDD           PHYSICALTOTAL
 111A:CDE1           PHYSICALMANAGED
 111A:CDE5           PHYSICALINUSE
 111A:CDE9           NREGIONS
 111A:CDEA           PHYSICALSWAPPABLE
 111A:CDEE           TOTALPPRSIZE
 111A:CDF2           PPRBASEADDRESS
 111A:CDF7           REGIONTABLE
 111A:CE58           VIRTUALRESERVED
 111A:CE5C           VMMCURRENTCLIENT
 111A:CE5E           VMMCURRENTTIME
 111A:CE60           PAGEDIRLA
 111A:CE64           VMMCLIENTCOUNT
 111A:CE68           PMINT_FVECS
 111A:D468           PMINT_DVECS
 111A:D868           PMFLT_FVECS
 111A:D928           PMFLT_DVECS
 111A:D9A8           VMFLT_FVECS
 111A:DA68           VMFLT_DVECS
 111A:DAE8           KRNL386
 111A:DAF4           HPDA_TEMPLATE
 111A:DB3C           DPMI_ACT
 111A:DBD8           DPMIVID_ACT
 111A:DDD8           DPMIBIOS_ACT
 111A:DFD8           DPMIDOS_ACT
 111A:E1D8           DPMIMOUSE_ACT
 111A:E3D8           IDATA_NXT
 1F58:0000           @QMAX_EM2_JCODE
 1F58:0000           CURSOR_FNS
 1F58:0004           HARPO_FNS
 1F58:000E           JMM_E8F
 1F58:0013           JMM2_GETMCS
 1F58:0034           JMM_E00AL
 1F58:0045           JMM2_GETMAP
 1F58:0068           JMM2_GETINFO
 1F58:0080           JMM2_GETPPM
 1F58:009C           JMM2_MEMTIME
 1F58:0173           JMM2_GOREAL
 1F58:019F           JMM2_HIMEM
 1F58:024A           JMM2_CURSOR
 1F58:025D           JMM2_CURSOR0
 1F58:027E           JMM2_CURSOR1
 1F58:0295           CLR_BITMAP
 1F58:02B5           SET_BITMAP
 1F58:02D5           JMM2_POSCOPY
 1F58:0309           JMM2_GETTEXT
 1F58:032C           JMM2_HARPOINFO
 1F58:0346           JMM2_HARP0
 1F58:034F           JMM2_HARP1
 1F58:037D           JMM2_HARP2
 1F58:03A4           JMM2_HARP3
 1F58:03BF           JMM2_HARP4
 1F58:03D6           JMM2_GSLINK58
 1F58:0443           JMM2_MALLOC
 1F58:047B           JMM2_DLGROUP
 1F58:04D7           JMM2_PNP
 0000:00020000  Abs  $$INDB
 1F58:0B95           SET_HWSP
 1F58:0BE9           INIT_DATA
 1F58:0E7D           FILL_LINK
 1F58:0EBC           @QMAX_I0D_JCODE
 1F58:0EBC           GPJG_RDMSR
 1F58:0EEB           GPJG_WRMSR
 1F58:0F2C           GPJG_RDPMC
 1F58:0F67           INST_TMPINT0D
 1F58:0FA0           REST_TMPINT0D
 1F58:0FCF           TMPINT0D
 1F58:0FE4           LOADSUB
 1F58:0FF7           CALC_EXEHDR
 1F58:10A9           UNPLUG_MAC
 1F58:10F6           FREE_RINFO
 1F58:1139           ADD_LSEG
 1F58:12CC           DO_RINFO
 1F58:14F5           CPY_DLGROUP
 1F58:1780           INT21_MACFNS
 1F58:189F           I21MAC_48XX
 1F58:18CE           I21MAC_49XX
 1F58:18DD           I21MAC_4AXX
 1F58:1904           I21MAC_4CXX
 1F58:195A           I21MAC_5800
 1F58:1965           I21MAC_5801
 1F58:19A2           I21MAC_5802
 1F58:19B0           I21MAC_5803
 1F58:1A65           FIZITLSEG
 1F58:1A69           IZITLSEG
 1F58:1A98           FUNLINK_LSEG
 1F58:1A9C           UNLINK_LSEG
 1F58:1ACC           IZIT_MACLINK
 1F58:1AED           CHECK_XSTACK
 1F58:1B60           CPY_DL2GROUP
 1F58:1BCC           @QMAX_I4B_JCODE
 1F58:1BCC           INT4B
 1F58:1BFF           INT4B_INTRETPM
 1F58:1D6D           I4B_VERS
 1F58:1DC6           I4B_LOCK
 1F58:1F6B           I4B_UNLK
 1F58:1FAD           I4B_SLOCK
 1F58:213F           I4B_SUNLK
 1F58:2152           I4B_GETBUF
 1F58:21EA           I4B_RELBUF
 1F58:2228           I4B_MEM2BUF
 1F58:2279           I4B_BUF2MEM
 1F58:22C6           I4B_DISTRAN
 1F58:22F9           I4B_ENATRAN
 1F58:2333           GET_DDS
 1F58:235F           VDS_WRAP
 1F58:238F           SLOCK_AVL
 1F58:239C           SLOCK_MIN
 1F58:23C0           SLOCK_MERGE
 1F58:24AE           SLOCK_SPLIT
 1F58:254F           SLOCK_INCXAVL
 1F58:25B9           PVDS_TRANS
 1F58:2634           INT4B_NEXTPTE
 1F58:2668           MEM2BUF
 1F58:267A           MEM2BUF_SUB
 1F58:26B3           BUF2MEM
 1F58:26C5           BUF2MEM_SUB
 1F58:26EE           FSEGSEL_BASE
 1F58:26F2           SEGSEL_BASE
 1F58:2712           INT4B_CPUPHYS
 1F58:272D           INT4B_VIRT_LOCK
 1F58:2782           INT4B_VIRT_UNLOCK
 1F58:2826           INT4B_VIRT_LOCKPRESENT
 1F58:28EC           @QMAX_IDT_JCODE
 1F58:28EC           INT12
 1F58:2982           INT81
 1F58:2989           INT82
 1F58:2990           INT83
 1F58:2997           INT84
 1F58:299E           LOTUS_COM
 1F58:2A0C           CHECK_LOTUS
 1F58:2A50           CHECK_ORPHSUB
 1F58:2AE8           MAC_MERGE
 1F58:2AFA           MAC_MERGESUB
 1F58:2C3C           RELEASE_MAC
 1F58:2C89           LOAD_INPRO
 1F58:2CC5           MAC_ALLOC
 1F58:322D           MAC_REALLOC
 1F58:348A           MAC_FREE
 1F58:357C           @QMAX_J31_JCODE
 1F58:357C           FMAC_MERGESUB
 1F58:3580           DSTKS_FNS
 1F58:3586           VSAPIACT
 1F58:3588           @QMAX_IM2_JCODE
 1F58:3588           JMM_E84
 1F58:358D           JMM_E87
 1F58:3592           JMM_E8A
 1F58:3597           JMM_E8B
 1F58:359C           JMM2_GETPTE
 1F58:35F3           JMM2_GLBFLAG
 1F58:3606           JMM2_DBGFLAG
 1F58:3625           JMM2_DB2FLAG
 1F58:3638           JMM2_CM3FLAG
 1F58:364B           JMM2_RAMSCAN
 1F58:370B           EMS_RAM
 1F58:3736           TEST_RAM
 1F58:37C6           TEST_PSMEM
 1F58:37E5           JMM2_ROMSWAP
 1F58:3859           JMM2_ROMRW
 1F58:38B7           JMM2_GOREALWIN3
 1F58:3977           FILL_HIGHDOS_MAP
 1F58:39F3           FILL_WIN3
 1F58:3EF6           LIN2PHYS
 1F58:3F26           FLIN2PHYS
 1F58:3F2A           PHYS2LIN
 1F58:3F98           FPHYS2LIN
 1F58:3F9C           COPY_INST_DATA
 1F58:407C           MAP_WIN3
 1F58:40F2           DMA_WIN3
 1F58:4171           SQZOVR_WIN3
 1F58:427E           CAPOVR_WIN3
 1F58:432D           JMM2_INITWIN3
 1F58:440D           JMM2_PSMEM
 1F58:4500           JMM2_PHYS2LIN
 1F58:451B           JMM2_SETPTE
 1F58:4557           JMM2_FLEXINFO
 1F58:4585           JMM2_GETOLDINT
 1F58:459E           JMM2_DISPSTR
 1F58:45AF           JMM2_EXTADDR
 1F58:5082           JMM2_GETMAXINT
 1F58:50A0           JMM2_DSTKS
 1F58:50B3           JMM2_DSTKS0
 1F58:50E5           JMM2_DSTKS1
 1F58:50FC           JMM2_DSTKS2
 1F58:510E           JMM2_INITREST
 1F58:5126           JMM_TEST
 1F58:51AC           ET_CHK
 1F58:5209           ET_CLR
 1F58:52D7           JMM2_TMPCLOSE
 1F58:52F2           JMM2_SWAPFILE
 1F58:5339           JMM2_VMVSAPI
 1F58:536D           JMM2_VSAPI00
 1F58:5389           FMAC_MERGE
 1F58:538D           ACTIVATE_HOOK13
 1F58:53AC           INACTIVATE_HOOK13
 1F58:53CC           @QMAX_SHR_JCODE
 1F58:53CC           FDPMI_GETSHR
 1F58:5638           FDPMI_RELSHR
 1F58:56BB           FDPMI_SERIALIZE
 1F58:575C           FDPMI_RELSERIAL
 1F58:57CC           SMEM_ADD_USER
 1F58:5816           SMEM_ADD_SERIAL
 1F58:5859           SMEM_REMOVE_SERIAL
 1F58:58AC           SMEM_REMOVE_USER
 1F58:58F4           SMEM_FIND_NAME
 1F58:5954           SMEM_USER_COUNT
 1F58:5983           SMEM_GET_STATE
 1F58:59D0           @QMAX_RSP_JCODE
 1F58:59D0           FRSP_INIT
 1F58:59F5           RSP_ALLOC
 1F58:5A4E           FDPMI_TSRSRV
 1F58:5B44           DPMIFN_VALIDATE_RSP_DESC
 1F58:5C07           FDPMI_TSRXIT
 1F58:5ED3           DPMIFN_NORMALIZE_RSPSEG
 1F58:5F30           DPMIFN_REMOVE_OVERLAP
 1F58:5FD0           DPMIFN_RELOC_ZERO_SEGMENT
 1F58:6024           DPMIFN_CALL_RSPS
 1F58:61C1           DPMI_RSPRET
 1F58:622F           DPMIFN_GET_TSS_INDEX
 1F58:6252           DPMIFN_REMOVE_RSP
 1F58:62CE           RSP_FREE_SEGMENT
 1F58:62FC           OLDREGINT0D_FVEC
 1F58:6302           OLDREGINT0D_ARB
 1F58:6303           REGINT0D_ARB
 1F58:6304           REGINT0D_FVEC
 1F58:630C           MAC_STRA
 1F58:630E           LALINKFLG
 1F58:6312           LALINKSEG
 1F58:6316           BFLG_IDX
 1F58:6318           BFLG_BASE
 1F58:631A           BFLG_LIM
 1F58:631C           TEMP_PSP
 1F58:631E           CUR_PSP
 1F58:6320           I21MAC_TAB
 1F58:6334           RINFO
 1F58:6364           LAST_RINFO
 1F58:6366           MNAME
 1F58:636E           LOADSIZE
 1F58:6372           MAXPARA
 1F58:6374           XSDAT_2523
 1F58:6379           XSTACK
 1F58:6384           I4B_FNS
 1F58:63A0           JSEL_DS3
 1F58:63A2           FILLPAT
 1F58:63A8           NOSCAN_MAP
 1F58:63B4           RSPS
 1F58:6A14           RSPHEAD
 1F58:6A16           RSPTAIL
 1F58:6A18           JCODE_NXT
 25FA:0000           EMU4B
 25FA:0156           EMU4B_I22RET
 25FA:0172           DLMAC_STRA
 25FA:0174           DLPORT67
 25FA:0176           DLDOSVEC
 25FA:017A           ORIGAX
 25FA:017C           DLEXEHDR
 25FA:0198           DLSSSP
 25FA:019C           DLOLDPSP
 25FA:019E           LDBG
 25FA:01B4           DLGROUP_END
 2616:0000           GENINT23
 2616:0028           DL2_PMERET
 2616:002C           DL2_PGRSEG
 2616:0030           DL2GROUP_END
 2619:0000           @QMAX_ARG_XCODE
 2619:0000           XSKIP_WHITE
 2619:0010           XSKIP_BLACK
 2619:0026           CALC_SCRN
 2619:007D           IZITEGA
 2619:00A9           IZITVGA
 2619:00D3           CHK_CREG
 2619:00FE           DISP_UNK
 2619:012A           DISP_UNK2
 2619:015B           PROC_PROFILE
 2619:024A           UPPERCASE
 2619:0255           SKIP_EOL
 2619:026C           SKIP_EOL_COMMENT
 2619:028D           XSKIP_EOL
 2619:02B1           IZITCOMMENT
 2619:02B8           IZITEOL
 2619:02C7           READ_CFG
 2619:045B           READ_CFG_CLEAR
 2619:0474           READ_CFG_LINK
 2619:04A7           SET_PATHSTEM
 2619:0559           READ_FLEXFILE
 2619:0590           PROCESS_FLEXFILE
 2619:0947           MODIFY_FLEXINFO
 2619:097C           CHECK_ARGS
 2619:0C66           SET_NOSCAN
 2619:0CB7           GET_CMDARGS
 2619:0D57           LOWERCASE
 2619:0D5E           BASE2BIN
 2619:0DB4           BASE2BIND
 2619:0E0E           ABORT_IGNORE
 2619:0E37           PATCH_WBINVD
 2619:0E8A           @QMAX_BCF_XCODE
 2619:0E8A           CHECK_BCRC
 2619:0F75           CHECK_BCF
 2619:1074           SRCH_BCFINT_GETLIN
 2619:1092           SRCH_BCFCHKDUBL
 2619:10BB           SRCH_BCFINT
 2619:11DA           CALC_CRC
 2619:1232           CALC_SUM
 2619:127D           PROC_BCF
 2619:13AF           MOVE_SUB
 2619:13FA           FINDROMCHK
 2619:140F           FIND10
 2619:1419           FIND75
 2619:1437           @QMAX_CPQ_XCODE
 2619:1437           COMPROM
 2619:15DC           CPQSETSTR
 2619:1618           CPQZAPSTR
 2619:165E           ROMREF
 2619:16BB           ROMREF_MRM
 2619:16CA           ROMREF_MRMSUB
 2619:1702           ROMREF_MOF
 2619:1711           ROMREF_MOFSUB
 2619:173D           FINDHW
 2619:17A0           FINDHW_CPQ
 2619:17B4           FINDIGN
 2619:17B6           FINDCHK
 2619:17C7           FINDERR
 2619:17C9           FINDVERIFY
 2619:182E           FIND13
 2619:183C           FIND14
 2619:184B           FIND15
 2619:1855           FIND16
 2619:185F           FIND17
 2619:186E           FIND1A
 2619:1878           FIND1B
 2619:1889           FIND40
 2619:1897           FIND4B
 2619:18A1           FIND5C
 2619:18B7           CPQINT01
 2619:196F           CPQINT29
 2619:197D           DECODE_TRIP
 2619:1AA8           SAVEINT01
 2619:1AED           INSTINT01
 2619:1B04           RESTINT01
 2619:1B1B           CHECK_LOSTINT
 2619:1B5D           @QMAX_DM2_XCODE
 2619:1B5E           TEST_DMA
 2619:1B94           SET_IMR
 2619:1BC1           INST_INTS
 2619:1CE0           CLEAR_DMA
 2619:1D42           READ_HD
 2619:1DA5           REST_INTS
 2619:1E61           REST_IMR
 2619:1E82           DMA_INT0A
 2619:1E8F           DMA_INT0B
 2619:1E9C           DMA_INT0C
 2619:1EA9           DMA_INT0D
 2619:1EB6           DMA_INT0E
 2619:1EC3           DMA_INT0F
 2619:1ED0           DMA_INT72
 2619:1EDD           DMA_INT73
 2619:1EEA           DMA_INT74
 2619:1EF7           DMA_INT75
 2619:1F04           DMA_INT76
 2619:1F11           DMA_INT77
 2619:1F1E           CHECK_USAGE
 2619:1FAC           @QMAX_FCN_XCODE
 2619:1FAC           FLEXROM_RESOURCE
 2619:1FAE           FLEXROM_ACTION
 2619:1FB8           FLEX_DEFAULTS
 2619:1FE8           DISPAZSTR
 2619:1FFC           DISP_ERRLAST
 2619:2012           DISP_ERRLAST2
 2619:2028           ARGEND
 2619:2044           LCL_INT1C
 2619:205C           BOOTPAUSE
 2619:209C           READFILE
 2619:2111           MARKENTRY
 2619:2158           YMSGOUT2
 2619:2171           VIDCOM
 2619:21BB           LOADUP
 2619:22F6           FCN_AMRS
 2619:2323           FCN_AUTO
 2619:233E           BCF_ERRCOM
 2619:23CC           FCN_32BITDMA
 2619:23E9           FCN_AUTOBCF
 2619:2481           BCF_FIND
 2619:24C8           FCN_BCF
 2619:2628           FCN_CACHESIZE
 2619:267C           FCN_CGA
 2619:268B           FCN_DBG8042
 2619:2693           FCN_DBGABIOS
 2619:269C           FCN_DBGALLROM
 2619:26A4           FCN_DBGBIOS
 2619:26AD           FCN_DBGCALL
 2619:26B5           FCN_DBGCAPS
 2619:26BE           FCN_DBGCOMPROM
 2619:26C6           FCN_DBGCR3
 2619:26CF           FCN_DBGDPMI
 2619:26D8           FCN_DBGDPMIERR
 2619:26E1           FCN_DBGDPMILOCK
 2619:26E9           FCN_DBGDPMINEWSEL
 2619:26F1           FCN_DBGDPMIPHYS
 2619:26F9           FCN_DBGDPMISEL
 2619:2702           FCN_DBGDPMISPURNT
 2619:270A           FCN_DBGDPMISTD
 2619:2713           FCN_DBGDPMITERM
 2619:271B           FCN_DBGDPMIV100
 2619:2723           FCN_DBGDPMIXCOPY
 2619:272B           FCN_DBGEMSERR
 2619:2734           FCN_DBGEMSPTE
 2619:273C           FCN_DBGEMSRDWR
 2619:2744           FCN_DBGEMSSAVE
 2619:274D           FCN_DBGEMSWRIT
 2619:2755           FCN_DBGEPM
 2619:275E           FCN_DBGEVM
 2619:2767           FCN_DBGFILL
 2619:2778           FCN_DBGHLT
 2619:2780           FCN_DBGI06
 2619:2789           FCN_DBGI67
 2619:2792           FCN_DBGINV
 2619:279A           FCN_DBGIOWRAP
 2619:27A9           FCN_DBGJMP
 2619:27B1           FCN_DBGLED
 2619:27B9           FCN_DBGNOVCPI
 2619:27C1           FCN_DBGNOWRAP
 2619:27CA           FCN_DBGPIC
 2619:27D3           FCN_DBGPMR
 2619:27DC           FCN_DBGRC
 2619:27E5           FCN_DBGROM
 2619:27EE           FCN_DBGROMSWAP
 2619:27F6           FCN_DBGSCRUB
 2619:27FF           FCN_DBGSOR
 2619:2808           FCN_DBGTIME
 2619:2811           FCN_DBGTRIP
 2619:281A           FCN_DBGUNSHADOWROM
 2619:2822           FCN_DBGVCPI
 2619:282B           FCN_DBGVDS
 2619:2834           FCN_DBGVMS
 2619:283C           FCN_NOCRR
 2619:2845           FCN_NOGATE
 2619:2859           FCN_DBGXDMA
 2619:2862           FCN_DBGX09
 2619:286B           FCN_DBGX67
 2619:2873           FCN_DBGXM
 2619:287C           FCN_DBGXMS
 2619:2884           FCN_DBGXMSPTE
 2619:288D           FCN_DBGXR
 2619:2896           FCN_DMA
 2619:28DC           FCN_DOS4
 2619:28E4           FCN_DOS5
 2619:28EC           FCN_DPMIMEM
 2619:2B28           FCN_EMS_SUB
 2619:2B74           FCN_EMS
 2619:2BA4           FCN_EMS30
 2619:2BBB           FCN_EXCLUDE
 2619:2BF5           EXCLUDE_SUB
 2619:2C31           FCN_EXT
 2619:2C84           FCN_EXTSIZE
 2619:2CF2           FCN_FASTRAM
 2619:2CFB           FCN_FLEXROM
 2619:2E50           FCN_FORCEA20
 2619:2E5F           FCN_FORCEBCF
 2619:2E67           FCN_FRAME
 2619:2EA8           FCN_HMAMIN
 2619:2ED6           FCN_IGNOREFLEXFRAME
 2619:2EDF           GETREG_SUB
 2619:2F3E           FCN_HPDAREG
 2619:2F48           FCN_INCLUDE
 2619:2FEF           FCN_IOP
 2619:302C           FCN_IOWRAP
 2619:3035           FCN_ISTACKS
 2619:305B           FCN_LMLTOP
 2619:308F           FCN_LOAD
 2619:3271           FCN_MCE
 2619:327A           FCN_MONO
 2619:3289           FCN_NO4B
 2619:3291           FCN_NO58
 2619:3299           FCN_NOABIOS
 2619:32A5           FCN_NOCACHE
 2619:32B1           FCN_NOCOMPROM
 2619:32B9           FCN_NOEISADMA
 2619:32C1           FCN_NOFRAME
 2619:32CA           FCN_NOVME
 2619:32D3           FCN_NOIOWRAP
 2619:32DB           FCN_NOLOADHI
 2619:32F3           FCN_NODMA
 2619:32FB           FCN_NODPMI
 2619:3303           FCN_NOHIGH
 2619:330C           FCN_NOLOW
 2619:3315           FCN_NOPNP
 2619:331E           FCN_NOROM
 2619:332F           FCN_NOSCAN
 2619:3396           FCN_NOSCSI
 2619:339E           FCN_NOPARITY
 2619:33A6           FCN_NOTIME
 2619:33AF           FCN_NOVGASIG
 2619:33B6           FCN_NOWIN3
 2619:33BE           FCN_NOWIN30
 2619:33CA           FCN_VGASWAP
 2619:34A7           FCN_VXD
 2619:34E8           FCN_NOWARMBOOT
 2619:34F1           FCN_NOSCRUB
 2619:34FA           FCN_NOPULSE
 2619:3503           FCN_NOXBIOS
 2619:351E           FCN_NOXRAM
 2619:352D           FCN_RET
 2619:352F           FCN_ON
 2619:3543           FCN_POSFILE
 2619:3652           FCN_PRGREG
 2619:369D           FCN_PRO
 2619:3716           FCN_PSMEM
 2619:3762           FCN_RAM
 2619:37A4           FCN_RESETKEYB
 2619:37AC           FCN_ROM
 2619:3805           FCN_SCREEN
 2619:381E           FCN_SHADOWRAM
 2619:3865           FCN_SHADOWROM
 2619:386D           FCN_SLOWDMA
 2619:3875           FCN_STACKREG
 2619:3888           FCN_STACKS
 2619:39B8           FCN_SWAP
 2619:39EC           FCN_SWAPFILE
 2619:3B45           FCN_SYS
 2619:3B9A           SYSCHK_INBOARD
 2619:3BAD           SYSCHK_JET386
 2619:3BC6           FCN_TERSE
 2619:3BCE           FCN_TOP384
 2619:3BF2           FCN_UNSHIFT
 2619:3C01           FCN_USE
 2619:3C5A           FCN_VEGA
 2619:3C69           FCN_VIDMEM
 2619:3C89           FCN_WTKF
 2619:3C9C           FCN_WTK0
 2619:3CBF           FCN_WTK1
 2619:3CE2           FCN_XBDAREG
 2619:3CF5           FCN_XBIOSHI
 2619:3CFE           FCN_XMSHNDL
 2619:3D35           DISPAZS
 2619:3D6F           @QMAX_IN2_XCODE
 2619:3D6F           SET_CG
 2619:3DAB           FMT_ERR_CODE
 2619:3DCD           FMT_WORD_YGRP
 2619:3DF1           SETUP_EPM
 2619:3E27           SET_LOWMEM
 2619:3EF9           PROT_INIT
 2619:4632           @QMAX_INI_XCODE
 2619:4632           DISP_CPDMSG
 2619:485C           ROUND_SCRDN
 2619:4870           CHECK_SHIFT
 2619:48A3           CHECK_BPI
 2619:48BB           CHECK_INFO
 2619:4939           CHECK_NDP
 2619:499F           CHECK_XBIOS
 2619:49DD           CHECK_CNV
 2619:4A22           CALC_WIN3
 2619:4B0D           CHECK_DOSVER
 2619:4B72           CHECK_EXT
 2619:4C42           CHECK_EISA_SHD
 2619:4C7E           CHECK_VDS
 2619:4D2A           CHECK_EISA_EXT
 2619:4E53           VALIDATE_EISAMEM
 2619:4F23           BIOS_BLOCK_MOVE
 2619:4FA2           CHECK_CPUID
 2619:507A           IZIT486
 2619:50AC           IZIT_CPUID
 2619:50D5           CHECK_XMS
 2619:514A           CHECK_VM86
 2619:515C           INTR_GET
 2619:5205           CALC_RESIDENT
 2619:52CD           CHECK_EMSDRV
 2619:52F4           INTR_SET
 2619:53CC           SETMEM
 2619:53E5           LOADHISUB
 2619:5462           LOADHI
 2619:5641           ROUND_END
 2619:5668           CREA_LSEG
 2619:56BD           FILL_LSEG
 2619:5768           FILL_DSTKS
 2619:5836           INIT2X
 2619:58CD           DEV_STR2X
 2619:58E8           MODIFY_INT2F
 2619:597E           LOCAL_INT13
 2619:5989           INITX
 2619:5F05           XLAT_VIDEO
 2619:5FD1           GET_MACINFO
 2619:6013           CHECK_EISADMA
 2619:603F           @QMAX_LOD_XCODE
 2619:603F           CALC_LODSTART
 2619:6084           INIT_VIRT
 2619:60C3           @QMAX_MAC_XCODE
 2619:60C3           ZMAC_FN52
 2619:610F           ZMAC_SRCH
 2619:6156           ZMAC_DTA
 2619:61A4           FINDZMAC
 2619:61E5           DECR_MAC
 2619:631B           BUSMASTER
 2619:6457           SRCHMEM
 2619:6535           @QMAX_MEM_XCODE
 2619:6535           CALC_OVRSIZE
 2619:6568           CALC_NPHYS
 2619:6606           SAVE_PHYS
 2619:6614           FILL_PPM
 2619:6639           CHECK_VIDMEM
 2619:6668           VGARAM
 2619:6731           CHECK_CPQVID
 2619:6799           FILL_ROM
 2619:67A9           ROMSCAN
 2619:6842           EMMSCAN
 2619:6974           FILL_ALIGN
 2619:6995           CHK_ALIGN
 2619:6A2B           MARK_ALIGN
 2619:6A38           CALC_PPMTAB
 2619:6B0E           FILL_LOW
 2619:6B87           FILL_XLO
 2619:6BAE           FILL_XHI
 2619:6BD8           FILL_INC
 2619:6C3A           FILL_PSM
 2619:6CD1           CALC_MEMMAP
 2619:6D02           FILL_MAP
 2619:6D99           RAMSCAN
 2619:6DF2           CALC_ALLMEM
 2619:6E81           VGASWAP
 2619:6F74           @QMAX_OEM_XCODE
 2619:6F74           DISP_OEM
 2619:6F75           @QMAX_POS_XCODE
 2619:6F75           NVRAMFN
 2619:7048           IZITWS
 2619:705F           POSINIT
 2619:7368           POSREAD
 2619:73E4           POSWRITE
 2619:7460           NVRAM_CMPWRITE
 2619:74AD           POSREADALL
 2619:751D           NVRAM_CRC
 2619:75B9           @QMAX_SIZ_XCODE
 2619:75B9           ROOM_PHYS
 2619:7635           ROOM_HFRM
 2619:7650           ROOM_RPNTAB
 2619:7680           ROOM_STACK
 2619:76DC           ROOM_SIRBDEF
 2619:76F0           ROOM_VDS
 2619:771A           ROOM_PHYS2
 2619:777A           ROOM_IOCHK
 2619:77A7           ROOM_HNDL
 2619:77D9           ROOM_XMSTAB
 2619:784A           ROOM_TSS
 2619:788F           ROOM_INST
 2619:78BE           ROOM_PDT
 2619:79FA           ROOM_DMASWAP
 2619:7A27           ROOM_OPTE
 2619:7AE5           ROOM_AMRS
 2619:7B19           ROOM_PSM
 2619:7B43           ROOM_FGROUP
 2619:7B60           ROOM_JGROUP
 2619:7B95           ROOM_IOTRAP
 2619:7BB1           CALC_FORCE
 2619:7C06           FILL_MCS
 2619:7CC9           SIZE_ERR
 2619:7DBE           CALC_SIZE
 2619:8590           @QMAX_STA_XCODE
 2619:8591           BIND2BASE
 2619:85C1           CALC_STAT
 2619:8752           SAVE_TEXT
 2619:8793           @QMAX_SYS_XCODE
 2619:8793           LCL_INT24
 2619:87AF           INST24
 2619:87D7           REST24
 2619:87EC           FINDHW_ROM
 2619:87ED           ROMINT10
 2619:8809           ROMINT11
 2619:8825           ROMINT13
 2619:883D           ROMINT6D
 2619:8866           SAVE_SHADOW
 2619:88ED           SAVE_SCRUB
 2619:8941           MARK_XT
 2619:898B           GET_POSID
 2619:89C9           SRCHSTR
 2619:8A04           CHECK_DEVICE
 2619:8A43           CHECK_288
 2619:8A7F           CHECK_MODEL
 2619:8C78           CHECK_AMI
 2619:8C8A           CHECK_I92
 2619:8CDF           CHECK_SYSID
 2619:8EBE           CHECK_PICBUG
 2619:8EDD           CHECK_I78
 2619:8F00           CHECK_FASTRAM
 2619:8F6F           READ_ABSENT
 2619:8F87           CHECK_INBRD
 2619:9000           CHECK_CA
 2619:90A4           CHECK_ASEM
 2619:90C7           CHECK_EPSON
 2619:9197           GET_EPS
 2619:91A6           SET_EPS
 2619:91B9           CHECK_GATEWAY
 2619:91DC           CHECK_TOSH
 2619:9202           CHECK_QUAD386
 2619:924E           CHECK_AST386
 2619:92A5           CHECK_HPRS
 2619:9355           CHECK_ITT
 2619:93B2           CHECK_GRID
 2619:949C           CHECK_NEC
 2619:94E4           CHECK_NECLAP
 2619:9520           CHECK_OLI
 2619:95D1           CHECK_DELL
 2619:968C           DELL_SETSPEED
 2619:96F3           CHECK_ALR
 2619:9711           CHECK_ZDS
 2619:974D           CHECK_AMSTRAD
 2619:9777           CHECK_CPQ386
 2619:98A3           CHECK_CPQCUT
 2619:993B           READ_CMOS
 2619:9947           SEND_CMOS
 2619:9955           CHECK_CROM
 2619:9970           CHECK_UNROM
 2619:9AC8           FLEXROM_RESET
 2619:9C03           ROM2OVR
 2619:9C36           CHECK_SHDROM
 2619:9C76           IZIT_ZMSPORT
 2619:9C89           CHECK_PRVEXT
 2619:9D43           CHECK_QEXT
 2619:9DAE           SRCH_PPMTAB
 2619:9DED           CHECK_SHADOW
 2619:9F7E           SWAP_CTAL
 2619:9F89           @QMAX_TIM_XCODE
 2619:9F89           INST_TMPINT15
 2619:9FAA           REST_TMPINT15
 2619:9FBB           TOP_WRITE
 2619:A025           SAVE_CACHERM
 2619:A082           REST_CACHERM
 2619:A0DE           TIME_ROM
 2619:A260           COPY_ROM
 2619:A44C           UNSHADOW
 2619:A4B8           @QMAX_VCP_XCODE
 2619:A4B8           SET_VCPIVARS
 2619:A5B3           @QMAX_M31_XCODE
 2619:A5B3           ROOM_DPMI
 2619:A646           ROOM_DPMI2
 2619:A67B           CODESRCH
 2619:A6B3           TARGET_CODE
 2619:A6C5           FIND_CONFIG
 2619:A70C           INIT_MBOOT
 2619:A743           CMP_SECT
 2619:A75E           CHECK_MBOOT
 2619:A78E           @QMAX_PNP_XCODE
 2619:A78E           IZIT_PNP
 2619:AD13           FLEXDATA_CNT
 2619:AD15           FLEXDATA
 2619:AE15           FLEXFILE_DPFE
 2619:AE95           PATHSTEM_LEN
 2619:AE97           VIRT_DEV_NAME
 2619:AEA2           ALT_VIRT_DEV_NAME
 2619:AEA4           ALT_VIRT_DEV_NAME_LEN
 2619:AEA6           CFGFILE
 2619:AEB4           ARGSTK
 2619:AFB4           ARGSTKZ
 2619:AFB4           OLDARGSTK_VEC
 2619:AFB8           NEWARGSTK_VEC
 2619:AFBC           LASTKEY
 2619:AFBE           NUMBERS_LO
 2619:AFCE           DEF_STACKS
 2619:AFD4           BIO_FIXBUF
 2619:AFE4           CHECK_BCFTAB
 2619:B00A           PROC_BCFTAB
 2619:B030           XORLIST
 2619:B230           BCFINTS
 2619:B5C0           BCFX_TBL
 2619:B630           CPQINT01_VEC
 2619:B634           CPQINT29_VEC
 2619:B638           OLDINTHW_VEC
 2619:B63C           CPQINT01_LAST
 2619:B640           CPQINT01_TRIP
 2619:B642           TRIP_CS
 2619:B644           CPQINT01_SAVE
 2619:B648           CURIDTR_VEC
 2619:B64C           CURIDTR
 2619:B652           ROMADDR
 2619:B654           ROMIDN
 2619:B656           TRIP_DS
 2619:B658           TRIP_ES
 2619:B65A           TRIP_SS
 2619:B65C           TRIP_BX
 2619:B65E           TRIP_BP
 2619:B660           TRIP_SI
 2619:B662           TRIP_DI
 2619:B664           FINDHW_ACT
 2619:B666           PRMACT
 2619:B676           IGNCNT
 2619:B678           CPQ_FLAG
 2619:B67A           CPQINTS
 2619:B830           OLDCPQSTK_VEC
 2619:B834           PNETB_CCB
 2619:B838           NETB_CCB
 2619:B848           STATBLK
 2619:B87A           CPQSTK
 2619:C07A           CPQSTKZ
 2619:C07C           OLDINT0A_VEC
 2619:C080           OLDINT0B_VEC
 2619:C084           OLDINT0C_VEC
 2619:C088           OLDINT0D_VEC
 2619:C08C           OLDINT0E_VEC
 2619:C090           OLDINT0F_VEC
 2619:C094           OLDINT72_VEC
 2619:C098           OLDINT73_VEC
 2619:C09C           OLDINT74_VEC
 2619:C0A0           OLDINT75_VEC
 2619:C0A4           OLDINT76_VEC
 2619:C0A8           OLDINT77_VEC
 2619:C0AC           NDMA
 2619:C0AE           DMA_IRQ
 2619:C0B6           OLDIMR
 2619:C0B7           OLDIMR2
 2619:C0B8           HDISK
 2619:C0B9           MAX_TSECTS
 2619:C0BA           MAX_DSECTS
 2619:C0BB           DMA_CHNO
 2619:C0BC           IRQ_FLAG
 2619:C0C0           LODBASE
 2619:C0C4           OLDINT1C_VEC
 2619:C0C8           WAIT_CNT
 2619:C0CA           EMMSIZE2
 2619:C0CE           DSTK_NPAR
 2619:C0D0           VGASWAP_TEXT
 2619:C0F5           POSFILE_SLOTCHG
 2619:C0F6           SWAP_FNEZ
 2619:C104           CFGBITCNT
 2619:C105           CFGBITMAP
 2619:C108           IDENTIFY
 2619:C266           IDENT_CHK
 2619:C268           MSG_XINST
 2619:C295           RH_VECX
 2619:C299           XPGRSEG
 2619:C29B           HPDAR
 2619:C2A1           XBDAR
 2619:C2A7           STACKR
 2619:C2AD           HPDASEG
 2619:C2AF           TMPHPDASEG
 2619:C2B1           PREV_LMAC_NPAR
 2619:C2B3           XENDADDR
 2619:C2B5           XBIOS_DST
 2619:C2B9           XBIOS_SIZ
 2619:C2BB           XBIOS_DOS
 2619:C2BD           EISAREGS
 2619:C2CC           BUSINT13_VEC
 2619:C2D0           BUSHNDL
 2619:C2D2           BUSLEN
 2619:C2D4           BUSSEG
 2619:C2D6           BUSPPN
 2619:C2D8           DPFE_END
 2619:C2DA           POVR_MAC2
 2619:C2DC           FILE_HEAD
 2619:C2F8           BUSSTK
 2619:C3F8           BUSSTKZ
 2619:C3F8           OLDBUSSTK_VEC
 2619:C3FC           NEWBUSSTK_VEC
 2619:C400           BUSDATA
 2619:C800           LCLDPFE
 2619:C850           PLAST_MAC
 2619:C854           FLEXROMINTS
 2619:C9F8           FLEXROMINTS_OFF
 2619:C9FC           INIT_ENTRY_CTR
 2619:C9FE           LOGICAL_ID
 2619:CA00           SYSPARM
 2619:CA20           CDA_SEG
 2619:CA22           SYSINIT_SEG
 2619:CA24           NVRAM_LID
 2619:CA26           NVRAM_RB_LEN
 2619:CA28           POS_BLK
 2619:CA46           RAM_EXTSEG
 2619:CA48           OLD_MAPSEG
 2619:CA4A           ABIOS_SYS
 2619:CA54           NVRAM_CRCTAB
 2619:CA70           MAX_EMSMEM
 2619:CA74           LOWTEXT
 2619:CA92           OVRTEXT
 2619:CAB0           EGATEXT
 2619:CACE           VIDTEXT
 2619:CAEC           ROMTEXT
 2619:CB0A           OTHTEXT
 2619:CB28           UNKTEXT
 2619:CB46           EMSTEXT
 2619:CB4A           XLOTEXT
 2619:CB68           XHITEXT
 2619:CB86           INCTEXT
 2619:CBA4           EXCTEXT
 2619:CBC2           PSMTEXT
 2619:CBE0           BIOSCONF_VEC
 2619:CBE4           FAKEINT6D
 2619:CBE8           OLDINT24_VEC
 2619:CBEC           POSBASE
 2619:CBEE           MCAID
 2619:CC00           FASTREGS
 2619:CC0E           PICDATA
 2619:CC1F           I78DATA
 2619:CC25           CPQVGASIGN
 2619:CC4A           CPQVGABUG
 2619:CC56           CPQVGAFIX
 2619:CC5B           CPQVGAPAT
 2619:CC6A           CPQVGAOFF
 2619:CC6C           CPQVGABUG2
 2619:CC94           CPQVGABUG2_RPL1
 2619:CC98           CPQVGABUG2_FIX1
 2619:CCA0           CPQVGABUG2_RPL2
 2619:CCA3           CPQVGABUG2_FIX2
 2619:CCA7           CPQVGAOFF2A
 2619:CCA9           CPQVGAOFF2B
 2619:CCAB           CPQVGAPATOFF
 2619:CCAD           LCL_OLISIGN
 2619:CCC3           LCL_ITTSIGN
 2619:CCE6           LCL_ALCSIGN
 2619:CCFB           LCL_DELLSIGN
 2619:CD08           LCL_ALRSIGN
 2619:CD2F           LCL_AMSTRADSIGN
 2619:CD39           LCL_ZDSSIGN
 2619:CD3C           LCL_ZMSPORT
 2619:CD5D           LCL_NECSIGN
 2619:CD6C           LCL_NECSIGNLAP
 2619:CD7B           LCL_NECSXSIGN
 2619:CD82           LCL_PHOENIXSIGN
 2619:CD9A           LCL_TANDYSIGN
 2619:CD9F           LCL_ASEMSIGN
 2619:CDA3           LCL_EPSONSIGN
 2619:CDA8           LCL_TOSHSIGN
 2619:CDAD           LCL_QUADSIGN
 2619:CDBF           LCL_ASTSIGN
 2619:CDD5           LCL_CASIGN
 2619:CDE0           CA_SIZE1
 2619:CDE8           CA_ADDR1
 2619:CDF8           CA_SIZE2
 2619:CE00           CA_ADDR2
 2619:CE10           SHAD_KEYB_DLY
 2619:CE11           UNROM_TEXT
 2619:CE1C           QEXTXXX0
 2619:CE25           DMA_MAX_LEN
 2619:CE27           LCL_GATEWAYSIGN
 2619:CE33           MOVPCI
 2619:CE39           AMIBIOS
 2619:CE48           MBOOT_SECTION
 2619:CE99           SKIPSECT
 2619:CE9A           CMP_COMMON
 2619:CEA1           CONFIGSIG
 2619:CEA8           CMDARG_TAB
 2619:CFE6           SYSARG_TAB
 2619:CFEA           CMDARG_LEN
 2619:D128           SYSARG_LEN
 2619:D12C           CMDARG_ACT
 2619:D3A8           SYSARG_ACT
 2619:D3B0           WBPAT_TAB
 2619:D3DA           WBPAT_ENDTAB
 3357:23D4           MSG_WTKOFF
 3357:23FD           MSG_SEP
 3357:2417           MSG_UNK
 3357:244D           MSG_SWERR
 3357:246E           MSG_VAL
 3357:2484           MSG_INVALIDOK
 3357:24C5           MSG_CRLF
 3357:24C8           MSG_UNKPRO
 3357:24EB           MSG_EOLERR
 3357:2512           MSG_INVERR
 3357:2534           MSG_CMDCHK_EMSEXT
 3357:2574           MSG_OVF
 3357:258F           MSG_BCF_FCRC
 3357:25AD           MSG_BCF_BCRC
 3357:25DE           MSG_BCF_CMD
 3357:25FD           MSG_BCF_INT
 3357:2613           MSG_BCF_INT1
 3357:2621           MSG_BCF_DBG
 3357:262E           MSG_BCF_DBG1
 3357:2633           MSG_BCF_ARGERR
 3357:2653           MSG_BCFERR
 3357:267B           MSG_AUTOBCF_TERSE
 3357:26B9           MSG_AUTOBCF_INST
 3357:2753           MSG_AUTOBCF_ARGERR
 3357:285D           MSG_AUTOBCF_128K
 3357:2875           MSG_AUTOBCF_64K
 3357:2880           MSG_ERRCPQ
 3357:288F           MSG_ERRCPQ1
 3357:28BC           MSG_ERRSROM
 3357:28CB           MSG_ERRSROM1
 3357:28F7           MSG_SHDROM1
 3357:2916           MSG_SHDROM2
 3357:292D           MSG_SHDROM3
 3357:295B           MSG_SHDROM4
 3357:295C           MSG_DPMI
 3357:297B           MSG_CMDCHK_FRM1
 3357:29AA           MSG_CMDCHK_INC1
 3357:29EC           MSG_CMDCHK_WTK
 3357:2A09           MSG_POPEN
 3357:2A2A           MSG_UNKSYS
 3357:2A55           MSG_LEXEC
 3357:2A7A           MSG_EXECUP
 3357:2AB0           MSG_EXTLOD
 3357:2AE3           MSG_ERRPRO
 3357:2B15           MSG_ERRPRO1
 3357:2B1B           MSG_ERRTIM
 3357:2B4D           MSG_ERRTIM1
 3357:2B53           MSG_ERRMOV
 3357:2B8D           MSG_ERRMOV1
 3357:2BA0           MSG_ERRMOV2
 3357:2BA4           MSG_ERRMOV3
 3357:2BB2           MSG_ERRMOV4
 3357:2BBA           MSG_COPYRIGHT
 3357:2BBC           MSG_COPY
 3357:2C3F           MSG_ABORT
 3357:2C57           MSG_NOT386
 3357:2C8C           MSG_NOTVM
 3357:2CDE           MSG_NOROOM
 3357:2D37           MSG_WSFULL
 3357:2D9B           MSG_NOTDRV
 3357:2DDA           MSG_NOTINST
 3357:2DFE           MSG_PRESS
 3357:2E21           MSG_BUSMASTER
 3357:2F30           MSG_SIZE_P1
 3357:2F7C           MSG_SIZE_LOW
 3357:2FBF           MSG_SIZE_OVR
 3357:2FEF           MSG_SIZE_MAP
 3357:302C           MSG_SIZE_EXT
 3357:302D           MSG_SIZE_P2
 3357:303D           MSG_SIZE_PRV
 3357:305C           MSG_SIZE_P3
 3357:307C           MSG_SIZE_EMM
 3357:309C           MSG_SIZE_PRG
 3357:30BC           MSG_SIZE_REQ
 3357:30DF           MSG_SIZE_TOT
 3357:3122           MSG_SIZE_DIF
 3357:3128           MSG_POSBOOT
 3357:3153           MSG_NOVXD
 3357:31E4           MSG_NOALTVXD
 3357:3254           MSG_NOFLEXFILE_PASS1
 3357:3296           MSG_NOFLEXFILE_PASS2
 3357:32C3           MSG_FF_XROOM
 3357:32F3           MSG_FF_XVER
 3357:3324           MSG_FF_ERR
 3357:332F           MSG_FF_ERR1
 3357:334E           MSG_FF_XVID
 3357:3389           MSG_FF_XVID1
 3357:338F           MSG_PASS1_PAK
 3357:33C4           MSG_VGASWAP_TWICE
 3357:3407           MSG_FF_NOROM
 3357:343C           MSG_FF_NORAM
 3357:3470           MSG_FF_SHDROM
 3357:34A9           MSG_FF_ROM
 3357:34DD           MSG_EISA_BAD
 3357:351A           MSG_EISA_BAD1
 3357:3520           MSG_NOPSMEM
 3357:3551           MSG_DOS5
 3357:35AF           MSG_NOIOWRAP
 3357:35D4           MSG_VDSERR
 3357:35F9           MSG_ABIOSERR
 3357:366F           MSG_HPDARCHG
 3357:36B0           MSG_STACKRCHG
 3357:36F3           MSG_XBDARCHG
 3357:373F           AZS_WORKING
 3357:3757           AZS_BLNKING
 3357:3A20           PIDENT
 3357:3A24           YDATA_NXT
 36FA:0000           OFFPDT
 0000:00040000  Abs  $$INDW
 0000:00080000  Abs  $$OUTDB
 0000:00100000  Abs  $$OUTDW
 0000:00200000  Abs  $$HLT
 0000:00400000  Abs  $$CLI
 0000:00800000  Abs  $$STI

Program entry point at 0000:E61A
