
 Start  Stop   Length Name                   Class
 00000H 00B48H 00B49H CODE                   CODE
 00B4CH 013ADH 00862H DATA                   DATA
 013B0H 023AFH 01000H STACK                  DATA

 Origin   Group
 0000:0   PGROUP
 0000:0   PSPGRP
 00B4:0   DGROUP

  Address         Publics by Name

 0000:0464       ALLOCMEM
 0000:036E       BASE2BIND
 0000:03B1       BIND2BASE
 0000:0295       CHECKARGS
 0000:03DB       CHECKXMS
 0000:0334       CONVERT
 0000:0000       DATASEG
 00B4:0034       ERRCODE
 0000:0505       FPRINTF16
 0000:04B1       FPRINTFLUSH
 0000:04A3       FREEMEM
 0000:035A       LOWERCASE
 00B4:001C       MAXMEM
 00B4:0010       MEM_BEG
 00B4:0014       MEM_END
 0000:048D       MODIFYMEM
 00B4:0038       MSG_COPY
 00B4:010F       MSG_HELP
 00B4:00DD       MSG_MEMERR
 00B4:0403       MSG_NONALLOC1
 00B4:0500       MSG_NONALLOC2
 00B4:05FE       MSG_NONALLOC3
 00B4:03D2       MSG_NONCONTIG
 00B4:0484       MSG_NONINTER1
 00B4:0581       MSG_NONINTER2
 00B4:067F       MSG_NONINTER3
 00B4:0430       MSG_NONLOCK1
 00B4:052D       MSG_NONLOCK2
 00B4:062B       MSG_NONLOCK3
 00B4:04CC       MSG_NONMOD1
 00B4:05CA       MSG_NONMOD2
 00B4:06C6       MSG_NONREL2
 00B4:0459       MSG_NONUNLK1
 00B4:0556       MSG_NONUNLK2
 00B4:0654       MSG_NONUNLK3
 00B4:00F9       MSG_UNKSW
 00B4:0386       MSG_XMSHNDL
 00B4:03AC       MSG_XMSREL
 00B4:0339       MSG_XMSSIZE
 00B4:0329       NUMBERS_HI
 00B4:0319       NUMBERS_LO
 00B4:000C       OLDXMS_VEC
 0000:0556       PRINTF16
 00B4:0032       PSPSEG
 0000:0080  Abs  PSP_PARM_COUNT
 0000:0081  Abs  PSP_PARM_STRING
 0000:0416       QUERYMEM
 0000:04DC       RPRINTF16
 0000:0361       SKIP_WHITE
 0000:0529       SPRINTF16
 00B4:0018       TOTMEM
 00B4:0020       XMSADDR1
 00B4:0024       XMSADDR2
 00B4:0028       XMSADDR3
 0000:0002       XMSBLK
 00B4:002C       XMSHNDL1
 00B4:002E       XMSHNDL2
 00B4:0030       XMSHNDL3
 00B4:0036       XMS_GETXMB
 00B4:0037       XMS_MODXMB
 00B4:0035       XMS_QRYXMB

  Address         Publics by Value

 0000:0000       DATASEG
 0000:0002       XMSBLK
 0000:0080  Abs  PSP_PARM_COUNT
 0000:0081  Abs  PSP_PARM_STRING
 0000:0295       CHECKARGS
 0000:0334       CONVERT
 0000:035A       LOWERCASE
 0000:0361       SKIP_WHITE
 0000:036E       BASE2BIND
 0000:03B1       BIND2BASE
 0000:03DB       CHECKXMS
 0000:0416       QUERYMEM
 0000:0464       ALLOCMEM
 0000:048D       MODIFYMEM
 0000:04A3       FREEMEM
 0000:04B1       FPRINTFLUSH
 0000:04DC       RPRINTF16
 0000:0505       FPRINTF16
 0000:0529       SPRINTF16
 0000:0556       PRINTF16
 00B4:000C       OLDXMS_VEC
 00B4:0010       MEM_BEG
 00B4:0014       MEM_END
 00B4:0018       TOTMEM
 00B4:001C       MAXMEM
 00B4:0020       XMSADDR1
 00B4:0024       XMSADDR2
 00B4:0028       XMSADDR3
 00B4:002C       XMSHNDL1
 00B4:002E       XMSHNDL2
 00B4:0030       XMSHNDL3
 00B4:0032       PSPSEG
 00B4:0034       ERRCODE
 00B4:0035       XMS_QRYXMB
 00B4:0036       XMS_GETXMB
 00B4:0037       XMS_MODXMB
 00B4:0038       MSG_COPY
 00B4:00DD       MSG_MEMERR
 00B4:00F9       MSG_UNKSW
 00B4:010F       MSG_HELP
 00B4:0319       NUMBERS_LO
 00B4:0329       NUMBERS_HI
 00B4:0339       MSG_XMSSIZE
 00B4:0386       MSG_XMSHNDL
 00B4:03AC       MSG_XMSREL
 00B4:03D2       MSG_NONCONTIG
 00B4:0403       MSG_NONALLOC1
 00B4:0430       MSG_NONLOCK1
 00B4:0459       MSG_NONUNLK1
 00B4:0484       MSG_NONINTER1
 00B4:04CC       MSG_NONMOD1
 00B4:0500       MSG_NONALLOC2
 00B4:052D       MSG_NONLOCK2
 00B4:0556       MSG_NONUNLK2
 00B4:0581       MSG_NONINTER2
 00B4:05CA       MSG_NONMOD2
 00B4:05FE       MSG_NONALLOC3
 00B4:062B       MSG_NONLOCK3
 00B4:0654       MSG_NONUNLK3
 00B4:067F       MSG_NONINTER3
 00B4:06C6       MSG_NONREL2

Line numbers for RET\XMSBLK.OBJ(.\XMSBLK.asm) segment CODE

   234 0000:0002   237 0000:0007   239 0000:000b   242 0000:0010
   244 0000:0018   245 0000:001b   247 0000:001f   248 0000:0022
   252 0000:0026   253 0000:0029   257 0000:002d   258 0000:0030
   260 0000:0033   262 0000:0037   267 0000:003b   268 0000:003d
   272 0000:0041   273 0000:0044   275 0000:0048   276 0000:004c
   278 0000:0050   279 0000:0054   280 0000:0056   283 0000:005a
   284 0000:005d   286 0000:0061   288 0000:0065   289 0000:006a
   294 0000:006e   295 0000:0073   296 0000:0078   297 0000:007b
   301 0000:007f   302 0000:0082   306 0000:0086   307 0000:0089
   309 0000:008c   311 0000:0090   316 0000:0094   317 0000:0096
   321 0000:009a   322 0000:009d   324 0000:00a1   325 0000:00a5
   327 0000:00a9   328 0000:00ad   329 0000:00af   332 0000:00b3
   333 0000:00b6   335 0000:00ba   337 0000:00be   338 0000:00c3
   343 0000:00c7   344 0000:00cc   345 0000:00d1   346 0000:00d4
   350 0000:00d8   351 0000:00db   355 0000:00df   356 0000:00e2
   358 0000:00e5   360 0000:00e9   365 0000:00ed   366 0000:00ef
   370 0000:00f3   371 0000:00f6   373 0000:00fa   374 0000:00fe
   376 0000:0102   377 0000:0106   378 0000:0108   381 0000:010c
   382 0000:010f   384 0000:0113   386 0000:0117   387 0000:011c
   391 0000:0120   392 0000:0124   393 0000:0126   396 0000:012a
   397 0000:012d   407 0000:0131   408 0000:0132   409 0000:0134
   410 0000:0135   411 0000:0138   412 0000:013b   414 0000:013e
   416 0000:0143   420 0000:0146   422 0000:014e   426 0000:0151
   430 0000:0159   431 0000:015d   433 0000:0160   437 0000:0163
   439 0000:016b   443 0000:016e   447 0000:0176   448 0000:017a
   450 0000:017d   454 0000:0180   458 0000:0188   459 0000:018c
   461 0000:018f   465 0000:0192   469 0000:019a   470 0000:019e
   472 0000:01a1   476 0000:01a4   480 0000:01ac   481 0000:01b0
   485 0000:01b3   486 0000:01b7   488 0000:01ba   492 0000:01bd
   496 0000:01c5   497 0000:01c9   499 0000:01cc   503 0000:01cf
   507 0000:01d7   508 0000:01db   512 0000:01de   513 0000:01e2
   515 0000:01e5   519 0000:01e8   523 0000:01f0   524 0000:01f4
   528 0000:01f7   529 0000:01fb   531 0000:01fe   535 0000:0201
   539 0000:0209   540 0000:020d   544 0000:0210   545 0000:0214
   547 0000:0217   551 0000:0219   555 0000:0221   556 0000:0225
   560 0000:0228   561 0000:022c   565 0000:022f   566 0000:0233
   568 0000:0236   572 0000:0238   576 0000:0240   577 0000:0244
   581 0000:0247   582 0000:024b   584 0000:024e   588 0000:0250
   592 0000:0258   593 0000:025c   597 0000:025f   598 0000:0263
   602 0000:0266   603 0000:026a   605 0000:026d   609 0000:026f
   613 0000:0277   614 0000:027b   618 0000:027e   619 0000:0282
   623 0000:0285   624 0000:0289   626 0000:028c   630 0000:028e
   631 0000:0291   652 0000:0295   653 0000:0296   655 0000:0298
   658 0000:029c   659 0000:02a0   660 0000:02a5   662 0000:02a8
   664 0000:02ab   665 0000:02ad   667 0000:02af   668 0000:02b1
   670 0000:02b3   672 0000:02b6   673 0000:02b8   677 0000:02ba
   679 0000:02bf   682 0000:02c7   686 0000:02c9   687 0000:02ca
   689 0000:02cd   691 0000:02d3   692 0000:02d5   694 0000:02d7
   695 0000:02d8   696 0000:02db   698 0000:02dc   700 0000:02df
   705 0000:02e5   707 0000:02ea   708 0000:02f0   710 0000:02f2
   711 0000:02f8   715 0000:02fa   716 0000:0304   718 0000:0306
   719 0000:0310   721 0000:0312   723 0000:0313   727 0000:0315
   729 0000:031a   732 0000:0322   734 0000:0327   737 0000:032f
   739 0000:0330   740 0000:0332   743 0000:0333   766 0000:0334
   768 0000:0335   769 0000:0338   770 0000:033b   772 0000:033e
   774 0000:0341   775 0000:0343   777 0000:0345   778 0000:0349
   780 0000:034c   781 0000:034e   783 0000:0350   784 0000:0354
   786 0000:0357   788 0000:0358   790 0000:0359   798 0000:035a
   799 0000:035c   801 0000:035e   803 0000:0360   811 0000:0361
   813 0000:0362   814 0000:0364   816 0000:0366   817 0000:0368
   819 0000:036a   821 0000:036d   835 0000:036e   837 0000:0376
   839 0000:0379   840 0000:037c   842 0000:0380   843 0000:0385
   844 0000:0386   845 0000:0388   846 0000:0389   848 0000:038b
   849 0000:0392   850 0000:0395   851 0000:0398   852 0000:039b
   854 0000:039e   855 0000:039f   857 0000:03a2   860 0000:03a4
   861 0000:03a5   863 0000:03a8   865 0000:03b0   883 0000:03b1
   885 0000:03b8   886 0000:03b9   888 0000:03ba   890 0000:03be
   891 0000:03c1   893 0000:03c4   894 0000:03cb   896 0000:03cd
   897 0000:03d0   899 0000:03d2   901 0000:03d3   903 0000:03da
   921 0000:03db   923 0000:03dd   924 0000:03e0   926 0000:03e2
   927 0000:03e4   929 0000:03e6   931 0000:03e7   932 0000:03ea
   935 0000:03ec   936 0000:03f0   938 0000:03f4   943 0000:03f5
   944 0000:03f7   947 0000:03fb   948 0000:03fe   950 0000:0400
   951 0000:0405   952 0000:040a   954 0000:040f   956 0000:0410
   960 0000:0412   962 0000:0413   964 0000:0415   985 0000:0416
   987 0000:0418   988 0000:041b   989 0000:041e   990 0000:0422
   996 0000:0426   997 0000:042a   999 0000:042c  1000 0000:042f
  1002 0000:0431  1003 0000:0434  1005 0000:0436  1006 0000:043b
  1019 0000:043f  1020 0000:0441  1021 0000:0443  1022 0000:0444
  1023 0000:0447  1024 0000:044a  1026 0000:044d  1028 0000:0451
  1029 0000:0456  1031 0000:0458  1033 0000:0460  1035 0000:0461
  1037 0000:0463  1060 0000:0464  1062 0000:0469  1063 0000:046e
  1064 0000:0472  1068 0000:0476  1069 0000:0479  1080 0000:047b
  1081 0000:047c  1082 0000:047d  1083 0000:047e  1084 0000:0481
  1085 0000:0484  1089 0000:0487  1091 0000:048c  1114 0000:048d
  1116 0000:0490  1117 0000:0494  1118 0000:0498  1121 0000:049c
  1124 0000:049f  1126 0000:04a2  1148 0000:04a3  1150 0000:04a4
  1151 0000:04a6  1154 0000:04aa  1158 0000:04ad  1160 0000:04ae

Program entry point at 0000:0002

Line numbers for RET\PRINTF.OBJ(R:\MAX\STATUTIL\PRINTF.asm) segment CODE

   256 0000:04b1   257 0000:04b2   259 0000:04b4   262 0000:04b9
   269 0000:04be   270 0000:04c2   271 0000:04c5   273 0000:04cd
   275 0000:04d3   277 0000:04d8   279 0000:04d9   340 0000:04dc
   342 0000:04de   345 0000:04e3   347 0000:04e8   349 0000:04ef
   353 0000:04f2   354 0000:04f3   356 0000:04f5   358 0000:04f6
   359 0000:04f8   361 0000:04fb   363 0000:04fc   365 0000:04fd
   367 0000:0502   373 0000:0504   420 0000:0505   423 0000:0508
   425 0000:050a   428 0000:050f   430 0000:0514   432 0000:051b
   434 0000:051e   436 0000:0523   440 0000:0525   442 0000:0528
   502 0000:0529   504 0000:052b   507 0000:0530   509 0000:0535
   511 0000:053c   515 0000:053f   516 0000:0540   518 0000:0542
   520 0000:0544   523 0000:0547   525 0000:054b   528 0000:054d
   530 0000:054e   532 0000:0553   538 0000:0555   584 0000:0556
   587 0000:0559   589 0000:055b   592 0000:0560   594 0000:0565
   596 0000:056c   598 0000:056f   600 0000:0574   604 0000:0576
   606 0000:0579   661 0000:057a   662 0000:057b   663 0000:057e
   665 0000:0580   666 0000:0583   667 0000:0588   669 0000:0590
   670 0000:0592   673 0000:0598   674 0000:059a   677 0000:059c
   680 0000:059f   681 0000:05a1   684 0000:05a3   685 0000:05a6
   692 0000:05a9   695 0000:05af   697 0000:05b1   699 0000:05b4
   700 0000:05b7   702 0000:05b8   726 0000:05b9   727 0000:05c1
   728 0000:05c6   729 0000:05cb   730 0000:05d3   732 0000:05d8
   734 0000:05d9   735 0000:05db   737 0000:05df   738 0000:05e1
   740 0000:05e3   741 0000:05e5   743 0000:05e7   744 0000:05e9
   746 0000:05ee   750 0000:05f0   751 0000:05f3   753 0000:05f4
   754 0000:05f6   756 0000:05f8   757 0000:05fa   759 0000:05fc
   760 0000:05ff   762 0000:0602   766 0000:060b   768 0000:060c
   772 0000:060e   773 0000:0612   774 0000:0615   776 0000:0617
   777 0000:061a   779 0000:061d   780 0000:0620   782 0000:0623
   785 0000:0626   787 0000:0627   794 0000:062a   796 0000:062b
   798 0000:062d   799 0000:0630   801 0000:0633   808 0000:0635
   810 0000:0639   814 0000:063c   815 0000:0641   817 0000:0643
   821 0000:0646   823 0000:064b   827 0000:064d   829 0000:0652
   833 0000:0654   835 0000:0659   839 0000:065b   841 0000:0660
   845 0000:0662   847 0000:066a   851 0000:066c   853 0000:0671
   857 0000:0674   858 0000:0677   860 0000:0679   861 0000:067c
   863 0000:067e   866 0000:0680   867 0000:0686   870 0000:0689
   871 0000:0691   873 0000:0694   877 0000:0697   878 0000:069c
   880 0000:06a4   884 0000:06a6   885 0000:06ab   887 0000:06b3
   891 0000:06b5   892 0000:06ba   894 0000:06c2   896 0000:06ca
   900 0000:06cd   902 0000:06d0   906 0000:06d2   908 0000:06d3
   909 0000:06d9   912 0000:06dc   914 0000:06df   918 0000:06e2
   919 0000:06ea   921 0000:06f2   925 0000:06f5   927 0000:06fd
   931 0000:0700   933 0000:0708   937 0000:070b   938 0000:0713
   940 0000:071b   946 0000:071e   947 0000:0721   949 0000:0723
   955 0000:0726   957 0000:072b   958 0000:072e   960 0000:0730
   961 0000:0738   963 0000:073a   964 0000:073c   966 0000:0741
   968 0000:0743   969 0000:074b   971 0000:074d   973 0000:0750
   974 0000:0758   976 0000:075a   978 0000:075d   980 0000:0760
   982 0000:0764   983 0000:0765   985 0000:0768   989 0000:076b
   990 0000:076e   994 0000:0776   995 0000:0777   996 0000:0778
  1001 0000:077b  1002 0000:0783  1004 0000:0785  1005 0000:0787
  1007 0000:0789  1009 0000:078b  1010 0000:0793  1012 0000:0795
  1014 0000:0797  1016 0000:079c  1018 0000:079e  1019 0000:079f
  1020 0000:07a0  1022 0000:07a3  1025 0000:07a6  1031 0000:07a9
  1032 0000:07b1  1034 0000:07b9  1040 0000:07bb  1041 0000:07c3
  1043 0000:07cb  1049 0000:07cd  1051 0000:07d2  1052 0000:07da
  1054 0000:07e2  1055 0000:07e5  1057 0000:07e8  1058 0000:07ee
  1059 0000:07f2  1061 0000:07f4  1066 0000:07f8  1067 0000:07fb
  1071 0000:0803  1073 0000:0804  1074 0000:0807  1076 0000:080a
  1077 0000:080e  1079 0000:0810  1081 0000:0811  1082 0000:0817
  1083 0000:081a  1085 0000:081b  1086 0000:081c  1087 0000:081e
  1088 0000:0821  1090 0000:0822  1091 0000:0828  1093 0000:082c
  1094 0000:082f  1096 0000:0831  1098 0000:0833  1100 0000:0834
  1101 0000:0836  1103 0000:0839  1105 0000:083a  1107 0000:083b
  1109 0000:083c  1110 0000:083f  1112 0000:0842  1114 0000:0843
  1115 0000:0845  1116 0000:0848  1118 0000:084a  1120 0000:084b
  1121 0000:084d  1123 0000:0852  1125 0000:0853  1127 0000:0855
  1133 0000:0858  1135 0000:0860  1138 0000:0863  1140 0000:0864
  1141 0000:0866  1143 0000:0869  1144 0000:0871  1146 0000:0873
  1148 0000:0876  1150 0000:0878  1152 0000:087a  1153 0000:087c
  1155 0000:087e  1156 0000:0880  1158 0000:0885  1159 0000:0889
  1161 0000:088b  1163 0000:088e  1165 0000:0890  1169 0000:0892
  1171 0000:089a  1174 0000:089d  1176 0000:089e  1177 0000:08a0
  1179 0000:08a3  1180 0000:08ab  1182 0000:08ad  1184 0000:08b0
  1186 0000:08b2  1188 0000:08b4  1189 0000:08b7  1191 0000:08b9
  1192 0000:08bb  1194 0000:08c0  1195 0000:08c4  1197 0000:08c6
  1199 0000:08c9  1202 0000:08cb  1203 0000:08ce  1205 0000:08d0
  1207 0000:08d2  1209 0000:08d7  1211 0000:08d9  1213 0000:08da
  1218 0000:08dd  1246 0000:08de  1247 0000:08e6  1249 0000:08e8
  1250 0000:08ec  1252 0000:08ee  1253 0000:08f3  1256 0000:08f7
  1258 0000:08fa  1262 0000:08fc  1263 0000:0900  1266 0000:0904
  1268 0000:0907  1272 0000:0909  1275 0000:090c  1276 0000:0910
  1277 0000:0914  1279 0000:0917  1309 0000:0918  1311 0000:091a
  1312 0000:0922  1314 0000:0924  1316 0000:0926  1319 0000:0929
  1321 0000:092e  1324 0000:0930  1328 0000:0932  1329 0000:0936
  1331 0000:0939  1332 0000:093d  1334 0000:0940  1335 0000:0948
  1337 0000:094a  1338 0000:094e  1340 0000:0950  1341 0000:0954
  1343 0000:0956  1344 0000:095a  1346 0000:095e  1349 0000:0960
  1350 0000:0964  1353 0000:0968  1355 0000:096b  1357 0000:096d
  1380 0000:096e  1381 0000:0972  1382 0000:0976  1384 0000:0979
  1405 0000:097a  1406 0000:097c  1408 0000:097e  1410 0000:0980
  1434 0000:0981  1436 0000:0982  1437 0000:0984  1439 0000:0986
  1440 0000:0988  1442 0000:098a  1444 0000:098d  1465 0000:098e
  1467 0000:098f  1469 0000:0990  1470 0000:0992  1472 0000:0994
  1474 0000:0995  1476 0000:0996  1499 0000:0997  1501 0000:099f
  1503 0000:09a2  1505 0000:09a5  1506 0000:09aa  1507 0000:09ac
  1508 0000:09ae  1509 0000:09b0  1511 0000:09b2  1512 0000:09b9
  1513 0000:09bc  1514 0000:09bf  1515 0000:09c2  1517 0000:09c5
  1518 0000:09c6  1520 0000:09c9  1523 0000:09cb  1524 0000:09cc
  1526 0000:09cf  1528 0000:09d7  1553 0000:09d8  1554 0000:09d9
  1556 0000:09db  1558 0000:09de  1561 0000:09e1  1562 0000:09e2
  1563 0000:09e4  1564 0000:09e7  1566 0000:09e9  1567 0000:09ec
  1569 0000:09ee  1572 0000:09f1  1574 0000:09f2  1592 0000:09f5
  1594 0000:09f6  1596 0000:09fa  1598 0000:09fb  1600 0000:09fe
  1618 0000:09ff  1620 0000:0a02  1623 0000:0a05  1624 0000:0a07
  1625 0000:0a08  1627 0000:0a0b  1629 0000:0a0e  1631 0000:0a11
  1649 0000:0a12  1651 0000:0a16  1652 0000:0a18  1655 0000:0a1a
  1656 0000:0a1d  1658 0000:0a21  1659 0000:0a24  1661 0000:0a26
  1662 0000:0a29  1664 0000:0a2c  1666 0000:0a30  1668 0000:0a38
  1670 0000:0a3d  1672 0000:0a40  1675 0000:0a44  1693 0000:0a45
  1695 0000:0a49  1696 0000:0a4b  1699 0000:0a4d  1701 0000:0a50
  1703 0000:0a53  1706 0000:0a57  1727 0000:0a58  1728 0000:0a59
  1730 0000:0a5b  1732 0000:0a5f  1733 0000:0a62  1735 0000:0a65
  1737 0000:0a66  1738 0000:0a68  1740 0000:0a6a  1741 0000:0a6c
  1743 0000:0a71  1746 0000:0a73  1749 0000:0a77  1751 0000:0a78
  1793 0000:0a7b  1794 0000:0a7c  1795 0000:0a7f  1797 0000:0a81
  1799 0000:0a82  1801 0000:0a8c  1802 0000:0a91  1804 0000:0a93
  1805 0000:0a96  1807 0000:0a99  1808 0000:0a9a  1811 0000:0a9b
  1813 0000:0a9e  1814 0000:0aa1  1815 0000:0aa4  1817 0000:0aa5
  1819 0000:0aa8  1822 0000:0aad  1823 0000:0aaf  1824 0000:0ab1
  1825 0000:0ab2  1826 0000:0ab4  1827 0000:0ab7  1829 0000:0aba
  1830 0000:0abd  1832 0000:0abf  1833 0000:0ac4  1835 0000:0ac6
  1837 0000:0ac8  1838 0000:0acc  1840 0000:0ace  1841 0000:0ad0
  1842 0000:0ad2  1843 0000:0ad3  1845 0000:0ad5  1847 0000:0ad7
  1850 0000:0ad9  1851 0000:0ade  1853 0000:0ae0  1854 0000:0ae3
  1857 0000:0ae6  1858 0000:0ae7  1860 0000:0aea  1863 0000:0af4
  1865 0000:0af5  1866 0000:0af8  1868 0000:0af9  1876 0000:0afc
  1877 0000:0afd  1878 0000:0b00  1879 0000:0b03  1881 0000:0b04
  1889 0000:0b05  1890 0000:0b06  1891 0000:0b09  1892 0000:0b0c
  1894 0000:0b0d  1902 0000:0b0e  1903 0000:0b0f  1904 0000:0b12
  1905 0000:0b15  1907 0000:0b16  1915 0000:0b17  1916 0000:0b18
  1917 0000:0b1b  1918 0000:0b1e  1920 0000:0b1f  1943 0000:0b20
  1945 0000:0b26  1946 0000:0b27  1948 0000:0b28  1949 0000:0b2b
  1950 0000:0b2f  1952 0000:0b31  1954 0000:0b32  1956 0000:0b34
  1957 0000:0b36  1958 0000:0b38  1959 0000:0b39  1961 0000:0b3a
  1963 0000:0b3e  1965 0000:0b40  1967 0000:0b41  1969 0000:0b42
  1971 0000:0b48