
 Start  Stop   Length Name                   Class
 00000H 00875H 00876H CODE                   CODE
 00878H 00BA9H 00332H DATA                   DATA
 00BB0H 01BAFH 01000H STACK                  DATA

 Origin   Group
 0000:0   PGROUP
 0087:0   DGROUP

  Address         Publics by Name

 0000:0135       BIND2BASE
 0000:01A7       CHECKWIN
 0000:015E       CHECKXMS
 0000:0000       DATASEG
 0000:00D2       DISPXMSINFO
 0000:0232       FPRINTF16
 0000:01DE       FPRINTFLUSH
 0087:0174       MSG_AVAIL
 0087:001E       MSG_COPY
 0087:00B0       MSG_HDR
 0087:013F       MSG_LIST
 0087:0092       MSG_NOXMS
 0087:01AD       NUMBERS_HI
 0087:0008       OLDXMS_VEC
 0000:0283       PRINTF16
 0000:0209       RPRINTF16
 0000:0256       SPRINTF16
 0087:001C       STACKARR
 0087:0010       XMSADDR
 0087:001A       XMSFLAG
 0087:0014       XMSHNDL
 0087:000C       XMSLEN
 0000:0002       XMSLIST
 0087:0018       XMSLOCK
 0087:0016       XMSVER
 0087:01AC       XMS_GETINF
 0087:01AA       XMS_GETXMB
 0087:01AB       XMS_MODXMB
 0087:01A9       XMS_QRYXMB

  Address         Publics by Value

 0000:0000       DATASEG
 0000:0002       XMSLIST
 0000:00D2       DISPXMSINFO
 0000:0135       BIND2BASE
 0000:015E       CHECKXMS
 0000:01A7       CHECKWIN
 0000:01DE       FPRINTFLUSH
 0000:0209       RPRINTF16
 0000:0232       FPRINTF16
 0000:0256       SPRINTF16
 0000:0283       PRINTF16
 0087:0008       OLDXMS_VEC
 0087:000C       XMSLEN
 0087:0010       XMSADDR
 0087:0014       XMSHNDL
 0087:0016       XMSVER
 0087:0018       XMSLOCK
 0087:001A       XMSFLAG
 0087:001C       STACKARR
 0087:001E       MSG_COPY
 0087:0092       MSG_NOXMS
 0087:00B0       MSG_HDR
 0087:013F       MSG_LIST
 0087:0174       MSG_AVAIL
 0087:01A9       XMS_QRYXMB
 0087:01AA       XMS_GETXMB
 0087:01AB       XMS_MODXMB
 0087:01AC       XMS_GETINF
 0087:01AD       NUMBERS_HI

Line numbers for RET\XMSLIST.OBJ(.\XMSLIST.asm) segment CODE

   121 0000:0002   126 0000:0007   129 0000:000c   131 0000:0014
   132 0000:0017   136 0000:001b   138 0000:0021   140 0000:0025
   141 0000:0028   143 0000:002a   145 0000:002e   146 0000:0032
   147 0000:0034   148 0000:0038   150 0000:003a   151 0000:003e
   152 0000:0042   153 0000:0044   155 0000:0049   156 0000:004d
   157 0000:004e   158 0000:0051   159 0000:0054   161 0000:0057
   163 0000:005c   169 0000:005e   170 0000:0061   172 0000:0065
   174 0000:0069   175 0000:006c   176 0000:006f   177 0000:0073
   183 0000:0077   184 0000:007a   186 0000:007c   187 0000:007f
   188 0000:0083   192 0000:0087   194 0000:0088   198 0000:008a
   199 0000:008e   201 0000:0090   203 0000:0094   206 0000:0097
   208 0000:009b   209 0000:009f   210 0000:00a1   211 0000:00a5
   213 0000:00a7   214 0000:00ab   215 0000:00af   216 0000:00b1
   218 0000:00b6   219 0000:00b7   220 0000:00ba   221 0000:00bd
   225 0000:00c0   226 0000:00c4   227 0000:00c6   233 0000:00ca
   237 0000:00cc   238 0000:00ce   258 0000:00d2   260 0000:00d4
   261 0000:00d7   262 0000:00db   263 0000:00df   270 0000:00e3
   271 0000:00e6   273 0000:00e8   275 0000:00ec   276 0000:00f2
   278 0000:00f4   280 0000:00f7   284 0000:00fc   285 0000:0100
   286 0000:0102   293 0000:0106   294 0000:010a   298 0000:010e
   299 0000:0112   300 0000:0114   306 0000:0118   307 0000:011e
   309 0000:0120   310 0000:0123   312 0000:0125   313 0000:0126
   314 0000:0127   315 0000:0128   316 0000:012b   317 0000:012e
   319 0000:0131   321 0000:0132   323 0000:0134   341 0000:0135
   343 0000:013c   344 0000:013d   346 0000:013e   348 0000:0142
   349 0000:0145   351 0000:0148   352 0000:014f   354 0000:0150
   355 0000:0153   357 0000:0155   359 0000:0156   361 0000:015d
   379 0000:015e   381 0000:015f   382 0000:0162   384 0000:0164
   385 0000:0166   387 0000:0168   389 0000:0169   390 0000:016c
   393 0000:016e   394 0000:0172   396 0000:0176   401 0000:0177
   402 0000:0179   405 0000:017d   407 0000:0180   408 0000:0183
   410 0000:0185   411 0000:018a   412 0000:018f   413 0000:0194
   415 0000:0199   417 0000:019a   421 0000:019c   423 0000:01a4
   425 0000:01a5   427 0000:01a6   445 0000:01a7   447 0000:01a8
   448 0000:01ab   453 0000:01ad   455 0000:01af   457 0000:01b1
   458 0000:01b3   460 0000:01b5   461 0000:01b9   463 0000:01bb
   465 0000:01bd   469 0000:01bf   470 0000:01c2   474 0000:01c4
   475 0000:01c6   477 0000:01c8   478 0000:01cb   485 0000:01cd
   486 0000:01cf   488 0000:01d1   489 0000:01d3   491 0000:01d5
   492 0000:01d7   501 0000:01d9   503 0000:01da   505 0000:01db

Program entry point at 0000:0002

Line numbers for RET\PRINTF.OBJ(R:\MAX\STATUTIL\PRINTF.asm) segment CODE

   256 0000:01de   257 0000:01df   259 0000:01e1   262 0000:01e6
   269 0000:01eb   270 0000:01ef   271 0000:01f2   273 0000:01fa
   275 0000:0200   277 0000:0205   279 0000:0206   340 0000:0209
   342 0000:020b   345 0000:0210   347 0000:0215   349 0000:021c
   353 0000:021f   354 0000:0220   356 0000:0222   358 0000:0223
   359 0000:0225   361 0000:0228   363 0000:0229   365 0000:022a
   367 0000:022f   373 0000:0231   420 0000:0232   423 0000:0235
   425 0000:0237   428 0000:023c   430 0000:0241   432 0000:0248
   434 0000:024b   436 0000:0250   440 0000:0252   442 0000:0255
   502 0000:0256   504 0000:0258   507 0000:025d   509 0000:0262
   511 0000:0269   515 0000:026c   516 0000:026d   518 0000:026f
   520 0000:0271   523 0000:0274   525 0000:0278   528 0000:027a
   530 0000:027b   532 0000:0280   538 0000:0282   584 0000:0283
   587 0000:0286   589 0000:0288   592 0000:028d   594 0000:0292
   596 0000:0299   598 0000:029c   600 0000:02a1   604 0000:02a3
   606 0000:02a6   661 0000:02a7   662 0000:02a8   663 0000:02ab
   665 0000:02ad   666 0000:02b0   667 0000:02b5   669 0000:02bd
   670 0000:02bf   673 0000:02c5   674 0000:02c7   677 0000:02c9
   680 0000:02cc   681 0000:02ce   684 0000:02d0   685 0000:02d3
   692 0000:02d6   695 0000:02dc   697 0000:02de   699 0000:02e1
   700 0000:02e4   702 0000:02e5   726 0000:02e6   727 0000:02ee
   728 0000:02f3   729 0000:02f8   730 0000:0300   732 0000:0305
   734 0000:0306   735 0000:0308   737 0000:030c   738 0000:030e
   740 0000:0310   741 0000:0312   743 0000:0314   744 0000:0316
   746 0000:031b   750 0000:031d   751 0000:0320   753 0000:0321
   754 0000:0323   756 0000:0325   757 0000:0327   759 0000:0329
   760 0000:032c   762 0000:032f   766 0000:0338   768 0000:0339
   772 0000:033b   773 0000:033f   774 0000:0342   776 0000:0344
   777 0000:0347   779 0000:034a   780 0000:034d   782 0000:0350
   785 0000:0353   787 0000:0354   794 0000:0357   796 0000:0358
   798 0000:035a   799 0000:035d   801 0000:0360   808 0000:0362
   810 0000:0366   814 0000:0369   815 0000:036e   817 0000:0370
   821 0000:0373   823 0000:0378   827 0000:037a   829 0000:037f
   833 0000:0381   835 0000:0386   839 0000:0388   841 0000:038d
   845 0000:038f   847 0000:0397   851 0000:0399   853 0000:039e
   857 0000:03a1   858 0000:03a4   860 0000:03a6   861 0000:03a9
   863 0000:03ab   866 0000:03ad   867 0000:03b3   870 0000:03b6
   871 0000:03be   873 0000:03c1   877 0000:03c4   878 0000:03c9
   880 0000:03d1   884 0000:03d3   885 0000:03d8   887 0000:03e0
   891 0000:03e2   892 0000:03e7   894 0000:03ef   896 0000:03f7
   900 0000:03fa   902 0000:03fd   906 0000:03ff   908 0000:0400
   909 0000:0406   912 0000:0409   914 0000:040c   918 0000:040f
   919 0000:0417   921 0000:041f   925 0000:0422   927 0000:042a
   931 0000:042d   933 0000:0435   937 0000:0438   938 0000:0440
   940 0000:0448   946 0000:044b   947 0000:044e   949 0000:0450
   955 0000:0453   957 0000:0458   958 0000:045b   960 0000:045d
   961 0000:0465   963 0000:0467   964 0000:0469   966 0000:046e
   968 0000:0470   969 0000:0478   971 0000:047a   973 0000:047d
   974 0000:0485   976 0000:0487   978 0000:048a   980 0000:048d
   982 0000:0491   983 0000:0492   985 0000:0495   989 0000:0498
   990 0000:049b   994 0000:04a3   995 0000:04a4   996 0000:04a5
  1001 0000:04a8  1002 0000:04b0  1004 0000:04b2  1005 0000:04b4
  1007 0000:04b6  1009 0000:04b8  1010 0000:04c0  1012 0000:04c2
  1014 0000:04c4  1016 0000:04c9  1018 0000:04cb  1019 0000:04cc
  1020 0000:04cd  1022 0000:04d0  1025 0000:04d3  1031 0000:04d6
  1032 0000:04de  1034 0000:04e6  1040 0000:04e8  1041 0000:04f0
  1043 0000:04f8  1049 0000:04fa  1051 0000:04ff  1052 0000:0507
  1054 0000:050f  1055 0000:0512  1057 0000:0515  1058 0000:051b
  1059 0000:051f  1061 0000:0521  1066 0000:0525  1067 0000:0528
  1071 0000:0530  1073 0000:0531  1074 0000:0534  1076 0000:0537
  1077 0000:053b  1079 0000:053d  1081 0000:053e  1082 0000:0544
  1083 0000:0547  1085 0000:0548  1086 0000:0549  1087 0000:054b
  1088 0000:054e  1090 0000:054f  1091 0000:0555  1093 0000:0559
  1094 0000:055c  1096 0000:055e  1098 0000:0560  1100 0000:0561
  1101 0000:0563  1103 0000:0566  1105 0000:0567  1107 0000:0568
  1109 0000:0569  1110 0000:056c  1112 0000:056f  1114 0000:0570
  1115 0000:0572  1116 0000:0575  1118 0000:0577  1120 0000:0578
  1121 0000:057a  1123 0000:057f  1125 0000:0580  1127 0000:0582
  1133 0000:0585  1135 0000:058d  1138 0000:0590  1140 0000:0591
  1141 0000:0593  1143 0000:0596  1144 0000:059e  1146 0000:05a0
  1148 0000:05a3  1150 0000:05a5  1152 0000:05a7  1153 0000:05a9
  1155 0000:05ab  1156 0000:05ad  1158 0000:05b2  1159 0000:05b6
  1161 0000:05b8  1163 0000:05bb  1165 0000:05bd  1169 0000:05bf
  1171 0000:05c7  1174 0000:05ca  1176 0000:05cb  1177 0000:05cd
  1179 0000:05d0  1180 0000:05d8  1182 0000:05da  1184 0000:05dd
  1186 0000:05df  1188 0000:05e1  1189 0000:05e4  1191 0000:05e6
  1192 0000:05e8  1194 0000:05ed  1195 0000:05f1  1197 0000:05f3
  1199 0000:05f6  1202 0000:05f8  1203 0000:05fb  1205 0000:05fd
  1207 0000:05ff  1209 0000:0604  1211 0000:0606  1213 0000:0607
  1218 0000:060a  1246 0000:060b  1247 0000:0613  1249 0000:0615
  1250 0000:0619  1252 0000:061b  1253 0000:0620  1256 0000:0624
  1258 0000:0627  1262 0000:0629  1263 0000:062d  1266 0000:0631
  1268 0000:0634  1272 0000:0636  1275 0000:0639  1276 0000:063d
  1277 0000:0641  1279 0000:0644  1309 0000:0645  1311 0000:0647
  1312 0000:064f  1314 0000:0651  1316 0000:0653  1319 0000:0656
  1321 0000:065b  1324 0000:065d  1328 0000:065f  1329 0000:0663
  1331 0000:0666  1332 0000:066a  1334 0000:066d  1335 0000:0675
  1337 0000:0677  1338 0000:067b  1340 0000:067d  1341 0000:0681
  1343 0000:0683  1344 0000:0687  1346 0000:068b  1349 0000:068d
  1350 0000:0691  1353 0000:0695  1355 0000:0698  1357 0000:069a
  1380 0000:069b  1381 0000:069f  1382 0000:06a3  1384 0000:06a6
  1405 0000:06a7  1406 0000:06a9  1408 0000:06ab  1410 0000:06ad
  1434 0000:06ae  1436 0000:06af  1437 0000:06b1  1439 0000:06b3
  1440 0000:06b5  1442 0000:06b7  1444 0000:06ba  1465 0000:06bb
  1467 0000:06bc  1469 0000:06bd  1470 0000:06bf  1472 0000:06c1
  1474 0000:06c2  1476 0000:06c3  1499 0000:06c4  1501 0000:06cc
  1503 0000:06cf  1505 0000:06d2  1506 0000:06d7  1507 0000:06d9
  1508 0000:06db  1509 0000:06dd  1511 0000:06df  1512 0000:06e6
  1513 0000:06e9  1514 0000:06ec  1515 0000:06ef  1517 0000:06f2
  1518 0000:06f3  1520 0000:06f6  1523 0000:06f8  1524 0000:06f9
  1526 0000:06fc  1528 0000:0704  1553 0000:0705  1554 0000:0706
  1556 0000:0708  1558 0000:070b  1561 0000:070e  1562 0000:070f
  1563 0000:0711  1564 0000:0714  1566 0000:0716  1567 0000:0719
  1569 0000:071b  1572 0000:071e  1574 0000:071f  1592 0000:0722
  1594 0000:0723  1596 0000:0727  1598 0000:0728  1600 0000:072b
  1618 0000:072c  1620 0000:072f  1623 0000:0732  1624 0000:0734
  1625 0000:0735  1627 0000:0738  1629 0000:073b  1631 0000:073e
  1649 0000:073f  1651 0000:0743  1652 0000:0745  1655 0000:0747
  1656 0000:074a  1658 0000:074e  1659 0000:0751  1661 0000:0753
  1662 0000:0756  1664 0000:0759  1666 0000:075d  1668 0000:0765
  1670 0000:076a  1672 0000:076d  1675 0000:0771  1693 0000:0772
  1695 0000:0776  1696 0000:0778  1699 0000:077a  1701 0000:077d
  1703 0000:0780  1706 0000:0784  1727 0000:0785  1728 0000:0786
  1730 0000:0788  1732 0000:078c  1733 0000:078f  1735 0000:0792
  1737 0000:0793  1738 0000:0795  1740 0000:0797  1741 0000:0799
  1743 0000:079e  1746 0000:07a0  1749 0000:07a4  1751 0000:07a5
  1793 0000:07a8  1794 0000:07a9  1795 0000:07ac  1797 0000:07ae
  1799 0000:07af  1801 0000:07b9  1802 0000:07be  1804 0000:07c0
  1805 0000:07c3  1807 0000:07c6  1808 0000:07c7  1811 0000:07c8
  1813 0000:07cb  1814 0000:07ce  1815 0000:07d1  1817 0000:07d2
  1819 0000:07d5  1822 0000:07da  1823 0000:07dc  1824 0000:07de
  1825 0000:07df  1826 0000:07e1  1827 0000:07e4  1829 0000:07e7
  1830 0000:07ea  1832 0000:07ec  1833 0000:07f1  1835 0000:07f3
  1837 0000:07f5  1838 0000:07f9  1840 0000:07fb  1841 0000:07fd
  1842 0000:07ff  1843 0000:0800  1845 0000:0802  1847 0000:0804
  1850 0000:0806  1851 0000:080b  1853 0000:080d  1854 0000:0810
  1857 0000:0813  1858 0000:0814  1860 0000:0817  1863 0000:0821
  1865 0000:0822  1866 0000:0825  1868 0000:0826  1876 0000:0829
  1877 0000:082a  1878 0000:082d  1879 0000:0830  1881 0000:0831
  1889 0000:0832  1890 0000:0833  1891 0000:0836  1892 0000:0839
  1894 0000:083a  1902 0000:083b  1903 0000:083c  1904 0000:083f
  1905 0000:0842  1907 0000:0843  1915 0000:0844  1916 0000:0845
  1917 0000:0848  1918 0000:084b  1920 0000:084c  1943 0000:084d
  1945 0000:0853  1946 0000:0854  1948 0000:0855  1949 0000:0858
  1950 0000:085c  1952 0000:085e  1954 0000:085f  1956 0000:0861
  1957 0000:0863  1958 0000:0865  1959 0000:0866  1961 0000:0867
  1963 0000:086b  1965 0000:086d  1967 0000:086e  1969 0000:086f
  1971 0000:0875