
 Start  Stop   Length Name                   Class
 00000H 0D570H 0D571H CODE                   PROG                              
 0D571H 0D571H 00000H PROG                   PROG                              
 0D580H 0D580H 00000H CODEZ                  PROG                              
 0D580H 0D97FH 00400H STACK                  DATA                              
 0D980H 1ABFBH 0D27CH DATA                   DATA                              
 1ABFCH 1AC5DH 00062H SEG_TAB                DATA                              
 1AC5EH 1ACBFH 00062H SEG_LEN                DATA                              
 1ACC0H 1AD21H 00062H SEG_ACT                DATA                              
 1AD24H 1C43BH 01718H NDATA                  DATA                              
 1C43CH 1C82FH 003F4H DATAMSG                DATA                              
 1C830H 1C8F3H 000C4H KEYSEG                 DATA                              
 1C8F4H 1C9B7H 000C4H ACTSEG                 DATA                              
 1C9B8H 1CA01H 0004AH CALIBSEG               DATA                              
 1CA02H 1CA02H 00000H LBLSEGA                DATA                              
 1CA02H 1CB9DH 0019CH LBLSEG                 DATA                              
 1CB9EH 1CB9EH 00000H LBLSEGZ                DATA                              
 1CBA0H 1CD31H 00192H DATAZ                  DATAZ                             
 1CD34H 1CD37H 00004H IDENT                  DATAZ                             

 Origin   Group
 0D58:0   DGROUP                                                               
 0000:0   PSPGRP                                                               
 0000:0   PGROUP                                                               
 0000:0   AGROUP                                                               
 0000:0   ERRGRP                                                               
 0001:0   TTGRP                                                                
 F000:0   CGROUP                                                               
 0000:0   RGROUP                                                               

  Address         Publics by Name

 0000:002B  Abs  @ACHLP_NCOL         
 0000:0010  Abs  @ACHLP_NROW         
 0000:000B  Abs  @ASKCMD_SREMROW     
 0000:0008  Abs  @ASKITEM_LEN        
 0000:0010  Abs  @AUTO_LEN           
 0000:0003  Abs  @DMSEC_LEN          
 0000:0012  Abs  @DNUM_LEN           
 0000:0007  Abs  @ELEV_NROW          
 0000:000E  Abs  @ELEV_SROW          
 0000:0012  Abs  @ENUM_LEN           
 0000:0047  Abs  @HCMD_NCOL          
 0000:003D  Abs  @HCMD_NROW          
 0000:0012  Abs  @HELEV_NROW         
 0000:0003  Abs  @HELEV_SROW         
 0000:0000  Abs  @HELP_NONE          
 0000:0002  Abs  @HELP_SCREEN        
 0000:0001  Abs  @HELP_TOPICS        
 0000:0047  Abs  @HERR_NCOL          
 0000:000C  Abs  @HERR_NROW          
 0000:0005  Abs  @HLIN_LEN           
 0000:0005  Abs  @HLPIND_MEM         
 0000:0006  Abs  @HLPIND_NMI         
 0000:0007  Abs  @HLPIND_NMIX        
 0000:0047  Abs  @HMEM_NCOL          
 0000:0011  Abs  @HMEM_NROW          
 0000:0047  Abs  @HNAV_NCOL          
 0000:004B  Abs  @HNAV_NROW          
 0000:0047  Abs  @HNMIX_NCOL         
 0000:000E  Abs  @HNMIX_NROW         
 0000:0047  Abs  @HNMI_NCOL          
 0000:000E  Abs  @HNMI_NROW          
 0000:0047  Abs  @HOVR_NCOL          
 0000:0026  Abs  @HOVR_NROW          
 0000:0047  Abs  @HTST_NCOL          
 0000:0036  Abs  @HTST_NROW          
 0000:0047  Abs  @HTXT_NCOL          
 0000:0012  Abs  @HTXT_NROW          
 0000:0003  Abs  @HTXT_SCOL          
 0000:0003  Abs  @HTXT_SROW          
 0000:011B  Abs  @KEY_HALT           
 0D58:F482       @LBLSEGA            
 0D58:F61E       @LBLSEGZ            
 0000:002D  Abs  @LEN_ASKCMDOPT      
 0000:0007  Abs  @MEMITEM_LEN        
 0000:0019  Abs  @MEMLIN_NCOL        
 0000:0002  Abs  @MEMLIN_SCOL        
 0000:000E  Abs  @MEMLIN_SROW        
 0000:0011  Abs  @MSG_ENUM_LEN       
 0000:006C  Abs  @MSG_LARGE          
 0000:0028  Abs  @MSG_QMTDAT_LEN     
 0000:0073  Abs  @MSG_SMALL          
 0000:0080  Abs  @SHDTAB_LEN         
 0000:0017  Abs  @STATLIN_END        
 0000:002F  Abs  @STATLIN_NCOL       
 0000:000A  Abs  @STATLIN_NROW       
 0000:000D  Abs  @STATLIN_SROW       
 0000:0080  Abs  @XSHDTAB_LEN        
 0000:D3A6       A20COM_I78          
 0000:D38B       A20COM_I92          
 0000:D3AF       A20COM_ISA          
 0000:D393       A20COM_QUD          
 0000:D3C7       A20COM_XMS          
 0000:D39F       A20COM_XT           
 0000:D34E       A20DIS_I78          
 0000:D345       A20DIS_I92          
 0000:D351       A20DIS_ISA          
 0000:D348       A20DIS_QUD          
 0000:D356       A20DIS_XMS          
 0000:D34B       A20DIS_XT           
 0000:D380       A20ENA_I78          
 0000:D377       A20ENA_I92          
 0000:D383       A20ENA_ISA          
 0000:D37A       A20ENA_QUD          
 0000:D388       A20ENA_XMS          
 0000:D37D       A20ENA_XT           
 0D58:8280       A20SUP              
 0D58:04D0       AAAR                
 0D58:0500       AAMEM               
 0D58:04D3       AARATTR             
 0D58:052C       AASK                
 0D58:0530       AASKAA              
 0D58:0534       AASKAB              
 0D58:0540       AASKBA              
 0D58:0544       AASKBB              
 0D58:0538       AASKMA              
 0D58:053C       AASKMB              
 0D58:0550       ABACK               
 0D58:04C4       ABRD                
 0D58:13F4       ACMDIND             
 0D58:04CC       ACPY                
 0000:D368       ACTA20_COM          
 0000:D306       ACTA20_COMSUB       
 0000:D314       ACTA20_DIS          
 0000:D308       ACTA20_ENA          
 0000:25F4       ACT_XPM             
 0000:3F2F       ADD_DELAYCNT        
 0000:40DF       ADD_TMPOPERS        
 0D58:04B4       ADEF                
 0D58:0580       ADELAY              
 0D58:057C       ADIS                
 0D58:0564       ADLGABHK            
 0D58:055C       ADLGABTN            
 0D58:0554       ADLGB               
 0D58:0560       ADLGBHK             
 0D58:0558       ADLGBTN             
 0D58:0578       ADLGEF              
 0D58:0570       ADLGEH              
 0D58:0574       ADLGEN              
 0D58:0568       ADLGRBHK            
 0D58:056C       ADLGTHK             
 0D58:13DE       ADVIND              
 0D58:04F0       AELEV               
 0D58:0508       AEMEM               
 0D58:04C0       AERR                
 0D58:0520       AHERR               
 0D58:0524       AHKEY               
 0D58:0514       AHLP                
 0D58:0518       AHLPA               
 0D58:051C       AHLPB               
 0D58:0528       AHLT                
 0D58:0510       AHTTL               
 0D58:0504       AIMEM               
 0D58:04D4       AKEY                
 0D58:04D8       AKEY2               
 0000:055F       ALLOCDYNAMIC        
 0000:4832       ALLOCPHYS           
 0D58:04F4       AMEM                
 0D58:0503       AMEMATTR            
 0D58:04F8       AMEMH               
 0D58:04B8       AMSG                
 0000:4CCE       APPEND_LOG          
 0D58:04E4       APRG                
 0D58:04E8       APRG1               
 0D58:04EC       APRG2               
 0D58:04A6       ARG_FLAG            
 0D58:6C59       ARR_AUTO            
 0D58:5C78       ARR_W_HCMD          
 0D58:5C58       ARR_W_HTOP          
 0D58:69EC       ARR_W_ITEM1         
 0D58:6DAC       ARR_W_ITEM2         
 0D58:EE9A       ARR_W_ITEM3         
 0D58:6773       ARR_W_MEMLIN        
 0D58:04DC       ASHD1               
 0D58:04E0       ASHD2               
 0D58:0533       ASKAAATTR           
 0D58:0537       ASKABATTR           
 0D58:F374       ASKACT              
 0D58:052F       ASKATTR             
 0D58:0543       ASKBAATTR           
 0D58:14AE       ASKBAS              
 0D58:0547       ASKBBATTR           
 0D58:13B0       ASKBLK              
 0D58:F3DE       ASKCACT             
 0D58:14B6       ASKCMDBTN           
 0D58:14B3       ASKCMDDN            
 0D58:14B0       ASKCMDUP            
 0D58:F31A       ASKCVAL             
 0D58:14A5       ASKDN               
 0D58:1468       ASKITEM             
 0D58:148A       ASKLFT              
 0D58:053B       ASKMAATTR           
 0D58:053F       ASKMBATTR           
 0D58:1493       ASKRHT              
 0D58:140A       ASKTAB              
 0D58:149C       ASKUP               
 0D58:F2B0       ASKVAL              
 0000:3572       ASK_COMPLETE        
 0D58:D904       ASK_DEFAULT         
 0000:3A8B       ASK_HALT            
 0D58:D905       ASK_TIMEOUT         
 0D58:054C       ASTATL              
 0D58:0548       ASTATT              
 0D58:2F7E       ASTMIO              
 0D58:050C       ATMEM               
 0D58:04C8       ATTL                
 0D58:04FC       AWMEM               
 0D58:04BC       AWRK                
 0D58:0553       BACKATTR            
 0000:1508       BASE2BIN            
 0000:1538       BASE2BIND           
 0D58:13C8       BASIND              
 0000:D2C5       BEEP                
 0000:0030  Abs  BETA_H              
 0000:0030  Abs  BETA_T              
 0000:0031  Abs  BETA_U              
 0000:5DB6       BIN2BIT             
 0000:5D3D       BIN2BYTE            
 0000:5D58       BIN2DEC             
 0000:5D4A       BIN2DIGIT           
 0000:5DD0       BIN2DVAL            
 0000:5D21       BIN2DWORD           
 0000:5D30       BIN2WORD            
 0000:5D81       BIND2DEC            
 0000:0C31       BIOS_BLOCK_MOVE     
 0D58:13B2       BLK_STRS            
 0D58:5C2E       BOXCHARS            
 0D58:1450       BPU                 
 0000:7F13       BRANCH_AX           
 0D58:04C7       BRDATTR             
 0D58:1286       BRKSTATE            
 0D58:5AD9       BTN_CANCEL          
 0D58:5AEF       BTN_CCANCEL         
 0D58:5AC3       BTN_OK              
 0000:1209       BYTE2DEC            
 0000:3E25       CALC_ETA            
 0000:6F8A       CALC_MEMVAL         
 0000:3F73       CALC_NOPERS         
 0000:3ED0       CALC_PCT            
 0000:43B6       CALC_PTST           
 0000:4331       CALC_TESTNAME       
 0000:4341       CALC_TESTTIME_BEG   
 0000:4376       CALC_TESTTIME_END   
 0000:892C       CALIBRATE           
 0D58:F474       CALIB_DRD           
 0D58:5D2C       CALIB_IND           
 0D58:F460       CALIB_LID           
 0D58:F458       CALIB_LIN           
 0D58:F46A       CALIB_MIF           
 0D58:5CB8       CALIB_R0DN          
 0D58:5CC0       CALIB_R0W1          
 0D58:5CC8       CALIB_R0W1DN        
 0D58:5CD8       CALIB_R0W1R1        
 0D58:5CE0       CALIB_R0W1R1DN      
 0D58:5CE8       CALIB_R0W1R1W0R0W1  
 0D58:5CD0       CALIB_R0W1W0DN      
 0D58:5CF0       CALIB_R1            
 0D58:5CF8       CALIB_R1W0          
 0D58:5D00       CALIB_R1W0DN        
 0D58:5D10       CALIB_R1W0R0        
 0D58:5D08       CALIB_R1W0R0DN      
 0D58:5D18       CALIB_R1W0W1        
 0D58:5D20       CALIB_R1W0W1W0DN    
 0D58:5D28       CALIB_SIZ           
 0D58:F44C       CALIB_UID           
 0D58:F444       CALIB_UIN           
 0D58:F438       CALIB_USF           
 0D58:F43E       CALIB_UTF           
 0D58:5CA8       CALIB_W0            
 0D58:5CB0       CALIB_W0DN          
 0D58:123A       CB_VM_FLAGS         
 0D58:04AC       CC_NUM              
 0000:13B5       CHECK_ARGS          
 0000:130C       CHECK_ASK           
 0000:6751       CHECK_AST386        
 0000:8370       CHECK_CANKEY        
 0000:05B4       CHECK_CNV           
 0000:69F3       CHECK_CPQ386        
 0000:01DD       CHECK_CPUID         
 0000:0334       CHECK_DEV           
 0000:011D       CHECK_DPMI          
 0000:07BC       CHECK_E820          
 0000:0A54       CHECK_EISA_EXT      
 0000:0981       CHECK_EISA_SHD      
 0000:3159       CHECK_FAULT         
 0000:D0CD       CHECK_FSA           
 0000:6857       CHECK_GRID          
 0000:3A6F       CHECK_HALT          
 0000:6804       CHECK_HPRS          
 0000:D433       CHECK_I78           
 0000:D3D5       CHECK_I92           
 0000:D457       CHECK_INFO          
 0000:6AB9       CHECK_ITT           
 0000:02CC       CHECK_KEYB          
 0000:37A0       CHECK_KEYS          
 0000:018B       CHECK_MAPSEG        
 0000:0505       CHECK_MAX           
 0000:03B1       CHECK_MULBUG        
 0000:6930       CHECK_OLI           
 0000:026F       CHECK_P5            
 0000:043B       CHECK_PHYS          
 0000:0147       CHECK_PMHOST        
 0000:0CB0       CHECK_PRVEXT        
 0000:66F4       CHECK_QUAD386       
 0000:30ED       CHECK_RHELP         
 0000:1278       CHECK_SCHED         
 0000:0D6F       CHECK_SCRN          
 0000:754F       CHECK_SX            
 0000:64F9       CHECK_SYS           
 0000:71C7       CHECK_TIME          
 0000:66D3       CHECK_TOSH          
 0000:2E8F       CHECK_VCPI          
 0000:03E1       CHECK_VDS           
 0000:669E       CHECK_VLSI          
 0000:0F77       CHECK_WIN3          
 0000:0833       CHECK_XMEM          
 0000:06E7       CHECK_XMS           
 0000:0516       CHECK_XMSDRV        
 0D58:58EA       CHEV_PAT            
 0000:5D08       CHKNDKEY            
 0000:49C8       CLEAR_CONT          
 0000:71B2       CLEAR_MEM           
 0000:3C5E       CLEAR_STATLIN       
 0000:41E2       CLEAR_STATUS        
 0D58:049A       CLRMODE             
 0000:24D0       CLR_PARITY          
 0D58:05EA       CM2_FLAG            
 0D58:D740       CMDARG_ACT          
 0D58:D6DE       CMDARG_LEN          
 0D58:D67C       CMDARG_TAB          
 0D58:D914       CMDOFF              
 0D58:05E8       CMD_FLAG            
 0000:6AFE       CMD_TOP384          
 0D58:0480       CMOSIZE             
 0D58:6D94       CMPTAB              
 0D58:6D84       CNTTAB              
 0D58:1488       CNT_FLAG            
 0D58:049E       CODESEG             
 0D58:1388       CON10               
 0D58:1380       CON1000             
 0D58:0418       CON128K             
 0D58:0424       CON16M              
 0D58:041C       CON1M               
 0D58:0410       CON32K              
 0D58:040C       CON4K               
 0D58:0420       CON4M               
 0D58:137C       CON60               
 0D58:0414       CON64K              
 0D58:0598       CONSOLE             
 0D58:13A2       CONTCNT             
 0D58:1384       CON_CLOCK           
 0000:6F2F       COPY_MEMVAL         
 0000:3AE6       COUNTOUT            
 0000:36B9       COUNT_CONT          
 0D58:2F82       CPQMIO              
 0D58:12B5       CPQ_CACHE           
 0D58:0404       CPUFET_FLAG         
 0D58:0408       CPUSIG              
 0D58:04AD       CPUTYPE             
 0D58:04CF       CPYATTR             
 0000:D580       CTAIL               
 0D58:5C50       CURLINE             
 0D58:5C4C       CURPAGE             
 0D58:5C54       CURSOR_SHAPE        
 0000:7CA6       D2WCALL             
 0000:0000       DATASEG             
 0000:104F       DATE2EPOCH          
 0D58:5D7F       DATESEP             
 0D58:113C       DDS                 
 0000:2ACF       DEBOUNCE            
 0D58:127E       DEBOUNCE_ARB        
 0D58:1278       DEBOUNCE_FVEC       
 0D58:1364       DECTIMER            
 0D58:04B7       DEFATTR             
 0000:4BF5       DEFAULT_LOG         
 0000:D320       DEFOUT              
 0000:D359       DEGATEA20           
 0D58:0583       DELAYATTR           
 0D58:1390       DELAYCNT            
 0000:310B       DELAYINTEST         
 0D58:138C       DELAYNUM            
 0000:6E6B       DISABLE_EGAROM      
 0000:24BC       DISABLE_NMI         
 0000:1BAB       DISABLE_SWAP        
 0D58:057F       DISATTR             
 0000:3A3B       DISPAUTOMEM         
 0000:3C17       DISP_ACTIV          
 0000:5EE6       DISP_ALLOC          
 0000:492E       DISP_ASKBAS         
 0000:3B79       DISP_ASKITEM        
 0000:48DE       DISP_ASKSCR         
 0000:5FBD       DISP_BASE           
 0000:4A1F       DISP_BUTTON         
 0000:5F1F       DISP_CLRSCR         
 0000:5F47       DISP_CPYSCR         
 0000:60E0       DISP_CURPAT         
 0000:3860       DISP_DELAY          
 0000:41AD       DISP_ELAP           
 0000:39EA       DISP_ENUM           
 0000:44DC       DISP_ERRB           
 0000:4569       DISP_ERRD           
 0000:4529       DISP_ERRW           
 0000:3E67       DISP_ETA            
 0000:0F9B       DISP_EXIT           
 0000:5F8F       DISP_HALT           
 0000:85F8       DISP_HELP           
 0000:79ED       DISP_HLPERR         
 0000:7018       DISP_MEMSCR         
 0000:7040       DISP_MEMVAL         
 0000:4294       DISP_MEMWRK         
 0000:5F9F       DISP_MODE           
 0000:14DA       DISP_MSG            
 0000:4611       DISP_NMIERR         
 0000:3CDB       DISP_OPERS          
 0000:3DBC       DISP_PROGRESS       
 0000:3C80       DISP_PROGSCR        
 0000:5F77       DISP_QUIT           
 0000:5F03       DISP_SCRN           
 0000:5FFA       DISP_STATL          
 0000:3C4C       DISP_STATLIN        
 0000:606A       DISP_STATLZ         
 0000:4950       DISP_STATSCR        
 0000:3CC5       DISP_TEST           
 0000:14AF       DISP_UNK            
 0D58:0567       DLGABHKATTR         
 0D58:055F       DLGABTNATTR         
 0D58:0557       DLGBATTR            
 0D58:0563       DLGBHKATTR          
 0D58:055B       DLGBTNATTR          
 0D58:057B       DLGEFATTR           
 0D58:0573       DLGEHATTR           
 0D58:0577       DLGENATTR           
 0D58:056B       DLGRBHKATTR         
 0D58:056F       DLGTHKATTR          
 0D58:58CA       DLG_DISP            
 0D58:1374       DLYTIMER            
 0D58:D8F6       DNTAB               
 0D58:0496       DOSVER              
 0000:8462       DO_PRINT            
 0D58:048C       DPMIDRV_VEC         
 0D58:12B6       DPMIMAX             
 0D58:1276       DPMIMSG             
 0D58:04AE       DPMITERM            
 0000:26CF       DPMI_ALLOC          
 0D58:11CA       DPMI_FMI            
 0000:27D6       DPMI_FREE           
 0D58:11FA       DPMI_PS             
 0000:28F5       DPMI_RESET          
 0000:7C3E       DPUT_A              
 0000:7BBD       DPUT_C              
 0000:7B89       DPUT_CA             
 0D58:58EE       DPUT_CLIP           
 0000:7BF3       DPUT_SCA            
 0000:7B04       DPUT_SZ             
 0000:7B46       DPUT_SZA            
 0000:5CDE       DRAINPIQ            
 0000:7DC7       DRAW_DBTN           
 0000:7CF0       DRAW_DEDIT          
 0000:7ED9       DRAW_DLG            
 0000:7ED8       DRAW_DNONE          
 0000:7E58       DRAW_DRADIO         
 0000:7CD2       DRAW_DTEXT          
 0000:817B       DRAW_SI             
 0000:C573       DRDB                
 0000:CCF0       DRDD                
 0000:C935       DRDW                
 0D58:8230       DRD_ACT             
 0000:5E09       DW2DEC              
 0D58:0438       E820BUF             
 0D58:58F0       EDIT_FLAGS          
 0D58:5B91       EDIT_FNAME          
 0D58:04F3       ELEVATTR            
 0D58:050B       EMEMATTR            
 0D58:1291       EMMNAM2             
 0D58:129A       EMMNAM3             
 0D58:12A3       EMMNAM4             
 0D58:12AC       EMMNAM5             
 0D58:1288       EMMNAME             
 0000:5B92       ENABLE8255          
 0000:5C82       ENABLE_IRQS         
 0000:2490       ENABLE_NMI          
 0000:1BD9       ENABLE_SWAP         
 0000:15D5       ENTER_PM            
 0000:1798       ENTER_PMSUB         
 0000:1B23       ENTER_PMSUB2        
 0D58:114C       EPMTAB              
 0000:1093       EPOCH2DATE          
 0000:10F0       EPOCH2WEEKS         
 0D58:D907       EPOCHTARG           
 0D58:04C3       ERRATTR             
 0000:0000       ERRDATA             
 0D58:14E4       ERRDATACNT          
 0D58:14E6       ERRDLEN             
 0D58:14EA       ERRDSEG             
 0D58:14EC       ERRDSEL             
 0000:443C       ERRLOG              
 0D58:1283       ERR_CODE            
 0D58:126A       ERR_FLAG            
 0D58:135C       ETATIMER            
 0D58:5BAD       ETXT_FNAME          
 0D58:0488       EXTSIZE             
 0000:5089       FCN_ADVANCED        
 0000:5099       FCN_ALL             
 0000:517D       FCN_ASK             
 0000:50FF       FCN_AUTOMEM         
 0000:5164       FCN_BW              
 0000:5748       FCN_CNTCOM          
 0000:516D       FCN_COLOR           
 0000:51F2       FCN_DAILY           
 0000:5223       FCN_DELAY           
 0000:573F       FCN_DRD             
 0000:5260       FCN_ERRCNT          
 0000:54D2       FCN_EXTENDED        
 0000:551C       FCN_FULL            
 0000:558D       FCN_HELP            
 0000:55FB       FCN_HEX             
 0000:529D       FCN_INTERVAL        
 0000:5B80       FCN_K               
 0000:5604       FCN_LARGER          
 0000:59BE       FCN_LIGHTS          
 0000:5700       FCN_LNKIDM          
 0000:5709       FCN_LNKINV          
 0000:5313       FCN_LOG             
 0000:5387       FCN_MONTHLY         
 0000:5736       FCN_MOVI            
 0000:5612       FCN_NOCACHE         
 0000:5619       FCN_NOCACHETEST     
 0000:5620       FCN_NODAT           
 0000:5627       FCN_NODOS           
 0000:562E       FCN_NODPMI          
 0000:5644       FCN_NOEXIT          
 0000:564C       FCN_NOPARITY        
 0000:5635       FCN_NOPSE           
 0000:5655       FCN_NOSCRUB         
 0000:563D       FCN_NOVCPI          
 0000:565E       FCN_NOXRAM          
 0000:530B       FCN_OLOG            
 0000:5683       FCN_QUICK           
 0000:56EC       FCN_SHADOWRAM       
 0000:5675       FCN_SMALLER         
 0000:57B4       FCN_TONE            
 0000:56EE       FCN_TOP384          
 0000:5712       FCN_UNLIDM          
 0000:571B       FCN_UNLINV          
 0000:5724       FCN_UNLSAF          
 0000:572D       FCN_UNLTRN          
 0000:5B89       FCN_VLSI            
 0000:5436       FCN_WEEKLY          
 0000:724B       FILL_MEMVAL         
 0000:8163       FIND_OBJ            
 0D58:EE87       FMT_ASKCMDREM       
 0000:3A11       FMT_AUTO            
 0000:41E9       FMT_BLK             
 0000:7946       FMT_DELAY           
 0000:121D       FMT_DMY             
 0000:3884       FMT_DNUM            
 0000:42C9       FMT_DONE            
 0000:4107       FMT_ELAP            
 0000:412D       FMT_ELAPSUB         
 0000:399A       FMT_ENUM            
 0000:123F       FMT_HM              
 0000:7154       FMT_MEM             
 0000:796F       FMT_PATTERNB        
 0000:79C1       FMT_PATTERND        
 0000:7998       FMT_PATTERNW        
 0000:75A1       FMT_R0              
 0000:75CD       FMT_R0DN            
 0000:75F9       FMT_R0W1            
 0000:7625       FMT_R0W1DN          
 0000:7651       FMT_R0W1R1          
 0000:767D       FMT_R0W1R1DN        
 0000:76A9       FMT_R0W1R1W0R0W1    
 0000:76DE       FMT_R0W1W0          
 0000:770A       FMT_R0W1W0DN        
 0000:7736       FMT_R1              
 0000:7762       FMT_R1DN            
 0000:778E       FMT_R1W0            
 0000:77BA       FMT_R1W0DN          
 0000:77E6       FMT_R1W0R0          
 0000:7812       FMT_R1W0R0DN        
 0000:783E       FMT_R1W0W1          
 0000:786A       FMT_R1W0W1DN        
 0000:7896       FMT_R1W0W1W0DN      
 0000:78C2       FMT_W0              
 0000:78EE       FMT_W0DN            
 0000:791A       FMT_W1              
 0D58:1E57       FNGETKEY            
 0D58:1E56       FNGETKST            
 0D58:EB93       FRIDAY              
 0D58:825C       FSA_ACT_LITE        
 0D58:827E       FSA_ACT_TONE        
 0D58:8258       FSA_CNT_LITE        
 0D58:827A       FSA_CNT_TONE        
 0D58:8254       FSA_FD_LITE         
 0D58:8276       FSA_FD_TONE         
 0D58:823C       FSA_LITE            
 0D58:8256       FSA_RPT_LITE        
 0D58:8278       FSA_RPT_TONE        
 0D58:8252       FSA_TAB_LITE        
 0D58:8274       FSA_TAB_TONE        
 0D58:825E       FSA_TONE            
 0D58:825A       FSA_WAIT_LITE       
 0D58:827C       FSA_WAIT_TONE       
 0D58:8238       FUND_FREQ           
 0000:D361       GATEA20             
 0000:2986       GETBASE             
 0000:5D0F       GETKEY              
 0000:8353       GETKEYXLT           
 0000:5D16       GETKEY_NOWAIT       
 0000:4A54       GET_ASKRESP         
 0000:1101       GET_DATES           
 0000:8190       GET_DLG             
 0000:7A5A       GET_MEM             
 0000:3796       GET_MEMTIMER        
 0000:3682       GET_NEXTIND         
 0000:05FE       GET_TOPDOS          
 0000:0F0A       GIVEBACK            
 0D58:049C       GL2_FLAG            
 0D58:2F7A       GL3_FLAG            
 0D58:2F78       GLB_FLAG            
 0000:2530       GOREAL              
 0D58:BE29       HELP_CMD            
 0D58:83A4       HELP_CMDTTL         
 0D58:BAD5       HELP_ERR            
 0D58:835D       HELP_ERRTTL         
 0D58:CF14       HELP_MEM            
 0D58:83EB       HELP_MEMTTL         
 0D58:D055       HELP_MEM_ACT        
 0D58:CF81       HELP_MEM_ADDR       
 0D58:D00E       HELP_MEM_EXP        
 0D58:8C84       HELP_NAV            
 0D58:8288       HELP_NAVTTL         
 0D58:84C0       HELP_NMI            
 0D58:8432       HELP_NMITTL         
 0D58:88A2       HELP_NMIX           
 0D58:8479       HELP_NMIXTTL        
 0D58:890F       HELP_NMIX_ADDR      
 0D58:852D       HELP_NMI_ADDR       
 0D58:A151       HELP_OVR            
 0D58:82CF       HELP_OVRTTL         
 0D58:5C52       HELP_STATE          
 0D58:ABDB       HELP_TST            
 0D58:8316       HELP_TSTTTL         
 0D58:0523       HERRATTR            
 0D58:1E58       HEXTABLE            
 0D58:0527       HKEYATTR            
 0D58:8182       HLIN_SROW           
 0D58:051B       HLPAATTR            
 0D58:F3F6       HLPACT              
 0D58:0517       HLPATTR             
 0D58:051F       HLPBATTR            
 0D58:58A4       HLPIND              
 0D58:58B6       HLPTOPIC            
 0D58:F332       HLPVAL              
 0D58:052B       HLTATTR             
 0000:4A03       HMS2SECDAY          
 0D58:04A4       HPDALEN             
 0D58:04A2       HPDASEG             
 0D58:58A6       HTOPIND             
 0D58:0513       HTTLATTR            
 0D58:8282       I78DATA             
 0D58:127F       IBV0                
 0D58:1280       IBV0Z               
 0D58:1281       IBV1                
 0D58:1282       IBV1Z               
 0D58:F624       IDENTIFY            
 0000:015E  Abs  IDENTIFY_LEN        
 0D58:F782       IDENT_CHK           
 0D58:125C       IDT_REAL            
 0D58:F422       IFEACT              
 0D58:F35E       IFEVAL              
 0D58:0507       IMEMATTR            
 0000:43E5       INCPTR              
 0D58:12D2       INFO                
 0000:0066  Abs  INFOSIZE            
 0D58:12D1       INFO_CTL            
 0000:D130       INIFD_LITE          
 0000:D21C       INIFD_TONE          
 0000:D122       INIRP_LITE          
 0000:D20E       INIRP_TONE          
 0D58:136C       INITIMER            
 0000:809B       INP_FOCBTN          
 0000:7F38       INP_FOCEDIT         
 0000:7F0F       INP_FOCNONE         
 0000:80AC       INP_FOCRADIO        
 0000:7F11       INP_FOCTEXT         
 0000:0A05       INST_INT15          
 0000:2628       INST_TMPINT15       
 0000:1581       INT02               
 0000:29D4       INT02_COM           
 0000:15A5       INT08               
 0000:2AF7       INT08_COM           
 0000:15B6       INT09               
 0000:2B7C       INT09_COM           
 0000:0A43       INT15               
 0000:1DF8       INT15PROT           
 0000:268E       INT22               
 0000:0A53       INT23               
 0000:15C7       INT24               
 0000:1E9D       INTPROC             
 0000:1E9D       INTPROC_COM         
 0D58:04A6       INT_FLAG            
 0D58:1478       ITEMCNT             
 0D58:1442       ITEMIND             
 0D58:1422       ITEMOPERS           
 0D58:1444       ITEMORD             
 0D58:1432       ITEMPATCNT          
 0D58:13E0       ITEM_LEN            
 0000:0214       IZIT486             
 0000:4801       IZITCURBLK          
 0000:0ED3       IZITEGA             
 0000:4701       IZITMARKED          
 0000:139A       IZITSEP             
 0000:0246       IZIT_CPUID          
 0D58:04DB       KEY2ATTR            
 0D58:04D7       KEYATTR             
 0D58:58F2       KEY_FLAGS           
 0D58:120A       LACODE              
 0D58:1212       LACR3               
 0D58:1226       LACR3V              
 0D58:120E       LADATA              
 0D58:1216       LAPTE               
 0D58:122E       LAPTEV              
 0000:5070       LASTDAY             
 0D58:D90F       LASTDIFF            
 0D58:D8B6       LASTKEY             
 0D58:1394       LAST_ERRA           
 0D58:13A4       LAST_PTST           
 0D58:07B4       LCLGDT              
 0D58:092C       LCLIDT              
 0000:0800  Abs  LCLIDT_LEN          
 0D58:0200       LCLSTK              
 0D58:03FE       LCLSTKZ             
 0D58:1162       LCLTSS              
 0D58:504C       LCL_ALCSIGN         
 0D58:5061       LCL_CACHCTL1        
 0D58:502B       LCL_EISASIGN        
 0D58:5008       LCL_ITTSIGN         
 0D58:4FF2       LCL_OLISIGN         
 0D58:502F       LCL_PHOENIXSIGN     
 0D58:5047       LCL_TANDYSIGN       
 0D58:1508       LIGHTS_PORT         
 0D58:1222       LIMADDR             
 0000:5923       LINE_LOWERCASE      
 0D58:D946       LITENAM_TAB         
 0000:0007  Abs  LITENAM_TABLEN      
 0000:0018  Abs  LITENAM_TABPORT     
 0D58:1B42       LITETAB_ATC         
 0D58:1D8E       LITETAB_AUT         
 0D58:19BA       LITETAB_INI         
 0D58:1C06       LITETAB_MEM         
 0D58:1CCA       LITETAB_PAR         
 0D58:1A7E       LITETAB_RUN         
 0D58:19AE       LITE_STATE          
 0D58:8218       LNKIDM_ACT          
 0D58:820C       LNKINV_ACT          
 0D58:7D11       LOGA                
 0D58:7D4B       LOGB                
 0D58:7D71       LOGC                
 0D58:7D7F       LOGD                
 0D58:7D66       LOGDATE             
 0D58:7D9E       LOGE                
 0D58:7DCF       LOGF                
 0D58:7DE2       LOGF_H1             
 0D58:7DEB       LOGF_H2             
 0D58:7DD4       LOGF_K1             
 0D58:7DDE       LOGF_K2             
 0D58:7DFA       LOGF_K3             
 0D58:7DFF       LOGG                
 0D58:7D76       LOGTIME             
 0D58:7E52       LOG_HALT            
 0D58:7E02       LOG_MEMERR          
 0D58:7E08       LOG_MEMERR1         
 0D58:7E1D       LOG_NMIERR          
 0D58:7E22       LOG_NMIERR1         
 0D58:7E37       LOG_NOERR           
 0000:0EFF       LOWERCASE           
 0D58:4FC4       MACHID              
 0D58:04A8       MAPSEG_NXT          
 0000:B281       MARCHBB             
 0000:B83E       MARCHBD             
 0000:B560       MARCHBW             
 0000:A16A       MARCHCMB            
 0000:A760       MARCHCMD            
 0000:A466       MARCHCMW            
 0000:9A81       MARCHXB             
 0000:9EBB       MARCHXD             
 0000:9C9E       MARCHXW             
 0000:AAEC       MARCHYB             
 0000:AF96       MARCHYD             
 0000:AD41       MARCHYW             
 0000:4767       MARKPTE             
 0000:3140       MARK_ACTIVE         
 0000:314C       MARK_INACTIVE       
 0000:5037       MARK_STATE          
 0000:8FE5       MATSPB              
 0000:92FE       MATSPD              
 0000:9508       MATSPPB             
 0000:9859       MATSPPD             
 0000:96B2       MATSPPW             
 0000:9173       MATSPW              
 0D58:123E       MAXDEV_FVEC         
 0D58:0400       MAXERRCNT           
 0D58:0586       MAXNAME             
 0D58:0484       MAXSIZE             
 0D58:1354       MAXTIMER            
 0D58:589D       MAXVSAPI            
 0D58:F620       MAX_FLAG            
 0D58:14F2       MAX_TTDCNT          
 0000:0002       MD_FLAG             
 0D58:04F7       MEMATTR             
 0000:000A       MEMCHK              
 0D58:13A6       MEMERRCNT           
 0D58:04FB       MEMHATTR            
 0D58:13B2       MEMIND              
 0D58:13B4       MEMITEM_LEN         
 0D58:5080       MEMITEM_SIZ         
 0D58:07AC       MEMTIMER            
 0D58:13AE       MEMWRKIND           
 0D58:D916       MOLEN_TAB           
 0D58:EB71       MONDAY              
 0D58:D8DE       MOTAB               
 0D58:044C       MOVE_TAB            
 0000:BBBE       MOVIB               
 0000:C1CD       MOVID               
 0000:BEC6       MOVIW               
 0D58:8224       MOVI_ACT            
 0D58:04BB       MSGATTR             
 0D58:D3CB       MSG_ACHLP           
 0D58:7ECF       MSG_ADDR            
 0D58:637F       MSG_ADV             
 0D58:63FA       MSG_ALLOC           
 0000:0016  Abs  MSG_ALLOC_LEN       
 0D58:6C7F       MSG_ASK             
 0D58:6C80       MSG_ASK1            
 0D58:DD28       MSG_ASKCLR          
 0D58:EC28       MSG_ASKCMD          
 0D58:ED02       MSG_ASKCMDOPT       
 0D58:EE6A       MSG_ASKCMDREM       
 0D58:680C       MSG_ASKSCR1         
 0D58:6A04       MSG_ASKSCR2         
 0D58:6D6F       MSG_ASK_CONT        
 0D58:4FDC       MSG_ASTCOPY         
 0D58:69BC       MSG_AUTO1           
 0D58:6BE4       MSG_AUTO2           
 0D58:6C39       MSG_AUTO_OFF        
 0D58:6C49       MSG_AUTO_ON         
 0D58:6360       MSG_BASIC           
 0D58:711A       MSG_BLKCLR          
 0D58:7E6D       MSG_BYTERR          
 0D58:598F       MSG_CANCEL          
 0D58:81BE       MSG_CANCELLED       
 0000:001A  Abs  MSG_CANCELLED_LEN   
 0D58:DE50       MSG_CMDS            
 0D58:6C98       MSG_CNT1            
 0D58:70B4       MSG_CONT            
 0D58:D964       MSG_COPY            
 0D58:61A7       MSG_CPY             
 0D58:DD55       MSG_CRLF            
 0D58:5A08       MSG_CRLF2           
 0D58:63A6       MSG_DEC             
 0D58:5D81       MSG_DELAY           
 0D58:5D8E       MSG_DELAYA          
 0D58:5D9A       MSG_DELAYB          
 0D58:7C44       MSG_DELAYSCR        
 0D58:7CB0       MSG_DELAYSCR1       
 0000:0019  Abs  MSG_DELAY_LEN       
 0D58:6C14       MSG_DMSEC           
 0D58:6C17       MSG_DNUM            
 0D58:6C21       MSG_DNUM1           
 0D58:70C6       MSG_DONE            
 0000:0012  Abs  MSG_DONE_LEN        
 0D58:698C       MSG_DTXT1           
 0D58:6BB4       MSG_DTXT2           
 0D58:7E91       MSG_DWORDERR        
 0D58:DD58       MSG_EISA            
 0D58:707A       MSG_ELAP            
 0000:0016  Abs  MSG_ELAP_LEN        
 0D58:6718       MSG_ELEV            
 0D58:6C5D       MSG_ENUM            
 0D58:6C67       MSG_ENUM1           
 0D58:7ADA       MSG_ERRA            
 0D58:7ADA       MSG_ERRA1           
 0D58:7AE5       MSG_ERRA2           
 0D58:7AF1       MSG_ERRA3           
 0D58:7A9F       MSG_ERRA_HDR        
 0D58:70A2       MSG_EST             
 0D58:7707       MSG_ETA_HR          
 0D58:69CC       MSG_ETXT1           
 0D58:6BF4       MSG_ETXT2           
 0D58:7ED8       MSG_EXP             
 0D58:7EEA       MSG_EXP1            
 0D58:7EFC       MSG_EXP2            
 0D58:7EFF       MSG_EXP3            
 0D58:5A8A       MSG_FF              
 0D58:67F8       MSG_FULLA           
 0D58:6802       MSG_FULLB           
 0D58:62D0       MSG_HALT            
 0D58:7BA0       MSG_HALTSCR         
 0D58:81A4       MSG_HELEV           
 0D58:800E       MSG_HELP            
 0D58:63D0       MSG_HEX             
 0D58:7F6A       MSG_HKEY            
 0D58:7F1C       MSG_HKEYERR         
 0D58:70D8       MSG_INTR            
 0000:0012  Abs  MSG_INTR_LEN        
 0D58:1500       MSG_KBCRLF          
 0D58:6648       MSG_MEMATTR         
 0D58:5884       MSG_MEMCLR          
 0D58:6732       MSG_MEMEND0         
 0D58:674B       MSG_MEMEND1         
 0D58:5D30       MSG_MEMERR          
 0D58:5D39       MSG_MEMERR1         
 0000:001D  Abs  MSG_MEMERR_LEN      
 0D58:6580       MSG_MEMLIN          
 0D58:6430       MSG_MEMSCR          
 0D58:DC86       MSG_MULBUG          
 0D58:DE0B       MSG_NAME            
 0D58:5D4D       MSG_NMIERR          
 0D58:5D56       MSG_NMIERR1         
 0D58:7EA4       MSG_NMIERROR        
 0000:001D  Abs  MSG_NMIERR_LEN      
 0D58:7EB5       MSG_NMISPUR         
 0D58:EBF8       MSG_NOA             
 0D58:EC02       MSG_NOB             
 0D58:5D6A       MSG_NOERR           
 0000:0015  Abs  MSG_NOERR_LEN       
 0D58:DCFC       MSG_NOMEM           
 0D58:D9D4       MSG_NOT386          
 0D58:DB41       MSG_NOTVM           
 0D58:598C       MSG_OK              
 0D58:DDD3       MSG_OPEN            
 0D58:59D8       MSG_OUAFILE         
 0D58:59CA       MSG_OUFILE          
 0D58:59BE       MSG_OUPRINT         
 0D58:DDB8       MSG_OVF             
 0D58:EB0E       MSG_PAK             
 0D58:DE2B       MSG_PARSE           
 0D58:7728       MSG_PBAR            
 0D58:5A08       MSG_PHEADER         
 0D58:EC0C       MSG_PPA             
 0D58:EC1A       MSG_PPB             
 0D58:5940       MSG_PRINT1          
 0D58:5948       MSG_PRINT2          
 0D58:5956       MSG_PRINT3          
 0D58:5965       MSG_PRINT4          
 0D58:596F       MSG_PRINT5          
 0D58:59ED       MSG_PRINTC1         
 0D58:59F7       MSG_PRINTC2         
 0D58:74FC       MSG_PROGSCR         
 0D58:DC3B       MSG_PRVEXT          
 0D58:78FC       MSG_PTSTALL         
 0D58:78D6       MSG_PTSTCMP         
 0D58:7922       MSG_PTSTERR         
 0D58:7780       MSG_PTSTFULL        
 0D58:796E       MSG_PTSTGET         
 0D58:7994       MSG_PTSTINI         
 0D58:7948       MSG_PTSTINT         
 0D58:783E       MSG_PTSTLID         
 0D58:77F2       MSG_PTSTLIN         
 0D58:775A       MSG_PTSTQUIK        
 0D58:77A6       MSG_PTSTSAF         
 0D58:77CC       MSG_PTSTTF          
 0D58:7864       MSG_PTSTUID         
 0D58:7818       MSG_PTSTUIN         
 0D58:EBA3       MSG_QMTDAT          
 0D58:4FCA       MSG_QUADCOPY        
 0D58:67E2       MSG_QUICKA          
 0D58:67ED       MSG_QUICKB          
 0D58:6249       MSG_QUIT            
 0D58:5DF4       MSG_R0              
 0D58:5E0D       MSG_R0A             
 0D58:5E19       MSG_R0B             
 0D58:5E21       MSG_R0W1            
 0D58:5E3A       MSG_R0W1A           
 0D58:5E46       MSG_R0W1B           
 0D58:5E4E       MSG_R0W1R1          
 0D58:5E67       MSG_R0W1R1A         
 0D58:5E73       MSG_R0W1R1B         
 0D58:5E7B       MSG_R0W1R1W0R0W1    
 0D58:5EB8       MSG_R0W1R1W0R0W1A   
 0D58:5EC4       MSG_R0W1R1W0R0W1B   
 0D58:5E9F       MSG_R0W1R1W0R0W1Z   
 0000:0024  Abs  MSG_R0W1R1W0R0W1_LEN1
 0000:002D  Abs  MSG_R0W1R1W0R0W1_LEN2
 0000:002D  Abs  MSG_R0W1R1_LEN      
 0D58:5ECC       MSG_R0W1W0          
 0D58:5EE5       MSG_R0W1W0A         
 0D58:5EF1       MSG_R0W1W0B         
 0000:002D  Abs  MSG_R0W1W0_LEN      
 0000:002D  Abs  MSG_R0W1_LEN        
 0000:002D  Abs  MSG_R0_LEN          
 0D58:5EF9       MSG_R1              
 0D58:5F12       MSG_R1A             
 0D58:5F1E       MSG_R1B             
 0D58:5F26       MSG_R1W0            
 0D58:5F3F       MSG_R1W0A           
 0D58:5F4B       MSG_R1W0B           
 0D58:5F53       MSG_R1W0R0          
 0D58:5F6C       MSG_R1W0R0A         
 0D58:5F78       MSG_R1W0R0B         
 0000:002D  Abs  MSG_R1W0R0_LEN      
 0D58:5F80       MSG_R1W0W1          
 0D58:5F99       MSG_R1W0W1A         
 0D58:5FA5       MSG_R1W0W1B         
 0D58:5FAD       MSG_R1W0W1W0        
 0D58:5FC6       MSG_R1W0W1W0A       
 0D58:5FD2       MSG_R1W0W1W0B       
 0000:002D  Abs  MSG_R1W0W1W0_LEN    
 0000:002D  Abs  MSG_R1W0W1_LEN      
 0000:002D  Abs  MSG_R1W0_LEN        
 0000:002D  Abs  MSG_R1_LEN          
 0D58:DDEF       MSG_READ            
 0D58:7148       MSG_SCROLL          
 0D58:DD88       MSG_SEP             
 0D58:2E18       MSG_SHD1            
 0D58:6E24       MSG_STATSCR         
 0D58:7B5E       MSG_TIME            
 0D58:7B5E       MSG_TIME_BEG_HR     
 0D58:7B61       MSG_TIME_BEG_MIN    
 0D58:7B64       MSG_TIME_BEG_SEC    
 0D58:7B6A       MSG_TIME_END_HR     
 0D58:7B6D       MSG_TIME_END_MIN    
 0D58:7B70       MSG_TIME_END_SEC    
 0D58:7AFD       MSG_TIME_HDR        
 0D58:059C       MSG_TOPDOS          
 0D58:4FC5       MSG_TOSHSIGN        
 0D58:67D3       MSG_TOT             
 0000:0006  Abs  MSG_TOT_LEN         
 0D58:DD70       MSG_UNK             
 0D58:EB2B       MSG_UNSCHED         
 0D58:EB51       MSG_UNSCHED_DATE    
 0D58:DDA2       MSG_VAL             
 0D58:5D9A       MSG_W0              
 0D58:5DB3       MSG_W0A             
 0D58:5DBF       MSG_W0B             
 0000:002D  Abs  MSG_W0_LEN          
 0D58:5DC7       MSG_W1              
 0D58:5DE0       MSG_W1A             
 0D58:5DEC       MSG_W1B             
 0000:002D  Abs  MSG_W1_LEN          
 0D58:59AA       MSG_WHALL           
 0D58:5996       MSG_WHTHIS          
 0D58:DA13       MSG_WIN3            
 0D58:7E7F       MSG_WORDERR         
 0D58:F784       MSG_XINST           
 0D58:DBB9       MSG_XMEM            
 0D58:DBF8       MSG_XMEM1           
 0D58:DC09       MSG_XMEM2           
 0D58:DC37       MSG_XMEMSEED        
 0D58:EBE4       MSG_YESA            
 0D58:EBEE       MSG_YESB            
 0D58:0428       MUL_ARG1            
 0D58:042C       MUL_ARG2            
 0D58:0430       MUL_PROD            
 0000:0031  Abs  NCMDARGS            
 0D58:121E       NEXTPTE             
 0D58:D8DA       NEXTSCHED           
 0D58:1398       NEXT_ERRA           
 0D58:507C       NMEMVAL             
 0D58:1262       NMIADDR             
 0000:64F7       NMIDIS              
 0000:64F6       NMIENA              
 0D58:13AA       NMIERRCNT           
 0000:64F8       NMIMASK             
 0D58:1266       NMIOFF              
 0000:64F4       NMIPORT             
 0D58:1268       NMIRET              
 0000:3098       NOCACHETEST         
 0000:505D       NORMALIZE_DATE      
 0D58:D8B8       NUMBERS_LO          
 0D58:134C       NUMOPERS            
 0000:D1A8       NXTFD_LITE          
 0000:D28B       NXTFD_TONE          
 0000:D1C2       NXTRP_LITE          
 0000:D2A5       NXTRP_TONE          
 0D58:1134       OLDCR0              
 0D58:1138       OLDCR4              
 0D58:126C       OLDCUR              
 0D58:1E54       OLDIMR1             
 0D58:1E55       OLDIMR2             
 0D58:12C0       OLDINT02            
 0D58:12C4       OLDINT08            
 0000:0115       OLDINT15_VEC        
 0000:0119       OLDINT22_VEC        
 0D58:12C8       OLDINT24            
 0D58:12CC       OLDINT67            
 0D58:1E78       OLDSCR              
 0000:1575       OLDSTK_VEC          
 0D58:1284       OLDSWAP_CNT         
 0000:1579       OLDTMPINT15_VEC     
 0D58:126E       OLDTYP              
 0000:6EE8       OLI_RESET           
 0000:D146       ON_LITE             
 0000:D232       ON_TONE             
 0000:4C28       OPEN_LOG            
 0000:2481       OUTCMOS             
 0D58:1206       P2L_ADDR            
 0D58:1202       P2L_HNDL            
 0D58:11FE       P2L_SIZE            
 0D58:121A       PACR3               
 0D58:122A       PACR3V              
 0D58:6765       PAMEM               
 0D58:1232       PAPTEV              
 0000:59AF       PARSE_DEC           
 0000:5951       PARSE_FD            
 0D58:1464       PATCNT              
 0D58:1466       PATOFF              
 0D58:140E       PATXT1              
 0D58:6D72       PATXT2              
 0D58:1416       PATXT3              
 0000:D16B       PAUSE_LITE          
 0000:D24E       PAUSE_TONE          
 0D58:1412       PBTXT1              
 0D58:6D72       PBTXT2              
 0D58:141C       PBTXT3              
 0D58:5069       PCACHCTL            
 0D58:822C       PCALIB_DRD          
 0D58:8214       PCALIB_LID          
 0D58:8208       PCALIB_LIN          
 0D58:8220       PCALIB_MIF          
 0D58:81FC       PCALIB_UID          
 0D58:81F0       PCALIB_UIN          
 0D58:81D8       PCALIB_USF          
 0D58:81E4       PCALIB_UTF          
 0D58:58DA       PFNFOCUS            
 0D58:5C4E       PHANDLE             
 0D58:5C4A       PHLPCNT             
 0D58:5C48       PHLPIND             
 0D58:5C98       PHTOPTTL            
 0D58:047C       PHYSIZE             
 0D58:F7B4       PIDENT              
 0000:D0F5       PLAY_LIGHTS         
 0000:D1E2       PLAY_TONE           
 0D58:14C6       PLERR               
 0000:838C       PLINE_SUB           
 0000:297C       PMEXC02             
 0000:2952       PMHALT              
 0000:2972       PMINT02             
 0000:2AD1       PMINT08             
 0D58:1250       PMINT08_FVEC        
 0000:2AE4       PMINT09             
 0D58:1256       PMINT09_FVEC        
 0000:2946       PMINT23             
 0D58:1244       PMI_FVEC            
 0D58:124A       PMONSTK_FVEC        
 0D58:58C6       PMSG_HKEY           
 0D58:6730       PMSG_MEMEND         
 0D58:7B74       PMSG_PTST           
 0D58:7B88       PMSG_TSTNAM         
 0D58:0000       PMSTK               
 0D58:01FE       PMSTKZ              
 0000:295E       PMZAP               
 0D58:12F6       PORT67              
 0000:5BD0       PPI_K2S             
 0000:5BA9       PPI_S2C             
 0000:5BB8       PPI_S2C_K2S         
 0000:D321       PPI_S2C_S2K         
 0000:5BC1       PPI_S2K             
 0000:5BDB       PPI_S2K_K2S         
 0D58:04EB       PRG1ATTR            
 0D58:04EF       PRG2ATTR            
 0D58:04E7       PRGATTR             
 0D58:5928       PRINTCANDLG         
 0D58:58F4       PRINTDLG            
 0000:83B8       PRINT_LINE          
 0D58:13A0       PROGPCT             
 0D58:058F       PROT_NAME           
 0D58:04A0       PSPSEG              
 0000:002C       PSP_ENVIR_PTR       
 0000:0080       PSP_PARM_COUNT      
 0000:0081       PSP_PARM_STRING     
 0000:000A       PSP_TERMINATE       
 0000:D32E       PULSE8042           
 0000:5CF5       PURGE_KBUFF         
 0D58:58C8       PW_HKEY             
 0D58:D8CC       QMTDAT              
 0D58:D8D0       QMTDAT_M            
 0D58:D8D4       QMTDAT_W            
 0D58:071D       QMTDIR              
 0D58:14B9       QMTLOG              
 0D58:05EC       QMTLOGPATH          
 0D58:066C       QMTPATH             
 0D58:079D       QMT_STEM            
 0D58:5B41       RAD_OUTPUT          
 0D58:5B05       RAD_WHAT            
 0D58:5B7D       RBTN_OUAFILE        
 0D58:5B69       RBTN_OUFILE         
 0D58:5B55       RBTN_OUPRINT        
 0D58:5B2D       RBTN_WHALL          
 0D58:5B19       RBTN_WHTHIS         
 0D58:144E       RCNT                
 0000:24F0       READA20             
 0000:D33B       READ_IRR            
 0D58:145C       REG0DN              
 0D58:1454       REG0UP              
 0D58:1460       REG1DN              
 0D58:1458       REG1UP              
 0000:01C5       REMAPSEG_NXT        
 0000:363B       RESETITEMORDER      
 0000:D17D       RESET_LITE          
 0000:D260       RESET_TONE          
 0D58:139E       RESOFF              
 0000:5CC0       REST_IMR            
 0000:5E97       REST_SCR            
 0000:264F       REST_TMPINT15       
 0000:2F5D       RMPAGE              
 0D58:EB9A       SATURDAY            
 0000:09C8       SAVE_FN88           
 0000:5CA1       SAVE_IMR            
 0000:5E74       SAVE_SCR            
 0000:6B51       SAVE_SHADOW         
 0000:6DA9       SAVE_XSHADOW        
 0D58:06EC       SAV_ASKCMDOPT       
 0000:3F1D       SCALE_DOWN          
 0D58:5C44       SCRCNT              
 0D58:04B3       SCRNTYPE            
 0D58:5C40       SCRSAVE             
 0000:D15C       SDI_LITE            
 0000:D23F       SDI_TONE            
 0D58:D90B       SECTARG             
 0D58:1287       SECTIMER            
 0D58:1270       SEL_4GB             
 0D58:1272       SEL_ALIAS           
 0D58:1274       SEL_CODE            
 0000:157D       SEL_DATA            
 0000:5C56       SEND_OUT            
 0000:7C92       SETCSR              
 0000:364C       SETITEMORDER        
 0000:1D77       SETUP_EPM           
 0000:1BF1       SETUP_GDT           
 0000:1DC7       SETUP_IDT           
 0000:035B       SETUP_PMHOST        
 0000:1D41       SETUP_TSS           
 0000:2BAE       SETUP_VCPI          
 0000:36C4       SET_ASKCOUNT        
 0000:3B15       SET_BARATTR         
 0000:0E56       SET_COLOR           
 0000:3B67       SET_COMPLETE        
 0000:1CE7       SET_GDT             
 0D58:04DF       SHD1ATTR            
 0D58:04E3       SHD2ATTR            
 0D58:2FBC       SHDCNT              
 0D58:2FBE       SHDIND              
 0D58:2FB8       SHDSIZE             
 0D58:2FC0       SHDTAB              
 0D58:F430       SIFEACT             
 0D58:F36C       SIFEVAL             
 0000:5903       SKIP_LINE           
 0000:14FB       SKIP_WHITE          
 0000:5946       SKIP_WHITE_FS       
 0000:71E8       SORT_MEMVAL         
 0000:D18D       SPI_LITE            
 0000:D270       SPI_TONE            
 0000:6EAF       SRCHSTR             
 0D58:04F7       STATATTR            
 0D58:04FB       STATHATTR           
 0D58:054F       STATLATTR           
 0D58:054B       STATTATTR           
 0000:D1D7       STOP_LITE           
 0000:D2BA       STOP_TONE           
 0000:1E60       STOREINT            
 0000:7C73       STRLEN              
 0D58:EB6A       SUNDAY              
 0000:2A7F       SWAP_NMI            
 0000:3845       SWITCH_COLOR        
 0000:38C6       SWITCH_DELAY        
 0000:377B       SWITCH_MODE         
 0D58:2F7C       SYS_FLAG            
 0D58:14EE       TESTNAME            
 0001:0000       TESTTIME            
 0D58:14F0       TESTTIME_IND        
 0000:C4FF       TEST_DRD            
 0000:B20D       TEST_LNKIDM         
 0000:AA80       TEST_LNKINV         
 0000:BB4A       TEST_MOVI           
 0000:A0F6       TEST_UNLIDM         
 0000:9A0D       TEST_UNLINV         
 0000:8F71       TEST_UNLSAF         
 0000:9494       TEST_UNLTRN         
 0D58:EB8A       THURSDAY            
 0D58:5082       TIMECNT             
 0D58:0719       TIMEPREFIX          
 0000:8F4A       TIMER_READ          
 0000:8F28       TIMER_RESTORE       
 0000:8F06       TIMER_SETUP         
 0D58:5D80       TIMESEP             
 0D58:5084       TIMETAB             
 0D58:050F       TMEMATTR            
 0000:2661       TMPINT15            
 0D58:1344       TMPOPERS            
 0D58:D8C8       TODAY               
 0D58:D8D9       TODAY_DOM           
 0D58:D8D8       TODAY_DOW           
 0D58:D92E       TONENAM_TAB         
 0000:0006  Abs  TONENAM_TABLEN      
 0D58:169E       TONETAB_ATC         
 0D58:18EA       TONETAB_AUT         
 0D58:1516       TONETAB_INI         
 0D58:1762       TONETAB_MEM         
 0D58:1826       TONETAB_PAR         
 0D58:15DA       TONETAB_RUN         
 0D58:150A       TONE_STATE          
 0D58:0498       TOPFILL             
 0D58:2F86       TOP_GDT             
 0D58:2FB6       TOP_MIO             
 0000:6E0A       TOP_WRITE           
 0D58:133C       TOTOPERS            
 0D58:5070       TSTSIZEB            
 0D58:5078       TSTSIZED            
 0D58:5074       TSTSIZEW            
 0D58:14F6       TTDCNT              
 0D58:14FC       TTDLEN              
 0D58:14F8       TTDSEG              
 0D58:14FA       TTDSEL              
 0D58:04CB       TTLATTR             
 0D58:EB78       TUESDAY             
 0D58:5A8B       TXT_PRINT1          
 0D58:5A93       TXT_PRINT2          
 0D58:5A9B       TXT_PRINT3          
 0D58:5AA3       TXT_PRINT4          
 0D58:5AAB       TXT_PRINT5          
 0D58:5AB3       TXT_PRINTC1         
 0D58:5ABB       TXT_PRINTC2         
 0D58:8200       UNLIDM_ACT          
 0D58:81F4       UNLINV_ACT          
 0D58:81DC       UNLSAF_ACT          
 0D58:81E8       UNLTRN_ACT          
 0000:12DB       UPDATE_QMTDAT       
 0000:14F0       UPPERCASE           
 0000:0B61       VALIDATE_EISAMEM    
 0D58:1338       VCPIDBG_VER         
 0000:0328  Abs  VER                 
 0000:0038  Abs  VERS_H              
 0000:0808  Abs  VERS_HTU            
 0000:0030  Abs  VERS_T              
 0000:0038  Abs  VERS_U              
 0D58:0490       VIDBASE_FVEC        
 0000:5ECF       VIDB_LINEAR         
 0000:5EBA       VIDB_SEGOFF         
 0D58:0584       VIDMODE1            
 0D58:0585       VIDMODE2            
 0D58:12BD       VLSI_CSIZE          
 0D58:1236       VMHANDLE            
 0000:158B       VMINT02             
 0000:1595       VMINT08             
 0000:2927       VMINT23             
 0000:157F       VMINTFN             
 0000:1E56       VMINTFN1            
 0000:1E59       VMINTFN2            
 0D58:1130       VMINT_VEC           
 0D58:112C       VMVSAPI_VEC         
 0000:5BF3       WAITIBUF_CLR        
 0000:5C43       WAITOBUF_CLR        
 0000:5C2A       WAITOBUF_SET        
 0D58:EB80       WEDNESDAY           
 0000:104D       WEEKDAYS            
 0000:6182       WGET_A              
 0000:613C       WGET_C              
 0000:61C8       WGET_CA             
 0D58:04FF       WMEMATTR            
 0000:7539       WORD_MEMVAL         
 0000:6286       WPUT_A              
 0000:62C3       WPUT_ASC            
 0000:7A83       WPUT_BOX            
 0000:620D       WPUT_C              
 0000:624A       WPUT_CA             
 0000:6309       WPUT_CSA            
 0000:6384       WPUT_SA             
 0000:634B       WPUT_SC             
 0000:63BD       WPUT_SCA            
 0000:63F1       WPUT_SHD1           
 0000:646F       WPUT_SHD1_SUB       
 0000:649A       WPUT_SHD2           
 0000:4FCE       WRITEERRORRANGE     
 0000:4BDD       WRITESTR            
 0D58:04BF       WRKATTR             
 0000:610D       WSETUP              
 0D58:6197       W_AAR               
 0D58:EEB2       W_ACHLP             
 0D58:6DA4       W_ASK               
 0D58:EBCC       W_ASKCMD            
 0D58:EBD4       W_ASKCMDBACK        
 0D58:EBDC       W_ASKCMDREM         
 0D58:67DA       W_ASKSCR1           
 0D58:69FC       W_ASKSCR2           
 0D58:6C29       W_AUTO1             
 0D58:6C31       W_AUTO2             
 0D58:639E       W_BASE              
 0D58:618F       W_CPY               
 0D58:7070       W_CURPAT            
 0D58:7D09       W_DELAY             
 0D58:6720       W_EBOX              
 0D58:76F4       W_ELAP1             
 0D58:76FC       W_ELAP2             
 0D58:6710       W_ELEV              
 0D58:6C6F       W_ENUM1             
 0D58:6C77       W_ENUM2             
 0D58:7710       W_ETA1              
 0D58:7718       W_ETA2              
 0D58:7C3C       W_HALT              
 0D58:8184       W_HASK              
 0D58:81B6       W_HEBOX             
 0D58:819C       W_HELEV             
 0D58:8006       W_HELP              
 0D58:7F04       W_HKEY              
 0D58:7F0C       W_HKEYERR           
 0D58:7F14       W_HKEYF2            
 0D58:817A       W_HLIN              
 0D58:818C       W_HSCR              
 0D58:8194       W_HTTL              
 0D58:619F       W_KEY               
 0D58:6728       W_MEMEND            
 0D58:6428       W_MEMH              
 0D58:6418       W_MEMLIN            
 0D58:6410       W_MEMSCR            
 0D58:6420       W_MEMWRK            
 0D58:6358       W_MODE              
 0D58:7720       W_PBAR              
 0D58:74F4       W_PROG              
 0D58:7B98       W_PTST              
 0D58:6E04       W_SCROLL            
 0D58:1E70       W_SHD               
 0D58:6E0C       W_STATH1            
 0D58:6E14       W_STATH2            
 0D58:6E1C       W_STATH3            
 0D58:6DFC       W_STATL             
 0D58:6DF4       W_STATSCR           
 0D58:1E68       W_TMP               
 0D58:2E68       XDDS                
 0000:0006       XMSDRV_VEC          
 0D58:04AA       XMSZLEN             
 0D58:04B0       XMS_GETXMB          
 0D58:04AF       XMS_QRYXMB          
 0D58:04B1       XMS_XLATFLAGS       
 0D58:3FC0       XSHDCNT             
 0D58:3FC2       XSHDIND             
 0D58:3FC4       XSHDTAB             
 0D58:139C       ZAPOFF              
 0000:49AC       ZAPREST             
 0000:2F37       ZERO_PAGE           
 0D58:70EA       ZMSG_BLK            
 0D58:70EC       ZMSG_BLK1           
 0D58:70FD       ZMSG_BLK3           
 0D58:7106       ZMSG_BLK4           
 0D58:7115       ZMSG_BLK5           
 0D58:5FDA       ZMSG_CURPATB        
 0D58:5FEA       ZMSG_CURPATB1       
 0000:0016  Abs  ZMSG_CURPATB_LEN    
 0D58:6012       ZMSG_CURPATD        
 0D58:6022       ZMSG_CURPATD1       
 0000:002E  Abs  ZMSG_CURPATD_LEN    
 0D58:5FF2       ZMSG_CURPATW        
 0D58:6002       ZMSG_CURPATW1       
 0000:001E  Abs  ZMSG_CURPATW_LEN    
 0D58:6161       ZMSG_DRD            
 0D58:7078       ZMSG_ELAP           
 0D58:7087       ZMSG_ELAP1          
 0D58:7090       ZMSG_ELAP_DONE      
 0D58:7087       ZMSG_ELAP_HR        
 0000:0000  Abs  ZMSG_ELAP_HR_LEN    
 0000:0003  Abs  ZMSG_ELAP_MIN_LEN   
 0000:0006  Abs  ZMSG_ELAP_SEC_LEN   
 0D58:610D       ZMSG_LNKIDM         
 0D58:60DF       ZMSG_LNKINV         
 0D58:613C       ZMSG_MOVI           
 0D58:60AE       ZMSG_UNLIDM         
 0D58:607E       ZMSG_UNLINV         
 0D58:6042       ZMSG_UNLSAF         
 0D58:605F       ZMSG_UNLTRN         
 0D58:F7B8       ZTAIL               

  Address         Publics by Value

 0000:0000  Abs  @HELP_NONE          
 0000:0000       DATASEG             
 0000:0000       ERRDATA             
 0000:0000  Abs  ZMSG_ELAP_HR_LEN    
 0000:0001  Abs  @HELP_TOPICS        
 0000:0002  Abs  @HELP_SCREEN        
 0000:0002  Abs  @MEMLIN_SCOL        
 0000:0002       MD_FLAG             
 0000:0003  Abs  @DMSEC_LEN          
 0000:0003  Abs  @HELEV_SROW         
 0000:0003  Abs  @HTXT_SCOL          
 0000:0003  Abs  @HTXT_SROW          
 0000:0003  Abs  ZMSG_ELAP_MIN_LEN   
 0000:0005  Abs  @HLIN_LEN           
 0000:0005  Abs  @HLPIND_MEM         
 0000:0006  Abs  @HLPIND_NMI         
 0000:0006  Abs  MSG_TOT_LEN         
 0000:0006  Abs  TONENAM_TABLEN      
 0000:0006       XMSDRV_VEC          
 0000:0006  Abs  ZMSG_ELAP_SEC_LEN   
 0000:0007  Abs  @ELEV_NROW          
 0000:0007  Abs  @HLPIND_NMIX        
 0000:0007  Abs  @MEMITEM_LEN        
 0000:0007  Abs  LITENAM_TABLEN      
 0000:0008  Abs  @ASKITEM_LEN        
 0000:000A  Abs  @STATLIN_NROW       
 0000:000A       MEMCHK              
 0000:000A       PSP_TERMINATE       
 0000:000B  Abs  @ASKCMD_SREMROW     
 0000:000C  Abs  @HERR_NROW          
 0000:000D  Abs  @STATLIN_SROW       
 0000:000E  Abs  @ELEV_SROW          
 0000:000E  Abs  @HNMIX_NROW         
 0000:000E  Abs  @HNMI_NROW          
 0000:000E  Abs  @MEMLIN_SROW        
 0000:0010  Abs  @ACHLP_NROW         
 0000:0010  Abs  @AUTO_LEN           
 0001:0000       TESTTIME            
 0000:0011  Abs  @HMEM_NROW          
 0000:0011  Abs  @MSG_ENUM_LEN       
 0000:0012  Abs  @DNUM_LEN           
 0000:0012  Abs  @ENUM_LEN           
 0000:0012  Abs  @HELEV_NROW         
 0000:0012  Abs  @HTXT_NROW          
 0000:0012  Abs  MSG_DONE_LEN        
 0000:0012  Abs  MSG_INTR_LEN        
 0000:0015  Abs  MSG_NOERR_LEN       
 0000:0016  Abs  MSG_ALLOC_LEN       
 0000:0016  Abs  MSG_ELAP_LEN        
 0000:0016  Abs  ZMSG_CURPATB_LEN    
 0000:0017  Abs  @STATLIN_END        
 0000:0018  Abs  LITENAM_TABPORT     
 0000:0019  Abs  @MEMLIN_NCOL        
 0000:0019  Abs  MSG_DELAY_LEN       
 0000:001A  Abs  MSG_CANCELLED_LEN   
 0000:001D  Abs  MSG_MEMERR_LEN      
 0000:001D  Abs  MSG_NMIERR_LEN      
 0000:001E  Abs  ZMSG_CURPATW_LEN    
 0000:0024  Abs  MSG_R0W1R1W0R0W1_LEN1
 0000:0026  Abs  @HOVR_NROW          
 0000:0028  Abs  @MSG_QMTDAT_LEN     
 0000:002B  Abs  @ACHLP_NCOL         
 0000:002C       PSP_ENVIR_PTR       
 0000:002D  Abs  @LEN_ASKCMDOPT      
 0000:002D  Abs  MSG_R0W1R1W0R0W1_LEN2
 0000:002D  Abs  MSG_R0W1R1_LEN      
 0000:002D  Abs  MSG_R0W1W0_LEN      
 0000:002D  Abs  MSG_R0W1_LEN        
 0000:002D  Abs  MSG_R0_LEN          
 0000:002D  Abs  MSG_R1W0R0_LEN      
 0000:002D  Abs  MSG_R1W0W1W0_LEN    
 0000:002D  Abs  MSG_R1W0W1_LEN      
 0000:002D  Abs  MSG_R1W0_LEN        
 0000:002D  Abs  MSG_R1_LEN          
 0000:002D  Abs  MSG_W0_LEN          
 0000:002D  Abs  MSG_W1_LEN          
 0000:002E  Abs  ZMSG_CURPATD_LEN    
 0000:002F  Abs  @STATLIN_NCOL       
 0000:0030  Abs  BETA_H              
 0000:0030  Abs  BETA_T              
 0000:0030  Abs  VERS_T              
 0000:0031  Abs  BETA_U              
 0000:0031  Abs  NCMDARGS            
 0000:0036  Abs  @HTST_NROW          
 0000:0038  Abs  VERS_H              
 0000:0038  Abs  VERS_U              
 0000:003D  Abs  @HCMD_NROW          
 0000:0047  Abs  @HCMD_NCOL          
 0000:0047  Abs  @HERR_NCOL          
 0000:0047  Abs  @HMEM_NCOL          
 0000:0047  Abs  @HNAV_NCOL          
 0000:0047  Abs  @HNMIX_NCOL         
 0000:0047  Abs  @HNMI_NCOL          
 0000:0047  Abs  @HOVR_NCOL          
 0000:0047  Abs  @HTST_NCOL          
 0000:0047  Abs  @HTXT_NCOL          
 0000:004B  Abs  @HNAV_NROW          
 0000:0066  Abs  INFOSIZE            
 0000:006C  Abs  @MSG_LARGE          
 0000:0073  Abs  @MSG_SMALL          
 0000:0080  Abs  @SHDTAB_LEN         
 0000:0080  Abs  @XSHDTAB_LEN        
 0000:0080       PSP_PARM_COUNT      
 0000:0081       PSP_PARM_STRING     
 0000:0115       OLDINT15_VEC        
 0000:0119       OLDINT22_VEC        
 0000:011B  Abs  @KEY_HALT           
 0000:011D       CHECK_DPMI          
 0000:0147       CHECK_PMHOST        
 0000:015E  Abs  IDENTIFY_LEN        
 0000:018B       CHECK_MAPSEG        
 0000:01C5       REMAPSEG_NXT        
 0000:01DD       CHECK_CPUID         
 0000:0214       IZIT486             
 0000:0246       IZIT_CPUID          
 0000:026F       CHECK_P5            
 0000:02CC       CHECK_KEYB          
 0000:0328  Abs  VER                 
 0000:0334       CHECK_DEV           
 0000:035B       SETUP_PMHOST        
 0000:03B1       CHECK_MULBUG        
 0000:03E1       CHECK_VDS           
 0000:043B       CHECK_PHYS          
 0000:0505       CHECK_MAX           
 0000:0516       CHECK_XMSDRV        
 0000:055F       ALLOCDYNAMIC        
 0000:05B4       CHECK_CNV           
 0000:05FE       GET_TOPDOS          
 0000:06E7       CHECK_XMS           
 0000:07BC       CHECK_E820          
 0000:0800  Abs  LCLIDT_LEN          
 0000:0808  Abs  VERS_HTU            
 0000:0833       CHECK_XMEM          
 0000:0981       CHECK_EISA_SHD      
 0000:09C8       SAVE_FN88           
 0000:0A05       INST_INT15          
 0000:0A43       INT15               
 0000:0A53       INT23               
 0000:0A54       CHECK_EISA_EXT      
 0000:0B61       VALIDATE_EISAMEM    
 0000:0C31       BIOS_BLOCK_MOVE     
 0000:0CB0       CHECK_PRVEXT        
 0000:0D6F       CHECK_SCRN          
 0000:0E56       SET_COLOR           
 0000:0ED3       IZITEGA             
 0000:0EFF       LOWERCASE           
 0000:0F0A       GIVEBACK            
 0000:0F77       CHECK_WIN3          
 0000:0F9B       DISP_EXIT           
 0000:104D       WEEKDAYS            
 0000:104F       DATE2EPOCH          
 0000:1093       EPOCH2DATE          
 0000:10F0       EPOCH2WEEKS         
 0000:1101       GET_DATES           
 0000:1209       BYTE2DEC            
 0000:121D       FMT_DMY             
 0000:123F       FMT_HM              
 0000:1278       CHECK_SCHED         
 0000:12DB       UPDATE_QMTDAT       
 0000:130C       CHECK_ASK           
 0000:139A       IZITSEP             
 0000:13B5       CHECK_ARGS          
 0000:14AF       DISP_UNK            
 0000:14DA       DISP_MSG            
 0000:14F0       UPPERCASE           
 0000:14FB       SKIP_WHITE          
 0000:1508       BASE2BIN            
 0000:1538       BASE2BIND           
 0000:1575       OLDSTK_VEC          
 0000:1579       OLDTMPINT15_VEC     
 0000:157D       SEL_DATA            
 0000:157F       VMINTFN             
 0000:1581       INT02               
 0000:158B       VMINT02             
 0000:1595       VMINT08             
 0000:15A5       INT08               
 0000:15B6       INT09               
 0000:15C7       INT24               
 0000:15D5       ENTER_PM            
 0000:1798       ENTER_PMSUB         
 0000:1B23       ENTER_PMSUB2        
 0000:1BAB       DISABLE_SWAP        
 0000:1BD9       ENABLE_SWAP         
 0000:1BF1       SETUP_GDT           
 0000:1CE7       SET_GDT             
 0000:1D41       SETUP_TSS           
 0000:1D77       SETUP_EPM           
 0000:1DC7       SETUP_IDT           
 0000:1DF8       INT15PROT           
 0000:1E56       VMINTFN1            
 0000:1E59       VMINTFN2            
 0000:1E60       STOREINT            
 0000:1E9D       INTPROC             
 0000:1E9D       INTPROC_COM         
 0000:2481       OUTCMOS             
 0000:2490       ENABLE_NMI          
 0000:24BC       DISABLE_NMI         
 0000:24D0       CLR_PARITY          
 0000:24F0       READA20             
 0000:2530       GOREAL              
 0000:25F4       ACT_XPM             
 0000:2628       INST_TMPINT15       
 0000:264F       REST_TMPINT15       
 0000:2661       TMPINT15            
 0000:268E       INT22               
 0000:26CF       DPMI_ALLOC          
 0000:27D6       DPMI_FREE           
 0000:28F5       DPMI_RESET          
 0000:2927       VMINT23             
 0000:2946       PMINT23             
 0000:2952       PMHALT              
 0000:295E       PMZAP               
 0000:2972       PMINT02             
 0000:297C       PMEXC02             
 0000:2986       GETBASE             
 0000:29D4       INT02_COM           
 0000:2A7F       SWAP_NMI            
 0000:2ACF       DEBOUNCE            
 0000:2AD1       PMINT08             
 0000:2AE4       PMINT09             
 0000:2AF7       INT08_COM           
 0000:2B7C       INT09_COM           
 0000:2BAE       SETUP_VCPI          
 0000:2E8F       CHECK_VCPI          
 0000:2F37       ZERO_PAGE           
 0000:2F5D       RMPAGE              
 0000:3098       NOCACHETEST         
 0000:30ED       CHECK_RHELP         
 0000:310B       DELAYINTEST         
 0000:3140       MARK_ACTIVE         
 0000:314C       MARK_INACTIVE       
 0000:3159       CHECK_FAULT         
 0000:3572       ASK_COMPLETE        
 0000:363B       RESETITEMORDER      
 0000:364C       SETITEMORDER        
 0000:3682       GET_NEXTIND         
 0000:36B9       COUNT_CONT          
 0000:36C4       SET_ASKCOUNT        
 0000:377B       SWITCH_MODE         
 0000:3796       GET_MEMTIMER        
 0000:37A0       CHECK_KEYS          
 0000:3845       SWITCH_COLOR        
 0000:3860       DISP_DELAY          
 0000:3884       FMT_DNUM            
 0000:38C6       SWITCH_DELAY        
 0000:399A       FMT_ENUM            
 0000:39EA       DISP_ENUM           
 0000:3A11       FMT_AUTO            
 0000:3A3B       DISPAUTOMEM         
 0000:3A6F       CHECK_HALT          
 0000:3A8B       ASK_HALT            
 0000:3AE6       COUNTOUT            
 0000:3B15       SET_BARATTR         
 0000:3B67       SET_COMPLETE        
 0000:3B79       DISP_ASKITEM        
 0000:3C17       DISP_ACTIV          
 0000:3C4C       DISP_STATLIN        
 0000:3C5E       CLEAR_STATLIN       
 0000:3C80       DISP_PROGSCR        
 0000:3CC5       DISP_TEST           
 0000:3CDB       DISP_OPERS          
 0000:3DBC       DISP_PROGRESS       
 0000:3E25       CALC_ETA            
 0000:3E67       DISP_ETA            
 0000:3ED0       CALC_PCT            
 0000:3F1D       SCALE_DOWN          
 0000:3F2F       ADD_DELAYCNT        
 0000:3F73       CALC_NOPERS         
 0000:40DF       ADD_TMPOPERS        
 0000:4107       FMT_ELAP            
 0000:412D       FMT_ELAPSUB         
 0000:41AD       DISP_ELAP           
 0000:41E2       CLEAR_STATUS        
 0000:41E9       FMT_BLK             
 0000:4294       DISP_MEMWRK         
 0000:42C9       FMT_DONE            
 0000:4331       CALC_TESTNAME       
 0000:4341       CALC_TESTTIME_BEG   
 0000:4376       CALC_TESTTIME_END   
 0000:43B6       CALC_PTST           
 0000:43E5       INCPTR              
 0000:443C       ERRLOG              
 0000:44DC       DISP_ERRB           
 0000:4529       DISP_ERRW           
 0000:4569       DISP_ERRD           
 0000:4611       DISP_NMIERR         
 0000:4701       IZITMARKED          
 0000:4767       MARKPTE             
 0000:4801       IZITCURBLK          
 0000:4832       ALLOCPHYS           
 0000:48DE       DISP_ASKSCR         
 0000:492E       DISP_ASKBAS         
 0000:4950       DISP_STATSCR        
 0000:49AC       ZAPREST             
 0000:49C8       CLEAR_CONT          
 0000:4A03       HMS2SECDAY          
 0000:4A1F       DISP_BUTTON         
 0000:4A54       GET_ASKRESP         
 0000:4BDD       WRITESTR            
 0000:4BF5       DEFAULT_LOG         
 0000:4C28       OPEN_LOG            
 0000:4CCE       APPEND_LOG          
 0000:4FCE       WRITEERRORRANGE     
 0000:5037       MARK_STATE          
 0000:505D       NORMALIZE_DATE      
 0000:5070       LASTDAY             
 0000:5089       FCN_ADVANCED        
 0000:5099       FCN_ALL             
 0000:50FF       FCN_AUTOMEM         
 0000:5164       FCN_BW              
 0000:516D       FCN_COLOR           
 0000:517D       FCN_ASK             
 0000:51F2       FCN_DAILY           
 0000:5223       FCN_DELAY           
 0000:5260       FCN_ERRCNT          
 0000:529D       FCN_INTERVAL        
 0000:530B       FCN_OLOG            
 0000:5313       FCN_LOG             
 0000:5387       FCN_MONTHLY         
 0000:5436       FCN_WEEKLY          
 0000:54D2       FCN_EXTENDED        
 0000:551C       FCN_FULL            
 0000:558D       FCN_HELP            
 0000:55FB       FCN_HEX             
 0000:5604       FCN_LARGER          
 0000:5612       FCN_NOCACHE         
 0000:5619       FCN_NOCACHETEST     
 0000:5620       FCN_NODAT           
 0000:5627       FCN_NODOS           
 0000:562E       FCN_NODPMI          
 0000:5635       FCN_NOPSE           
 0000:563D       FCN_NOVCPI          
 0000:5644       FCN_NOEXIT          
 0000:564C       FCN_NOPARITY        
 0000:5655       FCN_NOSCRUB         
 0000:565E       FCN_NOXRAM          
 0000:5675       FCN_SMALLER         
 0000:5683       FCN_QUICK           
 0000:56EC       FCN_SHADOWRAM       
 0000:56EE       FCN_TOP384          
 0000:5700       FCN_LNKIDM          
 0000:5709       FCN_LNKINV          
 0000:5712       FCN_UNLIDM          
 0000:571B       FCN_UNLINV          
 0000:5724       FCN_UNLSAF          
 0000:572D       FCN_UNLTRN          
 0000:5736       FCN_MOVI            
 0000:573F       FCN_DRD             
 0000:5748       FCN_CNTCOM          
 0000:57B4       FCN_TONE            
 0000:5903       SKIP_LINE           
 0000:5923       LINE_LOWERCASE      
 0000:5946       SKIP_WHITE_FS       
 0000:5951       PARSE_FD            
 0000:59AF       PARSE_DEC           
 0000:59BE       FCN_LIGHTS          
 0000:5B80       FCN_K               
 0000:5B89       FCN_VLSI            
 0000:5B92       ENABLE8255          
 0000:5BA9       PPI_S2C             
 0000:5BB8       PPI_S2C_K2S         
 0000:5BC1       PPI_S2K             
 0000:5BD0       PPI_K2S             
 0000:5BDB       PPI_S2K_K2S         
 0000:5BF3       WAITIBUF_CLR        
 0000:5C2A       WAITOBUF_SET        
 0000:5C43       WAITOBUF_CLR        
 0000:5C56       SEND_OUT            
 0000:5C82       ENABLE_IRQS         
 0000:5CA1       SAVE_IMR            
 0000:5CC0       REST_IMR            
 0000:5CDE       DRAINPIQ            
 0000:5CF5       PURGE_KBUFF         
 0000:5D08       CHKNDKEY            
 0000:5D0F       GETKEY              
 0000:5D16       GETKEY_NOWAIT       
 0000:5D21       BIN2DWORD           
 0000:5D30       BIN2WORD            
 0000:5D3D       BIN2BYTE            
 0000:5D4A       BIN2DIGIT           
 0000:5D58       BIN2DEC             
 0000:5D81       BIND2DEC            
 0000:5DB6       BIN2BIT             
 0000:5DD0       BIN2DVAL            
 0000:5E09       DW2DEC              
 0000:5E74       SAVE_SCR            
 0000:5E97       REST_SCR            
 0000:5EBA       VIDB_SEGOFF         
 0000:5ECF       VIDB_LINEAR         
 0000:5EE6       DISP_ALLOC          
 0000:5F03       DISP_SCRN           
 0000:5F1F       DISP_CLRSCR         
 0000:5F47       DISP_CPYSCR         
 0000:5F77       DISP_QUIT           
 0000:5F8F       DISP_HALT           
 0000:5F9F       DISP_MODE           
 0000:5FBD       DISP_BASE           
 0000:5FFA       DISP_STATL          
 0000:606A       DISP_STATLZ         
 0000:60E0       DISP_CURPAT         
 0000:610D       WSETUP              
 0000:613C       WGET_C              
 0000:6182       WGET_A              
 0000:61C8       WGET_CA             
 0000:620D       WPUT_C              
 0000:624A       WPUT_CA             
 0000:6286       WPUT_A              
 0000:62C3       WPUT_ASC            
 0000:6309       WPUT_CSA            
 0000:634B       WPUT_SC             
 0000:6384       WPUT_SA             
 0000:63BD       WPUT_SCA            
 0000:63F1       WPUT_SHD1           
 0000:646F       WPUT_SHD1_SUB       
 0000:649A       WPUT_SHD2           
 0000:64F4       NMIPORT             
 0000:64F6       NMIENA              
 0000:64F7       NMIDIS              
 0000:64F8       NMIMASK             
 0000:64F9       CHECK_SYS           
 0000:669E       CHECK_VLSI          
 0000:66D3       CHECK_TOSH          
 0000:66F4       CHECK_QUAD386       
 0000:6751       CHECK_AST386        
 0000:6804       CHECK_HPRS          
 0000:6857       CHECK_GRID          
 0000:6930       CHECK_OLI           
 0000:69F3       CHECK_CPQ386        
 0000:6AB9       CHECK_ITT           
 0000:6AFE       CMD_TOP384          
 0000:6B51       SAVE_SHADOW         
 0000:6DA9       SAVE_XSHADOW        
 0000:6E0A       TOP_WRITE           
 0000:6E6B       DISABLE_EGAROM      
 0000:6EAF       SRCHSTR             
 0000:6EE8       OLI_RESET           
 0000:6F2F       COPY_MEMVAL         
 0000:6F8A       CALC_MEMVAL         
 0000:7018       DISP_MEMSCR         
 0000:7040       DISP_MEMVAL         
 0000:7154       FMT_MEM             
 0000:71B2       CLEAR_MEM           
 0000:71C7       CHECK_TIME          
 0000:71E8       SORT_MEMVAL         
 0000:724B       FILL_MEMVAL         
 0000:7539       WORD_MEMVAL         
 0000:754F       CHECK_SX            
 0000:75A1       FMT_R0              
 0000:75CD       FMT_R0DN            
 0000:75F9       FMT_R0W1            
 0000:7625       FMT_R0W1DN          
 0000:7651       FMT_R0W1R1          
 0000:767D       FMT_R0W1R1DN        
 0000:76A9       FMT_R0W1R1W0R0W1    
 0000:76DE       FMT_R0W1W0          
 0000:770A       FMT_R0W1W0DN        
 0000:7736       FMT_R1              
 0000:7762       FMT_R1DN            
 0000:778E       FMT_R1W0            
 0000:77BA       FMT_R1W0DN          
 0000:77E6       FMT_R1W0R0          
 0000:7812       FMT_R1W0R0DN        
 0000:783E       FMT_R1W0W1          
 0000:786A       FMT_R1W0W1DN        
 0000:7896       FMT_R1W0W1W0DN      
 0000:78C2       FMT_W0              
 0000:78EE       FMT_W0DN            
 0000:791A       FMT_W1              
 0000:7946       FMT_DELAY           
 0000:796F       FMT_PATTERNB        
 0000:7998       FMT_PATTERNW        
 0000:79C1       FMT_PATTERND        
 0000:79ED       DISP_HLPERR         
 0000:7A5A       GET_MEM             
 0000:7A83       WPUT_BOX            
 0000:7B04       DPUT_SZ             
 0000:7B46       DPUT_SZA            
 0000:7B89       DPUT_CA             
 0000:7BBD       DPUT_C              
 0000:7BF3       DPUT_SCA            
 0000:7C3E       DPUT_A              
 0000:7C73       STRLEN              
 0000:7C92       SETCSR              
 0000:7CA6       D2WCALL             
 0000:7CD2       DRAW_DTEXT          
 0000:7CF0       DRAW_DEDIT          
 0000:7DC7       DRAW_DBTN           
 0000:7E58       DRAW_DRADIO         
 0000:7ED8       DRAW_DNONE          
 0000:7ED9       DRAW_DLG            
 0000:7F0F       INP_FOCNONE         
 0000:7F11       INP_FOCTEXT         
 0000:7F13       BRANCH_AX           
 0000:7F38       INP_FOCEDIT         
 0000:809B       INP_FOCBTN          
 0000:80AC       INP_FOCRADIO        
 0000:8163       FIND_OBJ            
 0000:817B       DRAW_SI             
 0000:8190       GET_DLG             
 0000:8353       GETKEYXLT           
 0000:8370       CHECK_CANKEY        
 0000:838C       PLINE_SUB           
 0000:83B8       PRINT_LINE          
 0000:8462       DO_PRINT            
 0000:85F8       DISP_HELP           
 0000:892C       CALIBRATE           
 0000:8F06       TIMER_SETUP         
 0000:8F28       TIMER_RESTORE       
 0000:8F4A       TIMER_READ          
 0000:8F71       TEST_UNLSAF         
 0000:8FE5       MATSPB              
 0000:9173       MATSPW              
 0000:92FE       MATSPD              
 0000:9494       TEST_UNLTRN         
 0000:9508       MATSPPB             
 0000:96B2       MATSPPW             
 0000:9859       MATSPPD             
 0000:9A0D       TEST_UNLINV         
 0000:9A81       MARCHXB             
 0000:9C9E       MARCHXW             
 0000:9EBB       MARCHXD             
 0000:A0F6       TEST_UNLIDM         
 0000:A16A       MARCHCMB            
 0000:A466       MARCHCMW            
 0000:A760       MARCHCMD            
 0000:AA80       TEST_LNKINV         
 0000:AAEC       MARCHYB             
 0000:AD41       MARCHYW             
 0000:AF96       MARCHYD             
 0000:B20D       TEST_LNKIDM         
 0000:B281       MARCHBB             
 0000:B560       MARCHBW             
 0000:B83E       MARCHBD             
 0000:BB4A       TEST_MOVI           
 0000:BBBE       MOVIB               
 0000:BEC6       MOVIW               
 0000:C1CD       MOVID               
 0000:C4FF       TEST_DRD            
 0000:C573       DRDB                
 0000:C935       DRDW                
 0000:CCF0       DRDD                
 0000:D0CD       CHECK_FSA           
 0000:D0F5       PLAY_LIGHTS         
 0000:D122       INIRP_LITE          
 0000:D130       INIFD_LITE          
 0000:D146       ON_LITE             
 0000:D15C       SDI_LITE            
 0000:D16B       PAUSE_LITE          
 0000:D17D       RESET_LITE          
 0000:D18D       SPI_LITE            
 0000:D1A8       NXTFD_LITE          
 0000:D1C2       NXTRP_LITE          
 0000:D1D7       STOP_LITE           
 0000:D1E2       PLAY_TONE           
 0000:D20E       INIRP_TONE          
 0000:D21C       INIFD_TONE          
 0000:D232       ON_TONE             
 0000:D23F       SDI_TONE            
 0000:D24E       PAUSE_TONE          
 0000:D260       RESET_TONE          
 0000:D270       SPI_TONE            
 0000:D28B       NXTFD_TONE          
 0000:D2A5       NXTRP_TONE          
 0000:D2BA       STOP_TONE           
 0000:D2C5       BEEP                
 0000:D306       ACTA20_COMSUB       
 0000:D308       ACTA20_ENA          
 0000:D314       ACTA20_DIS          
 0000:D320       DEFOUT              
 0000:D321       PPI_S2C_S2K         
 0000:D32E       PULSE8042           
 0000:D33B       READ_IRR            
 0000:D345       A20DIS_I92          
 0000:D348       A20DIS_QUD          
 0000:D34B       A20DIS_XT           
 0000:D34E       A20DIS_I78          
 0000:D351       A20DIS_ISA          
 0000:D356       A20DIS_XMS          
 0000:D359       DEGATEA20           
 0000:D361       GATEA20             
 0000:D368       ACTA20_COM          
 0000:D377       A20ENA_I92          
 0000:D37A       A20ENA_QUD          
 0000:D37D       A20ENA_XT           
 0000:D380       A20ENA_I78          
 0000:D383       A20ENA_ISA          
 0000:D388       A20ENA_XMS          
 0000:D38B       A20COM_I92          
 0000:D393       A20COM_QUD          
 0000:D39F       A20COM_XT           
 0000:D3A6       A20COM_I78          
 0000:D3AF       A20COM_ISA          
 0000:D3C7       A20COM_XMS          
 0000:D3D5       CHECK_I92           
 0000:D433       CHECK_I78           
 0000:D457       CHECK_INFO          
 0000:D580       CTAIL               
 0D58:0000       PMSTK               
 0D58:01FE       PMSTKZ              
 0D58:0200       LCLSTK              
 0D58:03FE       LCLSTKZ             
 0D58:0400       MAXERRCNT           
 0D58:0404       CPUFET_FLAG         
 0D58:0408       CPUSIG              
 0D58:040C       CON4K               
 0D58:0410       CON32K              
 0D58:0414       CON64K              
 0D58:0418       CON128K             
 0D58:041C       CON1M               
 0D58:0420       CON4M               
 0D58:0424       CON16M              
 0D58:0428       MUL_ARG1            
 0D58:042C       MUL_ARG2            
 0D58:0430       MUL_PROD            
 0D58:0438       E820BUF             
 0D58:044C       MOVE_TAB            
 0D58:047C       PHYSIZE             
 0D58:0480       CMOSIZE             
 0D58:0484       MAXSIZE             
 0D58:0488       EXTSIZE             
 0D58:048C       DPMIDRV_VEC         
 0D58:0490       VIDBASE_FVEC        
 0D58:0496       DOSVER              
 0D58:0498       TOPFILL             
 0D58:049A       CLRMODE             
 0D58:049C       GL2_FLAG            
 0D58:049E       CODESEG             
 0D58:04A0       PSPSEG              
 0D58:04A2       HPDASEG             
 0D58:04A4       HPDALEN             
 0D58:04A6       ARG_FLAG            
 0D58:04A6       INT_FLAG            
 0D58:04A8       MAPSEG_NXT          
 0D58:04AA       XMSZLEN             
 0D58:04AC       CC_NUM              
 0D58:04AD       CPUTYPE             
 0D58:04AE       DPMITERM            
 0D58:04AF       XMS_QRYXMB          
 0D58:04B0       XMS_GETXMB          
 0D58:04B1       XMS_XLATFLAGS       
 0D58:04B3       SCRNTYPE            
 0D58:04B4       ADEF                
 0D58:04B7       DEFATTR             
 0D58:04B8       AMSG                
 0D58:04BB       MSGATTR             
 0D58:04BC       AWRK                
 0D58:04BF       WRKATTR             
 0D58:04C0       AERR                
 0D58:04C3       ERRATTR             
 0D58:04C4       ABRD                
 0D58:04C7       BRDATTR             
 0D58:04C8       ATTL                
 0D58:04CB       TTLATTR             
 0D58:04CC       ACPY                
 0D58:04CF       CPYATTR             
 0D58:04D0       AAAR                
 0D58:04D3       AARATTR             
 0D58:04D4       AKEY                
 0D58:04D7       KEYATTR             
 0D58:04D8       AKEY2               
 0D58:04DB       KEY2ATTR            
 0D58:04DC       ASHD1               
 0D58:04DF       SHD1ATTR            
 0D58:04E0       ASHD2               
 0D58:04E3       SHD2ATTR            
 0D58:04E4       APRG                
 0D58:04E7       PRGATTR             
 0D58:04E8       APRG1               
 0D58:04EB       PRG1ATTR            
 0D58:04EC       APRG2               
 0D58:04EF       PRG2ATTR            
 0D58:04F0       AELEV               
 0D58:04F3       ELEVATTR            
 0D58:04F4       AMEM                
 0D58:04F7       MEMATTR             
 0D58:04F7       STATATTR            
 0D58:04F8       AMEMH               
 0D58:04FB       MEMHATTR            
 0D58:04FB       STATHATTR           
 0D58:04FC       AWMEM               
 0D58:04FF       WMEMATTR            
 0D58:0500       AAMEM               
 0D58:0503       AMEMATTR            
 0D58:0504       AIMEM               
 0D58:0507       IMEMATTR            
 0D58:0508       AEMEM               
 0D58:050B       EMEMATTR            
 0D58:050C       ATMEM               
 0D58:050F       TMEMATTR            
 0D58:0510       AHTTL               
 0D58:0513       HTTLATTR            
 0D58:0514       AHLP                
 0D58:0517       HLPATTR             
 0D58:0518       AHLPA               
 0D58:051B       HLPAATTR            
 0D58:051C       AHLPB               
 0D58:051F       HLPBATTR            
 0D58:0520       AHERR               
 0D58:0523       HERRATTR            
 0D58:0524       AHKEY               
 0D58:0527       HKEYATTR            
 0D58:0528       AHLT                
 0D58:052B       HLTATTR             
 0D58:052C       AASK                
 0D58:052F       ASKATTR             
 0D58:0530       AASKAA              
 0D58:0533       ASKAAATTR           
 0D58:0534       AASKAB              
 0D58:0537       ASKABATTR           
 0D58:0538       AASKMA              
 0D58:053B       ASKMAATTR           
 0D58:053C       AASKMB              
 0D58:053F       ASKMBATTR           
 0D58:0540       AASKBA              
 0D58:0543       ASKBAATTR           
 0D58:0544       AASKBB              
 0D58:0547       ASKBBATTR           
 0D58:0548       ASTATT              
 0D58:054B       STATTATTR           
 0D58:054C       ASTATL              
 0D58:054F       STATLATTR           
 0D58:0550       ABACK               
 0D58:0553       BACKATTR            
 0D58:0554       ADLGB               
 0D58:0557       DLGBATTR            
 0D58:0558       ADLGBTN             
 0D58:055B       DLGBTNATTR          
 0D58:055C       ADLGABTN            
 0D58:055F       DLGABTNATTR         
 0D58:0560       ADLGBHK             
 0D58:0563       DLGBHKATTR          
 0D58:0564       ADLGABHK            
 0D58:0567       DLGABHKATTR         
 0D58:0568       ADLGRBHK            
 0D58:056B       DLGRBHKATTR         
 0D58:056C       ADLGTHK             
 0D58:056F       DLGTHKATTR          
 0D58:0570       ADLGEH              
 0D58:0573       DLGEHATTR           
 0D58:0574       ADLGEN              
 0D58:0577       DLGENATTR           
 0D58:0578       ADLGEF              
 0D58:057B       DLGEFATTR           
 0D58:057C       ADIS                
 0D58:057F       DISATTR             
 0D58:0580       ADELAY              
 0D58:0583       DELAYATTR           
 0D58:0584       VIDMODE1            
 0D58:0585       VIDMODE2            
 0D58:0586       MAXNAME             
 0D58:058F       PROT_NAME           
 0D58:0598       CONSOLE             
 0D58:059C       MSG_TOPDOS          
 0D58:05E8       CMD_FLAG            
 0D58:05EA       CM2_FLAG            
 0D58:05EC       QMTLOGPATH          
 0D58:066C       QMTPATH             
 0D58:06EC       SAV_ASKCMDOPT       
 0D58:0719       TIMEPREFIX          
 0D58:071D       QMTDIR              
 0D58:079D       QMT_STEM            
 0D58:07AC       MEMTIMER            
 0D58:07B4       LCLGDT              
 0D58:092C       LCLIDT              
 0D58:112C       VMVSAPI_VEC         
 0D58:1130       VMINT_VEC           
 0D58:1134       OLDCR0              
 0D58:1138       OLDCR4              
 0D58:113C       DDS                 
 0D58:114C       EPMTAB              
 0D58:1162       LCLTSS              
 0D58:11CA       DPMI_FMI            
 0D58:11FA       DPMI_PS             
 0D58:11FE       P2L_SIZE            
 0D58:1202       P2L_HNDL            
 0D58:1206       P2L_ADDR            
 0D58:120A       LACODE              
 0D58:120E       LADATA              
 0D58:1212       LACR3               
 0D58:1216       LAPTE               
 0D58:121A       PACR3               
 0D58:121E       NEXTPTE             
 0D58:1222       LIMADDR             
 0D58:1226       LACR3V              
 0D58:122A       PACR3V              
 0D58:122E       LAPTEV              
 0D58:1232       PAPTEV              
 0D58:1236       VMHANDLE            
 0D58:123A       CB_VM_FLAGS         
 0D58:123E       MAXDEV_FVEC         
 0D58:1244       PMI_FVEC            
 0D58:124A       PMONSTK_FVEC        
 0D58:1250       PMINT08_FVEC        
 0D58:1256       PMINT09_FVEC        
 0D58:125C       IDT_REAL            
 0D58:1262       NMIADDR             
 0D58:1266       NMIOFF              
 0D58:1268       NMIRET              
 0D58:126A       ERR_FLAG            
 0D58:126C       OLDCUR              
 0D58:126E       OLDTYP              
 0D58:1270       SEL_4GB             
 0D58:1272       SEL_ALIAS           
 0D58:1274       SEL_CODE            
 0D58:1276       DPMIMSG             
 0D58:1278       DEBOUNCE_FVEC       
 0D58:127E       DEBOUNCE_ARB        
 0D58:127F       IBV0                
 0D58:1280       IBV0Z               
 0D58:1281       IBV1                
 0D58:1282       IBV1Z               
 0D58:1283       ERR_CODE            
 0D58:1284       OLDSWAP_CNT         
 0D58:1286       BRKSTATE            
 0D58:1287       SECTIMER            
 0D58:1288       EMMNAME             
 0D58:1291       EMMNAM2             
 0D58:129A       EMMNAM3             
 0D58:12A3       EMMNAM4             
 0D58:12AC       EMMNAM5             
 0D58:12B5       CPQ_CACHE           
 0D58:12B6       DPMIMAX             
 0D58:12BD       VLSI_CSIZE          
 0D58:12C0       OLDINT02            
 0D58:12C4       OLDINT08            
 0D58:12C8       OLDINT24            
 0D58:12CC       OLDINT67            
 0D58:12D1       INFO_CTL            
 0D58:12D2       INFO                
 0D58:12F6       PORT67              
 0D58:1338       VCPIDBG_VER         
 0D58:133C       TOTOPERS            
 0D58:1344       TMPOPERS            
 0D58:134C       NUMOPERS            
 0D58:1354       MAXTIMER            
 0D58:135C       ETATIMER            
 0D58:1364       DECTIMER            
 0D58:136C       INITIMER            
 0D58:1374       DLYTIMER            
 0D58:137C       CON60               
 0D58:1380       CON1000             
 0D58:1384       CON_CLOCK           
 0D58:1388       CON10               
 0D58:138C       DELAYNUM            
 0D58:1390       DELAYCNT            
 0D58:1394       LAST_ERRA           
 0D58:1398       NEXT_ERRA           
 0D58:139C       ZAPOFF              
 0D58:139E       RESOFF              
 0D58:13A0       PROGPCT             
 0D58:13A2       CONTCNT             
 0D58:13A4       LAST_PTST           
 0D58:13A6       MEMERRCNT           
 0D58:13AA       NMIERRCNT           
 0D58:13AE       MEMWRKIND           
 0D58:13B0       ASKBLK              
 0D58:13B2       BLK_STRS            
 0D58:13B2       MEMIND              
 0D58:13B4       MEMITEM_LEN         
 0D58:13C8       BASIND              
 0D58:13DE       ADVIND              
 0D58:13E0       ITEM_LEN            
 0D58:13F4       ACMDIND             
 0D58:140A       ASKTAB              
 0D58:140E       PATXT1              
 0D58:1412       PBTXT1              
 0D58:1416       PATXT3              
 0D58:141C       PBTXT3              
 0D58:1422       ITEMOPERS           
 0D58:1432       ITEMPATCNT          
 0D58:1442       ITEMIND             
 0D58:1444       ITEMORD             
 0D58:144E       RCNT                
 0D58:1450       BPU                 
 0D58:1454       REG0UP              
 0D58:1458       REG1UP              
 0D58:145C       REG0DN              
 0D58:1460       REG1DN              
 0D58:1464       PATCNT              
 0D58:1466       PATOFF              
 0D58:1468       ASKITEM             
 0D58:1478       ITEMCNT             
 0D58:1488       CNT_FLAG            
 0D58:148A       ASKLFT              
 0D58:1493       ASKRHT              
 0D58:149C       ASKUP               
 0D58:14A5       ASKDN               
 0D58:14AE       ASKBAS              
 0D58:14B0       ASKCMDUP            
 0D58:14B3       ASKCMDDN            
 0D58:14B6       ASKCMDBTN           
 0D58:14B9       QMTLOG              
 0D58:14C6       PLERR               
 0D58:14E4       ERRDATACNT          
 0D58:14E6       ERRDLEN             
 0D58:14EA       ERRDSEG             
 0D58:14EC       ERRDSEL             
 0D58:14EE       TESTNAME            
 0D58:14F0       TESTTIME_IND        
 0D58:14F2       MAX_TTDCNT          
 0D58:14F6       TTDCNT              
 0D58:14F8       TTDSEG              
 0D58:14FA       TTDSEL              
 0D58:14FC       TTDLEN              
 0D58:1500       MSG_KBCRLF          
 0D58:1508       LIGHTS_PORT         
 0D58:150A       TONE_STATE          
 0D58:1516       TONETAB_INI         
 0D58:15DA       TONETAB_RUN         
 0D58:169E       TONETAB_ATC         
 0D58:1762       TONETAB_MEM         
 0D58:1826       TONETAB_PAR         
 0D58:18EA       TONETAB_AUT         
 0D58:19AE       LITE_STATE          
 0D58:19BA       LITETAB_INI         
 0D58:1A7E       LITETAB_RUN         
 0D58:1B42       LITETAB_ATC         
 0D58:1C06       LITETAB_MEM         
 0D58:1CCA       LITETAB_PAR         
 0D58:1D8E       LITETAB_AUT         
 0D58:1E54       OLDIMR1             
 0D58:1E55       OLDIMR2             
 0D58:1E56       FNGETKST            
 0D58:1E57       FNGETKEY            
 0D58:1E58       HEXTABLE            
 0D58:1E68       W_TMP               
 0D58:1E70       W_SHD               
 0D58:1E78       OLDSCR              
 0D58:2E18       MSG_SHD1            
 0D58:2E68       XDDS                
 0D58:2F78       GLB_FLAG            
 0D58:2F7A       GL3_FLAG            
 0D58:2F7C       SYS_FLAG            
 0D58:2F7E       ASTMIO              
 0D58:2F82       CPQMIO              
 0D58:2F86       TOP_GDT             
 0D58:2FB6       TOP_MIO             
 0D58:2FB8       SHDSIZE             
 0D58:2FBC       SHDCNT              
 0D58:2FBE       SHDIND              
 0D58:2FC0       SHDTAB              
 0D58:3FC0       XSHDCNT             
 0D58:3FC2       XSHDIND             
 0D58:3FC4       XSHDTAB             
 0D58:4FC4       MACHID              
 0D58:4FC5       MSG_TOSHSIGN        
 0D58:4FCA       MSG_QUADCOPY        
 0D58:4FDC       MSG_ASTCOPY         
 0D58:4FF2       LCL_OLISIGN         
 0D58:5008       LCL_ITTSIGN         
 0D58:502B       LCL_EISASIGN        
 0D58:502F       LCL_PHOENIXSIGN     
 0D58:5047       LCL_TANDYSIGN       
 0D58:504C       LCL_ALCSIGN         
 0D58:5061       LCL_CACHCTL1        
 0D58:5069       PCACHCTL            
 0D58:5070       TSTSIZEB            
 0D58:5074       TSTSIZEW            
 0D58:5078       TSTSIZED            
 0D58:507C       NMEMVAL             
 0D58:5080       MEMITEM_SIZ         
 0D58:5082       TIMECNT             
 0D58:5084       TIMETAB             
 0D58:5884       MSG_MEMCLR          
 0D58:589D       MAXVSAPI            
 0D58:58A4       HLPIND              
 0D58:58A6       HTOPIND             
 0D58:58B6       HLPTOPIC            
 0D58:58C6       PMSG_HKEY           
 0D58:58C8       PW_HKEY             
 0D58:58CA       DLG_DISP            
 0D58:58DA       PFNFOCUS            
 0D58:58EA       CHEV_PAT            
 0D58:58EE       DPUT_CLIP           
 0D58:58F0       EDIT_FLAGS          
 0D58:58F2       KEY_FLAGS           
 0D58:58F4       PRINTDLG            
 0D58:5928       PRINTCANDLG         
 0D58:5940       MSG_PRINT1          
 0D58:5948       MSG_PRINT2          
 0D58:5956       MSG_PRINT3          
 0D58:5965       MSG_PRINT4          
 0D58:596F       MSG_PRINT5          
 0D58:598C       MSG_OK              
 0D58:598F       MSG_CANCEL          
 0D58:5996       MSG_WHTHIS          
 0D58:59AA       MSG_WHALL           
 0D58:59BE       MSG_OUPRINT         
 0D58:59CA       MSG_OUFILE          
 0D58:59D8       MSG_OUAFILE         
 0D58:59ED       MSG_PRINTC1         
 0D58:59F7       MSG_PRINTC2         
 0D58:5A08       MSG_CRLF2           
 0D58:5A08       MSG_PHEADER         
 0D58:5A8A       MSG_FF              
 0D58:5A8B       TXT_PRINT1          
 0D58:5A93       TXT_PRINT2          
 0D58:5A9B       TXT_PRINT3          
 0D58:5AA3       TXT_PRINT4          
 0D58:5AAB       TXT_PRINT5          
 0D58:5AB3       TXT_PRINTC1         
 0D58:5ABB       TXT_PRINTC2         
 0D58:5AC3       BTN_OK              
 0D58:5AD9       BTN_CANCEL          
 0D58:5AEF       BTN_CCANCEL         
 0D58:5B05       RAD_WHAT            
 0D58:5B19       RBTN_WHTHIS         
 0D58:5B2D       RBTN_WHALL          
 0D58:5B41       RAD_OUTPUT          
 0D58:5B55       RBTN_OUPRINT        
 0D58:5B69       RBTN_OUFILE         
 0D58:5B7D       RBTN_OUAFILE        
 0D58:5B91       EDIT_FNAME          
 0D58:5BAD       ETXT_FNAME          
 0D58:5C2E       BOXCHARS            
 0D58:5C40       SCRSAVE             
 0D58:5C44       SCRCNT              
 0D58:5C48       PHLPIND             
 0D58:5C4A       PHLPCNT             
 0D58:5C4C       CURPAGE             
 0D58:5C4E       PHANDLE             
 0D58:5C50       CURLINE             
 0D58:5C52       HELP_STATE          
 0D58:5C54       CURSOR_SHAPE        
 0D58:5C58       ARR_W_HTOP          
 0D58:5C78       ARR_W_HCMD          
 0D58:5C98       PHTOPTTL            
 0D58:5CA8       CALIB_W0            
 0D58:5CB0       CALIB_W0DN          
 0D58:5CB8       CALIB_R0DN          
 0D58:5CC0       CALIB_R0W1          
 0D58:5CC8       CALIB_R0W1DN        
 0D58:5CD0       CALIB_R0W1W0DN      
 0D58:5CD8       CALIB_R0W1R1        
 0D58:5CE0       CALIB_R0W1R1DN      
 0D58:5CE8       CALIB_R0W1R1W0R0W1  
 0D58:5CF0       CALIB_R1            
 0D58:5CF8       CALIB_R1W0          
 0D58:5D00       CALIB_R1W0DN        
 0D58:5D08       CALIB_R1W0R0DN      
 0D58:5D10       CALIB_R1W0R0        
 0D58:5D18       CALIB_R1W0W1        
 0D58:5D20       CALIB_R1W0W1W0DN    
 0D58:5D28       CALIB_SIZ           
 0D58:5D2C       CALIB_IND           
 0D58:5D30       MSG_MEMERR          
 0D58:5D39       MSG_MEMERR1         
 0D58:5D4D       MSG_NMIERR          
 0D58:5D56       MSG_NMIERR1         
 0D58:5D6A       MSG_NOERR           
 0D58:5D7F       DATESEP             
 0D58:5D80       TIMESEP             
 0D58:5D81       MSG_DELAY           
 0D58:5D8E       MSG_DELAYA          
 0D58:5D9A       MSG_DELAYB          
 0D58:5D9A       MSG_W0              
 0D58:5DB3       MSG_W0A             
 0D58:5DBF       MSG_W0B             
 0D58:5DC7       MSG_W1              
 0D58:5DE0       MSG_W1A             
 0D58:5DEC       MSG_W1B             
 0D58:5DF4       MSG_R0              
 0D58:5E0D       MSG_R0A             
 0D58:5E19       MSG_R0B             
 0D58:5E21       MSG_R0W1            
 0D58:5E3A       MSG_R0W1A           
 0D58:5E46       MSG_R0W1B           
 0D58:5E4E       MSG_R0W1R1          
 0D58:5E67       MSG_R0W1R1A         
 0D58:5E73       MSG_R0W1R1B         
 0D58:5E7B       MSG_R0W1R1W0R0W1    
 0D58:5E9F       MSG_R0W1R1W0R0W1Z   
 0D58:5EB8       MSG_R0W1R1W0R0W1A   
 0D58:5EC4       MSG_R0W1R1W0R0W1B   
 0D58:5ECC       MSG_R0W1W0          
 0D58:5EE5       MSG_R0W1W0A         
 0D58:5EF1       MSG_R0W1W0B         
 0D58:5EF9       MSG_R1              
 0D58:5F12       MSG_R1A             
 0D58:5F1E       MSG_R1B             
 0D58:5F26       MSG_R1W0            
 0D58:5F3F       MSG_R1W0A           
 0D58:5F4B       MSG_R1W0B           
 0D58:5F53       MSG_R1W0R0          
 0D58:5F6C       MSG_R1W0R0A         
 0D58:5F78       MSG_R1W0R0B         
 0D58:5F80       MSG_R1W0W1          
 0D58:5F99       MSG_R1W0W1A         
 0D58:5FA5       MSG_R1W0W1B         
 0D58:5FAD       MSG_R1W0W1W0        
 0D58:5FC6       MSG_R1W0W1W0A       
 0D58:5FD2       MSG_R1W0W1W0B       
 0D58:5FDA       ZMSG_CURPATB        
 0D58:5FEA       ZMSG_CURPATB1       
 0D58:5FF2       ZMSG_CURPATW        
 0D58:6002       ZMSG_CURPATW1       
 0D58:6012       ZMSG_CURPATD        
 0D58:6022       ZMSG_CURPATD1       
 0D58:6042       ZMSG_UNLSAF         
 0D58:605F       ZMSG_UNLTRN         
 0D58:607E       ZMSG_UNLINV         
 0D58:60AE       ZMSG_UNLIDM         
 0D58:60DF       ZMSG_LNKINV         
 0D58:610D       ZMSG_LNKIDM         
 0D58:613C       ZMSG_MOVI           
 0D58:6161       ZMSG_DRD            
 0D58:618F       W_CPY               
 0D58:6197       W_AAR               
 0D58:619F       W_KEY               
 0D58:61A7       MSG_CPY             
 0D58:6249       MSG_QUIT            
 0D58:62D0       MSG_HALT            
 0D58:6358       W_MODE              
 0D58:6360       MSG_BASIC           
 0D58:637F       MSG_ADV             
 0D58:639E       W_BASE              
 0D58:63A6       MSG_DEC             
 0D58:63D0       MSG_HEX             
 0D58:63FA       MSG_ALLOC           
 0D58:6410       W_MEMSCR            
 0D58:6418       W_MEMLIN            
 0D58:6420       W_MEMWRK            
 0D58:6428       W_MEMH              
 0D58:6430       MSG_MEMSCR          
 0D58:6580       MSG_MEMLIN          
 0D58:6648       MSG_MEMATTR         
 0D58:6710       W_ELEV              
 0D58:6718       MSG_ELEV            
 0D58:6720       W_EBOX              
 0D58:6728       W_MEMEND            
 0D58:6730       PMSG_MEMEND         
 0D58:6732       MSG_MEMEND0         
 0D58:674B       MSG_MEMEND1         
 0D58:6765       PAMEM               
 0D58:6773       ARR_W_MEMLIN        
 0D58:67D3       MSG_TOT             
 0D58:67DA       W_ASKSCR1           
 0D58:67E2       MSG_QUICKA          
 0D58:67ED       MSG_QUICKB          
 0D58:67F8       MSG_FULLA           
 0D58:6802       MSG_FULLB           
 0D58:680C       MSG_ASKSCR1         
 0D58:698C       MSG_DTXT1           
 0D58:69BC       MSG_AUTO1           
 0D58:69CC       MSG_ETXT1           
 0D58:69EC       ARR_W_ITEM1         
 0D58:69FC       W_ASKSCR2           
 0D58:6A04       MSG_ASKSCR2         
 0D58:6BB4       MSG_DTXT2           
 0D58:6BE4       MSG_AUTO2           
 0D58:6BF4       MSG_ETXT2           
 0D58:6C14       MSG_DMSEC           
 0D58:6C17       MSG_DNUM            
 0D58:6C21       MSG_DNUM1           
 0D58:6C29       W_AUTO1             
 0D58:6C31       W_AUTO2             
 0D58:6C39       MSG_AUTO_OFF        
 0D58:6C49       MSG_AUTO_ON         
 0D58:6C59       ARR_AUTO            
 0D58:6C5D       MSG_ENUM            
 0D58:6C67       MSG_ENUM1           
 0D58:6C6F       W_ENUM1             
 0D58:6C77       W_ENUM2             
 0D58:6C7F       MSG_ASK             
 0D58:6C80       MSG_ASK1            
 0D58:6C98       MSG_CNT1            
 0D58:6D6F       MSG_ASK_CONT        
 0D58:6D72       PATXT2              
 0D58:6D72       PBTXT2              
 0D58:6D84       CNTTAB              
 0D58:6D94       CMPTAB              
 0D58:6DA4       W_ASK               
 0D58:6DAC       ARR_W_ITEM2         
 0D58:6DF4       W_STATSCR           
 0D58:6DFC       W_STATL             
 0D58:6E04       W_SCROLL            
 0D58:6E0C       W_STATH1            
 0D58:6E14       W_STATH2            
 0D58:6E1C       W_STATH3            
 0D58:6E24       MSG_STATSCR         
 0D58:7070       W_CURPAT            
 0D58:7078       ZMSG_ELAP           
 0D58:707A       MSG_ELAP            
 0D58:7087       ZMSG_ELAP1          
 0D58:7087       ZMSG_ELAP_HR        
 0D58:7090       ZMSG_ELAP_DONE      
 0D58:70A2       MSG_EST             
 0D58:70B4       MSG_CONT            
 0D58:70C6       MSG_DONE            
 0D58:70D8       MSG_INTR            
 0D58:70EA       ZMSG_BLK            
 0D58:70EC       ZMSG_BLK1           
 0D58:70FD       ZMSG_BLK3           
 0D58:7106       ZMSG_BLK4           
 0D58:7115       ZMSG_BLK5           
 0D58:711A       MSG_BLKCLR          
 0D58:7148       MSG_SCROLL          
 0D58:74F4       W_PROG              
 0D58:74FC       MSG_PROGSCR         
 0D58:76F4       W_ELAP1             
 0D58:76FC       W_ELAP2             
 0D58:7707       MSG_ETA_HR          
 0D58:7710       W_ETA1              
 0D58:7718       W_ETA2              
 0D58:7720       W_PBAR              
 0D58:7728       MSG_PBAR            
 0D58:775A       MSG_PTSTQUIK        
 0D58:7780       MSG_PTSTFULL        
 0D58:77A6       MSG_PTSTSAF         
 0D58:77CC       MSG_PTSTTF          
 0D58:77F2       MSG_PTSTLIN         
 0D58:7818       MSG_PTSTUIN         
 0D58:783E       MSG_PTSTLID         
 0D58:7864       MSG_PTSTUID         
 0D58:78D6       MSG_PTSTCMP         
 0D58:78FC       MSG_PTSTALL         
 0D58:7922       MSG_PTSTERR         
 0D58:7948       MSG_PTSTINT         
 0D58:796E       MSG_PTSTGET         
 0D58:7994       MSG_PTSTINI         
 0D58:7A9F       MSG_ERRA_HDR        
 0D58:7ADA       MSG_ERRA            
 0D58:7ADA       MSG_ERRA1           
 0D58:7AE5       MSG_ERRA2           
 0D58:7AF1       MSG_ERRA3           
 0D58:7AFD       MSG_TIME_HDR        
 0D58:7B5E       MSG_TIME            
 0D58:7B5E       MSG_TIME_BEG_HR     
 0D58:7B61       MSG_TIME_BEG_MIN    
 0D58:7B64       MSG_TIME_BEG_SEC    
 0D58:7B6A       MSG_TIME_END_HR     
 0D58:7B6D       MSG_TIME_END_MIN    
 0D58:7B70       MSG_TIME_END_SEC    
 0D58:7B74       PMSG_PTST           
 0D58:7B88       PMSG_TSTNAM         
 0D58:7B98       W_PTST              
 0D58:7BA0       MSG_HALTSCR         
 0D58:7C3C       W_HALT              
 0D58:7C44       MSG_DELAYSCR        
 0D58:7CB0       MSG_DELAYSCR1       
 0D58:7D09       W_DELAY             
 0D58:7D11       LOGA                
 0D58:7D4B       LOGB                
 0D58:7D66       LOGDATE             
 0D58:7D71       LOGC                
 0D58:7D76       LOGTIME             
 0D58:7D7F       LOGD                
 0D58:7D9E       LOGE                
 0D58:7DCF       LOGF                
 0D58:7DD4       LOGF_K1             
 0D58:7DDE       LOGF_K2             
 0D58:7DE2       LOGF_H1             
 0D58:7DEB       LOGF_H2             
 0D58:7DFA       LOGF_K3             
 0D58:7DFF       LOGG                
 0D58:7E02       LOG_MEMERR          
 0D58:7E08       LOG_MEMERR1         
 0D58:7E1D       LOG_NMIERR          
 0D58:7E22       LOG_NMIERR1         
 0D58:7E37       LOG_NOERR           
 0D58:7E52       LOG_HALT            
 0D58:7E6D       MSG_BYTERR          
 0D58:7E7F       MSG_WORDERR         
 0D58:7E91       MSG_DWORDERR        
 0D58:7EA4       MSG_NMIERROR        
 0D58:7EB5       MSG_NMISPUR         
 0D58:7ECF       MSG_ADDR            
 0D58:7ED8       MSG_EXP             
 0D58:7EEA       MSG_EXP1            
 0D58:7EFC       MSG_EXP2            
 0D58:7EFF       MSG_EXP3            
 0D58:7F04       W_HKEY              
 0D58:7F0C       W_HKEYERR           
 0D58:7F14       W_HKEYF2            
 0D58:7F1C       MSG_HKEYERR         
 0D58:7F6A       MSG_HKEY            
 0D58:8006       W_HELP              
 0D58:800E       MSG_HELP            
 0D58:817A       W_HLIN              
 0D58:8182       HLIN_SROW           
 0D58:8184       W_HASK              
 0D58:818C       W_HSCR              
 0D58:8194       W_HTTL              
 0D58:819C       W_HELEV             
 0D58:81A4       MSG_HELEV           
 0D58:81B6       W_HEBOX             
 0D58:81BE       MSG_CANCELLED       
 0D58:81D8       PCALIB_USF          
 0D58:81DC       UNLSAF_ACT          
 0D58:81E4       PCALIB_UTF          
 0D58:81E8       UNLTRN_ACT          
 0D58:81F0       PCALIB_UIN          
 0D58:81F4       UNLINV_ACT          
 0D58:81FC       PCALIB_UID          
 0D58:8200       UNLIDM_ACT          
 0D58:8208       PCALIB_LIN          
 0D58:820C       LNKINV_ACT          
 0D58:8214       PCALIB_LID          
 0D58:8218       LNKIDM_ACT          
 0D58:8220       PCALIB_MIF          
 0D58:8224       MOVI_ACT            
 0D58:822C       PCALIB_DRD          
 0D58:8230       DRD_ACT             
 0D58:8238       FUND_FREQ           
 0D58:823C       FSA_LITE            
 0D58:8252       FSA_TAB_LITE        
 0D58:8254       FSA_FD_LITE         
 0D58:8256       FSA_RPT_LITE        
 0D58:8258       FSA_CNT_LITE        
 0D58:825A       FSA_WAIT_LITE       
 0D58:825C       FSA_ACT_LITE        
 0D58:825E       FSA_TONE            
 0D58:8274       FSA_TAB_TONE        
 0D58:8276       FSA_FD_TONE         
 0D58:8278       FSA_RPT_TONE        
 0D58:827A       FSA_CNT_TONE        
 0D58:827C       FSA_WAIT_TONE       
 0D58:827E       FSA_ACT_TONE        
 0D58:8280       A20SUP              
 0D58:8282       I78DATA             
 0D58:8288       HELP_NAVTTL         
 0D58:82CF       HELP_OVRTTL         
 0D58:8316       HELP_TSTTTL         
 0D58:835D       HELP_ERRTTL         
 0D58:83A4       HELP_CMDTTL         
 0D58:83EB       HELP_MEMTTL         
 0D58:8432       HELP_NMITTL         
 0D58:8479       HELP_NMIXTTL        
 0D58:84C0       HELP_NMI            
 0D58:852D       HELP_NMI_ADDR       
 0D58:88A2       HELP_NMIX           
 0D58:890F       HELP_NMIX_ADDR      
 0D58:8C84       HELP_NAV            
 0D58:A151       HELP_OVR            
 0D58:ABDB       HELP_TST            
 0D58:BAD5       HELP_ERR            
 0D58:BE29       HELP_CMD            
 0D58:CF14       HELP_MEM            
 0D58:CF81       HELP_MEM_ADDR       
 0D58:D00E       HELP_MEM_EXP        
 0D58:D055       HELP_MEM_ACT        
 0D58:D3CB       MSG_ACHLP           
 0D58:D67C       CMDARG_TAB          
 0D58:D6DE       CMDARG_LEN          
 0D58:D740       CMDARG_ACT          
 0D58:D8B6       LASTKEY             
 0D58:D8B8       NUMBERS_LO          
 0D58:D8C8       TODAY               
 0D58:D8CC       QMTDAT              
 0D58:D8D0       QMTDAT_M            
 0D58:D8D4       QMTDAT_W            
 0D58:D8D8       TODAY_DOW           
 0D58:D8D9       TODAY_DOM           
 0D58:D8DA       NEXTSCHED           
 0D58:D8DE       MOTAB               
 0D58:D8F6       DNTAB               
 0D58:D904       ASK_DEFAULT         
 0D58:D905       ASK_TIMEOUT         
 0D58:D907       EPOCHTARG           
 0D58:D90B       SECTARG             
 0D58:D90F       LASTDIFF            
 0D58:D914       CMDOFF              
 0D58:D916       MOLEN_TAB           
 0D58:D92E       TONENAM_TAB         
 0D58:D946       LITENAM_TAB         
 0D58:D964       MSG_COPY            
 0D58:D9D4       MSG_NOT386          
 0D58:DA13       MSG_WIN3            
 0D58:DB41       MSG_NOTVM           
 0D58:DBB9       MSG_XMEM            
 0D58:DBF8       MSG_XMEM1           
 0D58:DC09       MSG_XMEM2           
 0D58:DC37       MSG_XMEMSEED        
 0D58:DC3B       MSG_PRVEXT          
 0D58:DC86       MSG_MULBUG          
 0D58:DCFC       MSG_NOMEM           
 0D58:DD28       MSG_ASKCLR          
 0D58:DD55       MSG_CRLF            
 0D58:DD58       MSG_EISA            
 0D58:DD70       MSG_UNK             
 0D58:DD88       MSG_SEP             
 0D58:DDA2       MSG_VAL             
 0D58:DDB8       MSG_OVF             
 0D58:DDD3       MSG_OPEN            
 0D58:DDEF       MSG_READ            
 0D58:DE0B       MSG_NAME            
 0D58:DE2B       MSG_PARSE           
 0D58:DE50       MSG_CMDS            
 0D58:EB0E       MSG_PAK             
 0D58:EB2B       MSG_UNSCHED         
 0D58:EB51       MSG_UNSCHED_DATE    
 0D58:EB6A       SUNDAY              
 0D58:EB71       MONDAY              
 0D58:EB78       TUESDAY             
 0D58:EB80       WEDNESDAY           
 0D58:EB8A       THURSDAY            
 0D58:EB93       FRIDAY              
 0D58:EB9A       SATURDAY            
 0D58:EBA3       MSG_QMTDAT          
 0D58:EBCC       W_ASKCMD            
 0D58:EBD4       W_ASKCMDBACK        
 0D58:EBDC       W_ASKCMDREM         
 0D58:EBE4       MSG_YESA            
 0D58:EBEE       MSG_YESB            
 0D58:EBF8       MSG_NOA             
 0D58:EC02       MSG_NOB             
 0D58:EC0C       MSG_PPA             
 0D58:EC1A       MSG_PPB             
 0D58:EC28       MSG_ASKCMD          
 0D58:ED02       MSG_ASKCMDOPT       
 0D58:EE6A       MSG_ASKCMDREM       
 0D58:EE87       FMT_ASKCMDREM       
 0D58:EE9A       ARR_W_ITEM3         
 0D58:EEB2       W_ACHLP             
 0D58:F2B0       ASKVAL              
 0D58:F31A       ASKCVAL             
 0D58:F332       HLPVAL              
 0D58:F35E       IFEVAL              
 0D58:F36C       SIFEVAL             
 0D58:F374       ASKACT              
 0D58:F3DE       ASKCACT             
 0D58:F3F6       HLPACT              
 0D58:F422       IFEACT              
 0D58:F430       SIFEACT             
 0D58:F438       CALIB_USF           
 0D58:F43E       CALIB_UTF           
 0D58:F444       CALIB_UIN           
 0D58:F44C       CALIB_UID           
 0D58:F458       CALIB_LIN           
 0D58:F460       CALIB_LID           
 0D58:F46A       CALIB_MIF           
 0D58:F474       CALIB_DRD           
 0D58:F482       @LBLSEGA            
 0D58:F61E       @LBLSEGZ            
 0D58:F620       MAX_FLAG            
 0D58:F624       IDENTIFY            
 0D58:F782       IDENT_CHK           
 0D58:F784       MSG_XINST           
 0D58:F7B4       PIDENT              
 0D58:F7B8       ZTAIL               
