
 Start  Stop   Length Name                   Class
 00000H 00000H 00000H STACK                  PROG
 00000H 015C3H 015C4H CODE                   PROG
 015C4H 015C4H 00000H ZCODE                  PROG

 Origin   Group
 0000:0   PGROUP

  Address         Publics by Name

 0000:0080  Abs  @BPS
 0000:0040  Abs  @NDIR
 0000:0001  Abs  @NFATS
 0000:0001  Abs  @NRSV
 0000:133F       ALLOC_XMSHI
 0000:0502       ARG_ERRADDR
 0000:00A2       ARG_ERRNUM
 0000:1499       BASE2BIND
 0000:1518       BIN2BASE
 0000:14E6       BIND2BASE
 0000:0008  Abs  BINVERS_H
 0000:0003  Abs  BINVERS_TU
 0000:003E  Abs  BOOT_LEN
 0000:0012       BOOT_REC
 0000:004C       BOOT_TYP1
 0000:001D       BPB
 0000:001D       BPB_BPS
 0000:0032       BPB_HUGE
 0000:0027       BPB_MED
 0000:0023       BPB_NDIR
 0000:0052       BPB_PTR
 0000:001F       BPB_SPC
 0000:0025       BPB_SPD
 0000:0028       BPB_SPF
 0000:0051       BPSLG2
 0000:0508       BPS_MAX
 0000:0506       BPS_MIN
 0000:07C0       BPS_NUM
 0000:023E       BUILD_BPB
 0000:0D1D       CHECK_ARGS
 0000:158D       CHECK_CPUID
 0000:050F       COPY_MSG
 0000:04CA       D2M_END
 0000:04C4       D2M_SRC
 0000:0000       DEVDRV
 0000:0000       DEVDRV_LBL
 0000:07F6       DEVNAME
 0000:01CF       DEV_INTR
 0000:01C4       DEV_STRA
 0000:04DC       DIR_LEN
 0000:07D7       DIR_NUM
 0000:04D8       DIR_OFF
 0000:006A       DISK2MEM
 0000:04F6       DISKKILO
 0000:081F       DISK_LABEL
 0000:050C       DOSOEM
 0000:0504       DOSVER
 0000:07A2       DRIV_MSG
 0000:0072       EMS
 0000:083F       EMSERR_NUM
 0000:0858       EMSERR_TAB
 0000:07EE       EMSNAME
 0000:046B       EMS_DISK2MEM
 0000:04AD       EMS_DISK2MEMZ
 0000:037C       EMS_MEM2DISK
 0000:03BE       EMS_MEM2DISKZ
 0000:021D       EXIT
 0000:0213       EXIT_DONE
 0000:0072       EXT
 0000:0064       EXTBASE
 0000:0854       EXTERR_NUM
 0000:033A       EXTSIZE
 0000:03BE       EXT_DISK2MEM
 0000:043D       EXT_DISK2MEMZ
 0000:02B7       EXT_MEM2DISK
 0000:034E       EXT_MEM2DISKZ
 0000:04D4       FAT_LEN
 0000:04D0       FAT_OFF
 0000:00A4       FNTAB
 0000:11C2       GET_MAXSIZE
 0000:0068       HNDL
 0000:04AE       HNDLNAME
 0000:0A31       INIT
 0000:079C       INIT_MSG
 0000:0234       INPUT
 0000:033C       INT15
 0000:15B3       KEYWAIT
 0000:00C4       LCLSTK
 0000:04FA       LCL_BPS
 0000:050E       LCL_FLAG
 0000:04FE       LCL_NDIR
 0000:04BE       M2D_END
 0000:04B8       M2D_SRC
 0000:024A       MEDIA_CHECK
 0000:006C       MEM2DISK
 0000:0050       MOVETYPE
 0000:0072       MOVE_LEN
 0000:065F       MSG_DRVERR
 0000:0709       MSG_INCOMPAT
 0000:0623       MSG_INSUF
 0000:067D       MSG_INVARG
 0000:063F       MSG_NODRV
 0000:0585       MSG_NOT386
 0000:05B7       MSG_NOTDOS3
 0000:05E7       MSG_NOTPRES
 0000:075B       MSG_PRESS
 0000:06DE       MSG_TOOBIG
 0000:06B6       MSG_TOOMANY
 0000:04E0       NCIF
 0000:04E2       NEXTIND
 0000:04EA       NEXTMAX
 0000:04E4       NEXTNUM
 0000:080F       NUMBERS_HI
 0000:07FF       NUMBERS_LO
 0000:0336       OLDINT15_VEC
 0000:0058       OLDSTK_VEC
 0000:022A       OUTPUT
 0000:02B7       QCODE_END
 0000:04B6       QDISK_END
 0000:0054       RH_VEC
 0000:12AA       ROUND_SECT
 0000:0251       RW_SAVE
 0000:0289       SECTOR_READ
 0000:02A0       SECTOR_WRITE
 0000:153E       SEND_MSGS
 0000:12C6       SET_NDIR
 0000:07AA       SIZE_NUM
 0000:1489       SKIP_WHITE
 0000:050D       SPCLG2
 0000:006E       START_OFF
 0000:07B2       TYPE_TXT
 0000:005C       USER_DTA_VEC
 0000:0323  Abs  VER
 0000:0008  Abs  VERH
 0000:0003  Abs  VERL
 0000:0020  Abs  VERSLTR1
 0000:00CD  Abs  VERSLTR2
 0000:0038  Abs  VERS_H
 0000:0803  Abs  VERS_HTU
 0000:0030  Abs  VERS_T
 0000:0033  Abs  VERS_U
 0000:0072       XMS
 0000:0060       XMSDRV_VEC
 0000:0845       XMSERR_NUM
 0000:0864       XMSERR_TAB
 0000:043D       XMS_DISK2MEM
 0000:046B       XMS_DISK2MEMZ
 0000:050A       XMS_GETXMBFN
 0000:034E       XMS_MEM2DISK
 0000:037C       XMS_MEM2DISKZ
 0000:050B       XMS_QRYXMBFN
 0000:12E6       ZEROSEG
 0000:15C4       ZTAIL

  Address         Publics by Value

 0000:0000       DEVDRV
 0000:0000       DEVDRV_LBL
 0000:0001  Abs  @NFATS
 0000:0001  Abs  @NRSV
 0000:0003  Abs  VERL
 0000:0003  Abs  BINVERS_TU
 0000:0008  Abs  VERH
 0000:0008  Abs  BINVERS_H
 0000:0012       BOOT_REC
 0000:001D       BPB_BPS
 0000:001D       BPB
 0000:001F       BPB_SPC
 0000:0020  Abs  VERSLTR1
 0000:0023       BPB_NDIR
 0000:0025       BPB_SPD
 0000:0027       BPB_MED
 0000:0028       BPB_SPF
 0000:0030  Abs  VERS_T
 0000:0032       BPB_HUGE
 0000:0033  Abs  VERS_U
 0000:0038  Abs  VERS_H
 0000:003E  Abs  BOOT_LEN
 0000:0040  Abs  @NDIR
 0000:004C       BOOT_TYP1
 0000:0050       MOVETYPE
 0000:0051       BPSLG2
 0000:0052       BPB_PTR
 0000:0054       RH_VEC
 0000:0058       OLDSTK_VEC
 0000:005C       USER_DTA_VEC
 0000:0060       XMSDRV_VEC
 0000:0064       EXTBASE
 0000:0068       HNDL
 0000:006A       DISK2MEM
 0000:006C       MEM2DISK
 0000:006E       START_OFF
 0000:0072       EXT
 0000:0072       MOVE_LEN
 0000:0072       EMS
 0000:0072       XMS
 0000:0080  Abs  @BPS
 0000:00A2       ARG_ERRNUM
 0000:00A4       FNTAB
 0000:00C4       LCLSTK
 0000:00CD  Abs  VERSLTR2
 0000:01C4       DEV_STRA
 0000:01CF       DEV_INTR
 0000:0213       EXIT_DONE
 0000:021D       EXIT
 0000:022A       OUTPUT
 0000:0234       INPUT
 0000:023E       BUILD_BPB
 0000:024A       MEDIA_CHECK
 0000:0251       RW_SAVE
 0000:0289       SECTOR_READ
 0000:02A0       SECTOR_WRITE
 0000:02B7       EXT_MEM2DISK
 0000:02B7       QCODE_END
 0000:0323  Abs  VER
 0000:0336       OLDINT15_VEC
 0000:033A       EXTSIZE
 0000:033C       INT15
 0000:034E       XMS_MEM2DISK
 0000:034E       EXT_MEM2DISKZ
 0000:037C       EMS_MEM2DISK
 0000:037C       XMS_MEM2DISKZ
 0000:03BE       EXT_DISK2MEM
 0000:03BE       EMS_MEM2DISKZ
 0000:043D       XMS_DISK2MEM
 0000:043D       EXT_DISK2MEMZ
 0000:046B       EMS_DISK2MEM
 0000:046B       XMS_DISK2MEMZ
 0000:04AD       EMS_DISK2MEMZ
 0000:04AE       HNDLNAME
 0000:04B6       QDISK_END
 0000:04B8       M2D_SRC
 0000:04BE       M2D_END
 0000:04C4       D2M_SRC
 0000:04CA       D2M_END
 0000:04D0       FAT_OFF
 0000:04D4       FAT_LEN
 0000:04D8       DIR_OFF
 0000:04DC       DIR_LEN
 0000:04E0       NCIF
 0000:04E2       NEXTIND
 0000:04E4       NEXTNUM
 0000:04EA       NEXTMAX
 0000:04F6       DISKKILO
 0000:04FA       LCL_BPS
 0000:04FE       LCL_NDIR
 0000:0502       ARG_ERRADDR
 0000:0504       DOSVER
 0000:0506       BPS_MIN
 0000:0508       BPS_MAX
 0000:050A       XMS_GETXMBFN
 0000:050B       XMS_QRYXMBFN
 0000:050C       DOSOEM
 0000:050D       SPCLG2
 0000:050E       LCL_FLAG
 0000:050F       COPY_MSG
 0000:0585       MSG_NOT386
 0000:05B7       MSG_NOTDOS3
 0000:05E7       MSG_NOTPRES
 0000:0623       MSG_INSUF
 0000:063F       MSG_NODRV
 0000:065F       MSG_DRVERR
 0000:067D       MSG_INVARG
 0000:06B6       MSG_TOOMANY
 0000:06DE       MSG_TOOBIG
 0000:0709       MSG_INCOMPAT
 0000:075B       MSG_PRESS
 0000:079C       INIT_MSG
 0000:07A2       DRIV_MSG
 0000:07AA       SIZE_NUM
 0000:07B2       TYPE_TXT
 0000:07C0       BPS_NUM
 0000:07D7       DIR_NUM
 0000:07EE       EMSNAME
 0000:07F6       DEVNAME
 0000:07FF       NUMBERS_LO
 0000:0803  Abs  VERS_HTU
 0000:080F       NUMBERS_HI
 0000:081F       DISK_LABEL
 0000:083F       EMSERR_NUM
 0000:0845       XMSERR_NUM
 0000:0854       EXTERR_NUM
 0000:0858       EMSERR_TAB
 0000:0864       XMSERR_TAB
 0000:0A31       INIT
 0000:0D1D       CHECK_ARGS
 0000:11C2       GET_MAXSIZE
 0000:12AA       ROUND_SECT
 0000:12C6       SET_NDIR
 0000:12E6       ZEROSEG
 0000:133F       ALLOC_XMSHI
 0000:1489       SKIP_WHITE
 0000:1499       BASE2BIND
 0000:14E6       BIND2BASE
 0000:1518       BIN2BASE
 0000:153E       SEND_MSGS
 0000:158D       CHECK_CPUID
 0000:15B3       KEYWAIT
 0000:15C4       ZTAIL

Line numbers for RET\qdisk.obj(QDISK.ASM) segment CODE

   222 0000:01c5   223 0000:01ca   226 0000:01ce   239 0000:01cf
   241 0000:01d0   243 0000:01d4   244 0000:01d5   249 0000:01d6
   250 0000:01da   252 0000:01de   253 0000:01df   254 0000:01e0
   256 0000:01e1   257 0000:01e5   261 0000:01e6   264 0000:01ea
   266 0000:01ee   267 0000:01f1   269 0000:01f3   270 0000:01f5
   272 0000:01f7   289 0000:01fb   292 0000:01ff   294 0000:0205
   298 0000:0207   301 0000:020b   303 0000:0211   310 0000:0213
   313 0000:0217   320 0000:021d   322 0000:0221   324 0000:0225
   327 0000:0229   344 0000:022a   346 0000:022d   347 0000:0230
   349 0000:0232   366 0000:0234   368 0000:0237   369 0000:023a
   371 0000:023c   388 0000:023e   389 0000:0244   391 0000:0248
   410 0000:024a   412 0000:024f   429 0000:0251   431 0000:0254
   432 0000:0259   434 0000:025d   436 0000:0261   438 0000:0267
   439 0000:026a   441 0000:026c   443 0000:0271   444 0000:0274
   446 0000:0278   447 0000:027e   448 0000:0281   450 0000:0285
   452 0000:0288   470 0000:0289   472 0000:028d   473 0000:0292
   475 0000:0297   478 0000:029b   480 0000:029f   498 0000:02a0
   500 0000:02a4   501 0000:02a9   503 0000:02ae   506 0000:02b2
   508 0000:02b6   538 0000:02b7   547 0000:02bd   548 0000:02c1
   549 0000:02c4   550 0000:02c7   551 0000:02cb   552 0000:02ce
   556 0000:02d2   557 0000:02d5   558 0000:02d9   560 0000:02db
   561 0000:02df   563 0000:02e2   564 0000:02e5   565 0000:02e9
   566 0000:02ec   570 0000:02f0   571 0000:02f5   575 0000:02fa
   576 0000:02ff   577 0000:0303   578 0000:0307   579 0000:030b
   580 0000:030e   581 0000:0312   582 0000:0316   584 0000:031a
   585 0000:031b   588 0000:031c   589 0000:0320   590 0000:0322
   591 0000:0323   592 0000:0325   593 0000:0329   595 0000:032b
   596 0000:032e   598 0000:032f   601 0000:0335   614 0000:033c
   616 0000:033d   617 0000:0340   619 0000:0342   621 0000:0346
   623 0000:0347   626 0000:0348   628 0000:0349   653 0000:034e
   660 0000:0351   661 0000:0354   662 0000:0357   664 0000:035c
   665 0000:0362   667 0000:0367   668 0000:0369   669 0000:036d
   671 0000:0371   672 0000:0375   674 0000:0378   676 0000:037b
   701 0000:037c   708 0000:037f   709 0000:0384   710 0000:0387
   711 0000:038b   712 0000:038e   713 0000:0392   714 0000:0395
   716 0000:0398   717 0000:039d   718 0000:03a3   720 0000:03a8
   721 0000:03aa   722 0000:03ae   724 0000:03b2   725 0000:03b6
   726 0000:03b9   728 0000:03ba   730 0000:03bd   755 0000:03be
   764 0000:03c4   765 0000:03c8   766 0000:03cb   767 0000:03ce
   768 0000:03d2   769 0000:03d5   773 0000:03d9   774 0000:03dc
   775 0000:03e0   777 0000:03e2   778 0000:03e6   780 0000:03e9
   781 0000:03ec   782 0000:03f0   783 0000:03f3   787 0000:03f7
   788 0000:03fc   792 0000:0401   793 0000:0406   794 0000:040a
   795 0000:040e   796 0000:0412   797 0000:0415   798 0000:0419
   799 0000:041d   801 0000:0421   802 0000:0422   805 0000:0423
   806 0000:0427   807 0000:0429   808 0000:042a   809 0000:042c
   810 0000:0430   812 0000:0432   813 0000:0435   815 0000:0436
   818 0000:043c   843 0000:043d   850 0000:0440   851 0000:0443
   852 0000:0446   854 0000:044b   855 0000:0451   857 0000:0456
   858 0000:0458   859 0000:045c   861 0000:0460   862 0000:0464
   864 0000:0467   866 0000:046a   891 0000:046b   898 0000:046e
   899 0000:0473   900 0000:0476   901 0000:047a   902 0000:047d
   903 0000:0481   904 0000:0484   906 0000:0487   907 0000:048c
   908 0000:0492   910 0000:0497   911 0000:0499   912 0000:049d
   914 0000:04a1   915 0000:04a5   916 0000:04a8   918 0000:04a9
   920 0000:04ac

Program entry point at 0000:0000

Line numbers for RET\qdisk_in.obj(QDISK_IN.ASM) segment CODE

   457 0000:0a31   459 0000:0a33   461 0000:0a3b   465 0000:0a3d
   466 0000:0a40   468 0000:0a45   472 0000:0a47   473 0000:0a49
   477 0000:0a4d   478 0000:0a4f   479 0000:0a52   481 0000:0a56
   482 0000:0a59   483 0000:0a64   487 0000:0a68   488 0000:0a6a
   489 0000:0a73   491 0000:0a75   495 0000:0a77   496 0000:0a79
   497 0000:0a7d   498 0000:0a7e   499 0000:0a82   500 0000:0a83
   502 0000:0a85   503 0000:0a89   505 0000:0a8b   510 0000:0a90
   511 0000:0a93   513 0000:0a97   514 0000:0a9c   515 0000:0aa7
   517 0000:0aab   518 0000:0aac   523 0000:0aad   524 0000:0aaf
   525 0000:0ab3   526 0000:0ab7   527 0000:0aba   528 0000:0ac0
   529 0000:0ac5   530 0000:0acc   531 0000:0ad2   532 0000:0add
   533 0000:0ae1   537 0000:0ae5   538 0000:0ae9   540 0000:0aec
   541 0000:0aef   542 0000:0af2   543 0000:0af5   544 0000:0af8
   548 0000:0afc   549 0000:0b02   551 0000:0b04   552 0000:0b07
   558 0000:0b09   559 0000:0b0d   560 0000:0b12   561 0000:0b17
   562 0000:0b1c   563 0000:0b23   564 0000:0b29   565 0000:0b34
   566 0000:0b38   568 0000:0b3c   569 0000:0b41   578 0000:0b44
   580 0000:0b47   582 0000:0b4a   583 0000:0b51   585 0000:0b53
   587 0000:0b59   588 0000:0b5d   594 0000:0b60   595 0000:0b64
   596 0000:0b69   597 0000:0b6e   598 0000:0b73   599 0000:0b7a
   600 0000:0b80   601 0000:0b8b   602 0000:0b8f   604 0000:0b93
   605 0000:0b96   609 0000:0b98   610 0000:0b9c   611 0000:0ba0
   612 0000:0ba3   618 0000:0ba7   619 0000:0bab   620 0000:0bb0
   621 0000:0bb6   622 0000:0bbb   623 0000:0bc0   624 0000:0bc7
   625 0000:0bcd   626 0000:0bd8   627 0000:0bdc   629 0000:0be0
   630 0000:0be5   634 0000:0be9   636 0000:0bec   638 0000:0bef
   639 0000:0bf6   641 0000:0bf8   643 0000:0bfe   644 0000:0c02
   650 0000:0c05   651 0000:0c09   652 0000:0c0e   653 0000:0c13
   654 0000:0c18   655 0000:0c1f   656 0000:0c25   657 0000:0c30
   658 0000:0c34   660 0000:0c38   661 0000:0c3b   665 0000:0c3d
   669 0000:0c40   670 0000:0c45   672 0000:0c47   673 0000:0c49
   675 0000:0c52   677 0000:0c54   683 0000:0c57   686 0000:0c59
   688 0000:0c60   689 0000:0c61   692 0000:0c62   693 0000:0c63
   696 0000:0c64   697 0000:0c68   699 0000:0c6c   701 0000:0c6f
   702 0000:0c74   704 0000:0c76   705 0000:0c7b   707 0000:0c7d
   708 0000:0c80   709 0000:0c84   710 0000:0c86   712 0000:0c88
   713 0000:0c8c   715 0000:0c8e   716 0000:0c92   718 0000:0c96
   721 0000:0c98   722 0000:0c9b   723 0000:0c9f   724 0000:0ca1
   726 0000:0ca3   727 0000:0ca7   729 0000:0ca9   730 0000:0cad
   732 0000:0cb1   735 0000:0cb3   736 0000:0cb6   737 0000:0cba
   738 0000:0cbc   740 0000:0cbe   741 0000:0cc2   743 0000:0cc4
   744 0000:0cc8   746 0000:0ccc   750 0000:0cd4   755 0000:0cd7
   756 0000:0cdc   758 0000:0cde   760 0000:0ce2   761 0000:0ce5
   763 0000:0ce7   764 0000:0cec   766 0000:0cee   768 0000:0cf2
   771 0000:0cf4   772 0000:0cf6   775 0000:0cfa   778 0000:0cfe
   779 0000:0d03   780 0000:0d09   782 0000:0d0d   784 0000:0d13
   787 0000:0d1a   810 0000:0d1d   811 0000:0d1f   820 0000:0d21
   821 0000:0d27   823 0000:0d29   824 0000:0d2e   826 0000:0d30
   827 0000:0d36   829 0000:0d3c   832 0000:0d40   835 0000:0d43
   836 0000:0d44   839 0000:0d45   841 0000:0d46   842 0000:0d48
   844 0000:0d4c   845 0000:0d4e   847 0000:0d52   848 0000:0d54
   850 0000:0d56   851 0000:0d58   853 0000:0d5a   855 0000:0d5d
   856 0000:0d5f   858 0000:0d63   859 0000:0d65   861 0000:0d69
   862 0000:0d6b   864 0000:0d6f   865 0000:0d71   870 0000:0d73
   871 0000:0d75   873 0000:0d77   874 0000:0d79   876 0000:0d7b
   877 0000:0d7c   878 0000:0d7f   879 0000:0d82   880 0000:0d8f
   883 0000:0d93   885 0000:0d98   886 0000:0d9b   887 0000:0da8
   889 0000:0dac   892 0000:0dae   893 0000:0db4   894 0000:0dc1
   896 0000:0dc5   898 0000:0dc7   899 0000:0dcd   901 0000:0dd2
   903 0000:0dd6   909 0000:0dd8   910 0000:0de0   911 0000:0de6
   912 0000:0df0   913 0000:0dfa   914 0000:0e04   918 0000:0e08
   919 0000:0e10   920 0000:0e16   921 0000:0e20   922 0000:0e2a
   923 0000:0e34   927 0000:0e36   928 0000:0e3e   929 0000:0e44
   930 0000:0e4e   931 0000:0e58   932 0000:0e62   936 0000:0e64
   937 0000:0e6c   939 0000:0e6e   940 0000:0e73   942 0000:0e75
   943 0000:0e7b   945 0000:0e7e   951 0000:0e81   952 0000:0e89
   954 0000:0e8b   956 0000:0e8c   960 0000:0e8e   962 0000:0e9b
   967 0000:0e9e   968 0000:0ea3   970 0000:0ea5   971 0000:0eab
   973 0000:0eae   975 0000:0eb1   978 0000:0eb4   979 0000:0eb5
   986 0000:0eb6   987 0000:0ebb   989 0000:0ebd   996 0000:0ec3
   997 0000:0ec8   999 0000:0eca  1000 0000:0ecc  1002 0000:0ece
  1004 0000:0ed2  1005 0000:0ed7  1007 0000:0ed9  1008 0000:0ede
  1009 0000:0ee7  1010 0000:0ef0  1012 0000:0ef9  1020 0000:0f02
  1021 0000:0f07  1022 0000:0f09  1023 0000:0f0d  1024 0000:0f11
  1025 0000:0f15  1026 0000:0f19  1027 0000:0f1b  1029 0000:0f1f
  1030 0000:0f23  1031 0000:0f27  1032 0000:0f2b  1033 0000:0f2d
  1034 0000:0f31  1036 0000:0f35  1037 0000:0f3a  1038 0000:0f3d
  1042 0000:0f40  1043 0000:0f43  1045 0000:0f47  1046 0000:0f4c
  1048 0000:0f4e  1050 0000:0f52  1051 0000:0f55  1055 0000:0f58
  1056 0000:0f5b  1057 0000:0f5e  1058 0000:0f61  1059 0000:0f63
  1061 0000:0f66  1062 0000:0f6a  1064 0000:0f6c  1065 0000:0f70
  1067 0000:0f72  1068 0000:0f76  1070 0000:0f78  1072 0000:0f7b
  1076 0000:0f7d  1078 0000:0f80  1079 0000:0f83  1080 0000:0f86
  1082 0000:0f89  1087 0000:0f8c  1088 0000:0f90  1089 0000:0f94
  1090 0000:0f98  1092 0000:0f9b  1093 0000:0fa1  1098 0000:0fa3
  1099 0000:0fa9  1101 0000:0fab  1102 0000:0fb1  1104 0000:0fb5
  1107 0000:0fb7  1108 0000:0fbb  1110 0000:0fbf  1112 0000:0fc2
  1113 0000:0fc6  1115 0000:0fc8  1116 0000:0fcc  1118 0000:0fd0
  1119 0000:0fdb  1121 0000:0fdf  1124 0000:0fe2  1130 0000:0fe5
  1131 0000:0feb  1132 0000:0fef  1133 0000:0ff2  1134 0000:0ff6
  1136 0000:0ff9  1142 0000:0ffc  1144 0000:1002  1145 0000:1004
  1147 0000:1006  1149 0000:100a  1151 0000:100d  1152 0000:1013
  1153 0000:101a  1155 0000:101d  1159 0000:1023  1160 0000:1029
  1161 0000:102b  1162 0000:102e  1163 0000:1032  1168 0000:1035
  1169 0000:103b  1171 0000:103f  1173 0000:1044  1174 0000:1047
  1176 0000:1049  1178 0000:104e  1192 0000:1051  1193 0000:1057
  1195 0000:105e  1197 0000:1062  1199 0000:1068  1200 0000:106b
  1202 0000:106d  1204 0000:1070  1207 0000:1072  1208 0000:1075
  1209 0000:1076  1211 0000:1078  1212 0000:107b  1217 0000:107f
  1218 0000:1083  1226 0000:1086  1228 0000:108a  1229 0000:108e
  1235 0000:1092  1236 0000:1096  1237 0000:109b  1238 0000:109e
  1240 0000:10a2  1241 0000:10a8  1242 0000:10ac  1243 0000:10af
  1248 0000:10b3  1249 0000:10b7  1250 0000:10bc  1252 0000:10bf
  1253 0000:10c5  1254 0000:10c9  1255 0000:10cc  1256 0000:10cf
  1257 0000:10d5  1259 0000:10d9  1260 0000:10de  1261 0000:10e9
  1265 0000:10ed  1266 0000:10f2  1268 0000:10f4  1269 0000:10f9
  1271 0000:10fb  1272 0000:10fd  1275 0000:1101  1276 0000:1105
  1278 0000:1109  1281 0000:110c  1282 0000:1111  1283 0000:1115
  1284 0000:1118  1286 0000:111c  1287 0000:1123  1288 0000:112e
  1290 0000:1132  1292 0000:1136  1293 0000:1138  1294 0000:1142
  1296 0000:1144  1301 0000:1148  1302 0000:114c  1303 0000:114e
  1305 0000:1152  1306 0000:1155  1308 0000:1157  1310 0000:115b
  1313 0000:115d  1314 0000:115f  1315 0000:1169  1317 0000:116b
  1323 0000:116d  1324 0000:1172  1326 0000:1174  1327 0000:1177
  1329 0000:1179  1332 0000:117b  1333 0000:1180  1334 0000:1184
  1336 0000:1188  1337 0000:118b  1338 0000:1195  1340 0000:1197
  1342 0000:119b  1345 0000:119f  1346 0000:11a4  1347 0000:11a7
  1348 0000:11ab  1352 0000:11af  1353 0000:11b5  1355 0000:11b9
  1357 0000:11ba  1360 0000:11bc  1362 0000:11bd  1363 0000:11bf
  1365 0000:11c1  1386 0000:11c2  1388 0000:11cb  1389 0000:11d0
  1391 0000:11d2  1392 0000:11d7  1394 0000:11d9  1395 0000:11db
  1397 0000:11dd  1399 0000:11e1  1401 0000:11e3  1403 0000:11e8
  1404 0000:11eb  1406 0000:11ed  1408 0000:11f0  1409 0000:11f3
  1411 0000:11f6  1412 0000:11f9  1413 0000:11fd  1414 0000:1204
  1416 0000:1209  1418 0000:120b  1424 0000:120e  1425 0000:1210
  1428 0000:1214  1429 0000:1218  1430 0000:121c  1431 0000:121f
  1432 0000:1221  1433 0000:122c  1435 0000:122e  1437 0000:1232
  1438 0000:1234  1439 0000:123e  1441 0000:1240  1442 0000:1244
  1444 0000:1248  1450 0000:124a  1451 0000:124d  1453 0000:124f
  1454 0000:1251  1455 0000:125c  1457 0000:125e  1458 0000:1261
  1461 0000:1263  1462 0000:1267  1464 0000:126b  1465 0000:126d
  1471 0000:1271  1472 0000:1274  1474 0000:1276  1475 0000:127b
  1477 0000:1280  1479 0000:1283  1480 0000:1287  1481 0000:1289
  1485 0000:128d  1486 0000:1290  1487 0000:129a  1489 0000:129c
  1491 0000:129d  1494 0000:129f  1496 0000:12a0  1499 0000:12a9
  1520 0000:12aa  1522 0000:12ac  1523 0000:12b3  1524 0000:12b6
  1525 0000:12b8  1526 0000:12bd  1527 0000:12c0  1529 0000:12c3
  1531 0000:12c5  1561 0000:12c6  1563 0000:12c8  1564 0000:12cb
  1565 0000:12ce  1567 0000:12d2  1569 0000:12d6  1570 0000:12d8
  1572 0000:12da  1574 0000:12dc  1576 0000:12df  1578 0000:12e3
  1580 0000:12e5  1598 0000:12e6  1600 0000:12ed  1602 0000:12ef
  1603 0000:12f3  1607 0000:12f5  1608 0000:12f8  1610 0000:12fa
  1612 0000:12fd  1613 0000:12fe  1614 0000:1300  1615 0000:1302
  1617 0000:1303  1618 0000:1306  1622 0000:1308  1623 0000:130a
  1624 0000:130e  1627 0000:1310  1628 0000:1312  1630 0000:1315
  1631 0000:131c  1633 0000:131e  1635 0000:1324  1636 0000:1326
  1637 0000:1329  1638 0000:132c  1639 0000:132e  1640 0000:1330
  1642 0000:1333  1644 0000:1335  1647 0000:1337  1650 0000:133e
  1668 0000:133f  1697 0000:134b  1698 0000:134e  1700 0000:1350
  1701 0000:1353  1702 0000:1356  1703 0000:135a  1704 0000:135c
  1708 0000:1360  1709 0000:1363  1711 0000:1365  1712 0000:1368
  1713 0000:136b  1714 0000:136f  1716 0000:1373  1717 0000:1376
  1718 0000:1380  1720 0000:1384  1722 0000:1385  1723 0000:138a
  1725 0000:138c  1726 0000:138e  1729 0000:1392  1730 0000:1395
  1731 0000:139f  1733 0000:13a3  1734 0000:13a7  1736 0000:13a9
  1737 0000:13ac  1739 0000:13ae  1740 0000:13b1  1741 0000:13b4
  1742 0000:13b8  1747 0000:13bc  1748 0000:13bd  1749 0000:13be
  1750 0000:13c0  1752 0000:13c4  1753 0000:13c7  1754 0000:13d1
  1756 0000:13d5  1773 0000:13d8  1774 0000:13dc  1776 0000:13de
  1777 0000:13e1  1778 0000:13eb  1780 0000:13ed  1781 0000:13ef
  1783 0000:13f3  1784 0000:13f6  1785 0000:1400  1790 0000:1402
  1792 0000:1404  1793 0000:1407  1795 0000:1409  1797 0000:140c
  1800 0000:140e  1804 0000:1413  1805 0000:1416  1806 0000:141b
  1808 0000:141d  1809 0000:1421  1811 0000:1425  1812 0000:1428
  1813 0000:1432  1815 0000:1434  1817 0000:1435  1818 0000:143a
  1819 0000:143e  1821 0000:1442  1822 0000:1445  1823 0000:144f
  1825 0000:1451  1830 0000:1455  1832 0000:1456  1833 0000:1459
  1835 0000:145b  1836 0000:145e  1838 0000:1460  1839 0000:1462
  1841 0000:1466  1851 0000:1468  1853 0000:1469  1854 0000:146c
  1856 0000:146e  1857 0000:1471  1859 0000:1473  1860 0000:1475
  1862 0000:1479  1866 0000:147b  1868 0000:147c  1870 0000:1488
  1893 0000:1489  1895 0000:148a  1896 0000:148c  1898 0000:148e
  1899 0000:1490  1901 0000:1492  1902 0000:1494  1904 0000:1496
  1906 0000:1498  1932 0000:1499  1934 0000:14a1  1935 0000:14a5
  1936 0000:14a8  1938 0000:14ab  1939 0000:14ac  1942 0000:14ad
  1943 0000:14b2  1944 0000:14b3  1945 0000:14b5  1946 0000:14b6
  1948 0000:14b8  1949 0000:14bc  1951 0000:14bf  1952 0000:14c2
  1954 0000:14c4  1955 0000:14c7  1956 0000:14ca  1958 0000:14cc
  1960 0000:14cd  1961 0000:14cf  1963 0000:14d1  1965 0000:14d3
  1968 0000:14d5  1970 0000:14d6  1973 0000:14d8  1974 0000:14d9
  1976 0000:14dc  1978 0000:14dd  1981 0000:14e5  1995 0000:14e6
  1997 0000:14ee  1998 0000:14ef  2000 0000:14f0  2001 0000:14f6
  2004 0000:14f8  2005 0000:14fb  2007 0000:14fe  2008 0000:1502
  2010 0000:1504  2012 0000:1507  2013 0000:150a  2015 0000:150c
  2017 0000:150e  2019 0000:150f  2021 0000:1517  2035 0000:1518
  2037 0000:151d  2038 0000:151e  2040 0000:151f  2041 0000:1522
  2043 0000:1524  2044 0000:1526  2046 0000:1528  2047 0000:152c
  2049 0000:152e  2051 0000:1531  2052 0000:1533  2054 0000:1535
  2056 0000:1537  2058 0000:1538  2060 0000:153d  2074 0000:153e
  2076 0000:1545  2079 0000:1549  2081 0000:154d  2082 0000:154e
  2085 0000:154f  2086 0000:1551  2088 0000:1554  2089 0000:1558
  2090 0000:155c  2091 0000:155f  2093 0000:1562  2094 0000:1566
  2095 0000:1569  2096 0000:156c  2098 0000:156f  2099 0000:1573
  2100 0000:1576  2101 0000:1579  2103 0000:157c  2105 0000:1585
  2108 0000:158c  2128 0000:158d  2130 0000:158f  2131 0000:1590
  2133 0000:1591  2134 0000:1593  2138 0000:1595  2140 0000:1596
  2142 0000:1599  2143 0000:159a  2145 0000:159b  2146 0000:159c
  2148 0000:159d  2150 0000:159e  2151 0000:15a1  2152 0000:15a2
  2154 0000:15a4  2156 0000:15af  2158 0000:15b0  2160 0000:15b2
  2178 0000:15b3  2179 0000:15b7  2181 0000:15b9  2183 0000:15bd
  2186 0000:15bf  2188 0000:15c3